(lp1
(S'/home/andoni/Escritorio/PythonProjets/InfRecoverySistem/Documents/historia_de_una_madre.txt'
p2
S'historia de una madre'
tp3
a(S'/home/andoni/Escritorio/PythonProjets/InfRecoverySistem/Documents/los_constructores_de_catedrales.txt'
p4
S'los constructores de catedrales'
tp5
a(S'/home/andoni/Escritorio/PythonProjets/InfRecoverySistem/Documents/espiritu_santo.txt'
p6
S'espiritu santo'
tp7
a(S'/home/andoni/Escritorio/PythonProjets/InfRecoverySistem/Documents/la_zapatera_prodigiosa.txt'
p8
S'la zapatera prodigiosa'
tp9
a(S'/home/andoni/Escritorio/PythonProjets/InfRecoverySistem/Documents/juan_el_bobo.txt'
p10
S'juan el bobo'
tp11
a(S'/home/andoni/Escritorio/PythonProjets/InfRecoverySistem/Documents/teoria_de_la_computabilidad.txt'
p12
S'teoria de la computabilidad'
tp13
a(S'/home/andoni/Escritorio/PythonProjets/InfRecoverySistem/Documents/meteorologia.txt'
p14
S'meteorologia'
tp15
a(S'/home/andoni/Escritorio/PythonProjets/InfRecoverySistem/Documents/futbol.txt'
p16
S'futbol'
tp17
a(S'/home/andoni/Escritorio/PythonProjets/InfRecoverySistem/Documents/base_de_datos_orientadas_a_objetos.txt'
p18
S'base de datos orientadas a objetos'
tp19
a(S'/home/andoni/Escritorio/PythonProjets/InfRecoverySistem/Documents/la_gota_de_rocio.txt'
p20
S'la gota de rocio'
tp21
a(S'/home/andoni/Escritorio/PythonProjets/InfRecoverySistem/Documents/los_dinosaurios.txt'
p22
S'los dinosaurios'
tp23
a(S'/home/andoni/Escritorio/PythonProjets/InfRecoverySistem/Documents/relieve.txt'
p24
S'relieve'
tp25
a(S'/home/andoni/Escritorio/PythonProjets/InfRecoverySistem/Documents/aprendizaje_automatico.txt'
p26
S'aprendizaje automatico'
tp27
a(S'/home/andoni/Escritorio/PythonProjets/InfRecoverySistem/Documents/mercurio.txt'
p28
S'mercurio'
tp29
a(S'/home/andoni/Escritorio/PythonProjets/InfRecoverySistem/Documents/recomendaciones_uso_redes_sociales.txt'
p30
S'recomendaciones uso redes sociales'
tp31
a(S'/home/andoni/Escritorio/PythonProjets/InfRecoverySistem/Documents/costa_peruana.txt'
p32
S'costa peruana'
tp33
a(S'/home/andoni/Escritorio/PythonProjets/InfRecoverySistem/Documents/el_cuello_de_camisa.txt'
p34
S'el cuello de camisa'
tp35
a(S'/home/andoni/Escritorio/PythonProjets/InfRecoverySistem/Documents/jupiter.txt'
p36
S'jupiter'
tp37
a(S'/home/andoni/Escritorio/PythonProjets/InfRecoverySistem/Documents/la_princesa_lucia.txt'
p38
S'la princesa lucia'
tp39
a(S'/home/andoni/Escritorio/PythonProjets/InfRecoverySistem/Documents/energia_cinetica.txt'
p40
S'energia cinetica'
tp41
a(S'/home/andoni/Escritorio/PythonProjets/InfRecoverySistem/Documents/abuelita.txt'
p42
S'abuelita'
tp43
a(S'/home/andoni/Escritorio/PythonProjets/InfRecoverySistem/Documents/software.txt'
p44
S'software'
tp45
a(S'/home/andoni/Escritorio/PythonProjets/InfRecoverySistem/Documents/quebrada.txt'
p46
S'quebrada'
tp47
a(S'/home/andoni/Escritorio/PythonProjets/InfRecoverySistem/Documents/plasma.txt'
p48
S'plasma'
tp49
a(S'/home/andoni/Escritorio/PythonProjets/InfRecoverySistem/Documents/marea.txt'
p50
S'marea'
tp51
a(S'/home/andoni/Escritorio/PythonProjets/InfRecoverySistem/Documents/la_oveja_negra.txt'
p52
S'la oveja negra'
tp53
a(S'/home/andoni/Escritorio/PythonProjets/InfRecoverySistem/Documents/mil_espejos.txt'
p54
S'mil espejos'
tp55
a(S'/home/andoni/Escritorio/PythonProjets/InfRecoverySistem/Documents/ricardo_carvalho.txt'
p56
S'ricardo carvalho'
tp57
a(S'/home/andoni/Escritorio/PythonProjets/InfRecoverySistem/Documents/arbol_b.txt'
p58
S'arbol b'
tp59
a(S'/home/andoni/Escritorio/PythonProjets/InfRecoverySistem/Documents/la_margarita.txt'
p60
S'la margarita'
tp61
a(S'/home/andoni/Escritorio/PythonProjets/InfRecoverySistem/Documents/bioma.txt'
p62
S'bioma'
tp63
a(S'/home/andoni/Escritorio/PythonProjets/InfRecoverySistem/Documents/los_microbios.txt'
p64
S'los microbios'
tp65
a(S'/home/andoni/Escritorio/PythonProjets/InfRecoverySistem/Documents/teoria_de_automatas.txt'
p66
S'teoria de automatas'
tp67
a(S'/home/andoni/Escritorio/PythonProjets/InfRecoverySistem/Documents/amor_preposicional.txt'
p68
S'amor preposicional'
tp69
a(S'/home/andoni/Escritorio/PythonProjets/InfRecoverySistem/Documents/ruisenor_rosa.txt'
p70
S'ruisenor rosa'
tp71
a(S'/home/andoni/Escritorio/PythonProjets/InfRecoverySistem/Documents/computacion_distribuida.txt'
p72
S'computacion distribuida'
tp73
a(S'/home/andoni/Escritorio/PythonProjets/InfRecoverySistem/Documents/imperio_incaico.txt'
p74
S'imperio incaico'
tp75
a(S'/home/andoni/Escritorio/PythonProjets/InfRecoverySistem/Documents/el_soldadito_de_plomo.txt'
p76
S'el soldadito de plomo'
tp77
a(S'/home/andoni/Escritorio/PythonProjets/InfRecoverySistem/Documents/tres_cerditos.txt'
p78
S'tres cerditos'
tp79
a(S'/home/andoni/Escritorio/PythonProjets/InfRecoverySistem/Documents/barriga_llena_corazon_contento.txt'
p80
S'barriga llena corazon contento'
tp81
a(S'/home/andoni/Escritorio/PythonProjets/InfRecoverySistem/Documents/lo_mas_increible.txt'
p82
S'lo mas increible'
tp83
a(S'/home/andoni/Escritorio/PythonProjets/InfRecoverySistem/Documents/mariposa_del_aire.txt'
p84
S'mariposa del aire'
tp85
a(S'/home/andoni/Escritorio/PythonProjets/InfRecoverySistem/Documents/manuel_neuer.txt'
p86
S'manuel neuer'
tp87
a(S'/home/andoni/Escritorio/PythonProjets/InfRecoverySistem/Documents/electron.txt'
p88
S'electron'
tp89
a(S'/home/andoni/Escritorio/PythonProjets/InfRecoverySistem/Documents/robotica.txt'
p90
S'robotica'
tp91
a(S'/home/andoni/Escritorio/PythonProjets/InfRecoverySistem/Documents/el_dragon.txt'
p92
S'el dragon'
tp93
a(S'/home/andoni/Escritorio/PythonProjets/InfRecoverySistem/Documents/base_de_datos_relacional.txt'
p94
S'base de datos relacional'
tp95
a(S'/home/andoni/Escritorio/PythonProjets/InfRecoverySistem/Documents/la_casa_vieja.txt'
p96
S'la casa vieja'
tp97
a(S'/home/andoni/Escritorio/PythonProjets/InfRecoverySistem/Documents/una_rosa_de_la_tumba_de_homero.txt'
p98
S'una rosa de la tumba de homero'
tp99
a(S'/home/andoni/Escritorio/PythonProjets/InfRecoverySistem/Documents/razonamiento_automatizado.txt'
p100
S'razonamiento automatizado'
tp101
a(S'/home/andoni/Escritorio/PythonProjets/InfRecoverySistem/Documents/diego_armando_maradona.txt'
p102
S'diego armando maradona'
tp103
a(S'/home/andoni/Escritorio/PythonProjets/InfRecoverySistem/Documents/de_ola_en_ola.txt'
p104
S'de ola en ola'
tp105
a(S'/home/andoni/Escritorio/PythonProjets/InfRecoverySistem/Documents/la_paz.txt'
p106
S'la paz'
tp107
a(S'/home/andoni/Escritorio/PythonProjets/InfRecoverySistem/Documents/lago.txt'
p108
S'lago'
tp109
a(S'/home/andoni/Escritorio/PythonProjets/InfRecoverySistem/Documents/aristoteles.txt'
p110
S'aristoteles'
tp111
a(S'/home/andoni/Escritorio/PythonProjets/InfRecoverySistem/Documents/oceano.txt'
p112
S'oceano'
tp113
a(S'/home/andoni/Escritorio/PythonProjets/InfRecoverySistem/Documents/monticulo_suave.txt'
p114
S'monticulo suave'
tp115
a(S'/home/andoni/Escritorio/PythonProjets/InfRecoverySistem/Documents/el_cofre_volador.txt'
p116
S'el cofre volador'
tp117
a(S'/home/andoni/Escritorio/PythonProjets/InfRecoverySistem/Documents/mar.txt'
p118
S'mar'
tp119
a(S'/home/andoni/Escritorio/PythonProjets/InfRecoverySistem/Documents/el_hombre_no_viene_del_mono.txt'
p120
S'el hombre no viene del mono'
tp121
a(S'/home/andoni/Escritorio/PythonProjets/InfRecoverySistem/Documents/caperucita_roja.txt'
p122
S'caperucita roja'
tp123
a(S'/home/andoni/Escritorio/PythonProjets/InfRecoverySistem/Documents/peter_pan.txt'
p124
S'peter pan'
tp125
a(S'/home/andoni/Escritorio/PythonProjets/InfRecoverySistem/Documents/arbol_binario.txt'
p126
S'arbol binario'
tp127
a(S'/home/andoni/Escritorio/PythonProjets/InfRecoverySistem/Documents/sastrecillo_valiente.txt'
p128
S'sastrecillo valiente'
tp129
a(S'/home/andoni/Escritorio/PythonProjets/InfRecoverySistem/Documents/teoria_de_computacion.txt'
p130
S'teoria de computacion'
tp131
a(S'/home/andoni/Escritorio/PythonProjets/InfRecoverySistem/Documents/paul_scholes.txt'
p132
S'paul scholes'
tp133
a(S'/home/andoni/Escritorio/PythonProjets/InfRecoverySistem/Documents/el_paisaje_cambia_de_color.txt'
p134
S'el paisaje cambia de color'
tp135
a(S'/home/andoni/Escritorio/PythonProjets/InfRecoverySistem/Documents/base_de_datos_transaccionales.txt'
p136
S'base de datos transaccionales'
tp137
a(S'/home/andoni/Escritorio/PythonProjets/InfRecoverySistem/Documents/poema_20.txt'
p138
S'poema 20'
tp139
a(S'/home/andoni/Escritorio/PythonProjets/InfRecoverySistem/Documents/una_historia.txt'
p140
S'una historia'
tp141
a(S'/home/andoni/Escritorio/PythonProjets/InfRecoverySistem/Documents/juventus.txt'
p142
S'juventus'
tp143
a(S'/home/andoni/Escritorio/PythonProjets/InfRecoverySistem/Documents/el_ruisenor.txt'
p144
S'el ruisenor'
tp145
a(S'/home/andoni/Escritorio/PythonProjets/InfRecoverySistem/Documents/aqualad.txt'
p146
S'aqualad'
tp147
a(S'/home/andoni/Escritorio/PythonProjets/InfRecoverySistem/Documents/es_la_pura_verdad.txt'
p148
S'es la pura verdad'
tp149
a(S'/home/andoni/Escritorio/PythonProjets/InfRecoverySistem/Documents/viento_solar.txt'
p150
S'viento solar'
tp151
a(S'/home/andoni/Escritorio/PythonProjets/InfRecoverySistem/Documents/principios_de_la_ciencia.txt'
p152
S'principios de la ciencia'
tp153
a(S'/home/andoni/Escritorio/PythonProjets/InfRecoverySistem/Documents/tommy_thayer.txt'
p154
S'tommy thayer'
tp155
a(S'/home/andoni/Escritorio/PythonProjets/InfRecoverySistem/Documents/vision_del_valuarte.txt'
p156
S'vision del valuarte'
tp157
a(S'/home/andoni/Escritorio/PythonProjets/InfRecoverySistem/Documents/la_familia_feliz.txt'
p158
S'la familia feliz'
tp159
a(S'/home/andoni/Escritorio/PythonProjets/InfRecoverySistem/Documents/vision_artificial.txt'
p160
S'vision artificial'
tp161
a(S'/home/andoni/Escritorio/PythonProjets/InfRecoverySistem/Documents/pepita_jimenez.txt'
p162
S'pepita jimenez'
tp163
a(S'/home/andoni/Escritorio/PythonProjets/InfRecoverySistem/Documents/neurociencia_computacional.txt'
p164
S'neurociencia computacional'
tp165
a(S'/home/andoni/Escritorio/PythonProjets/InfRecoverySistem/Documents/las_habichuelas_magicas.txt'
p166
S'las habichuelas magicas'
tp167
a(S'/home/andoni/Escritorio/PythonProjets/InfRecoverySistem/Documents/division_del_dia.txt'
p168
S'division del dia'
tp169
a(S'/home/andoni/Escritorio/PythonProjets/InfRecoverySistem/Documents/dios.txt'
p170
S'dios'
tp171
a(S'/home/andoni/Escritorio/PythonProjets/InfRecoverySistem/Documents/la_reina_de_las_nieves.txt'
p172
S'la reina de las nieves'
tp173
a(S'/home/andoni/Escritorio/PythonProjets/InfRecoverySistem/Documents/eric_singer.txt'
p174
S'eric singer'
tp175
a(S'/home/andoni/Escritorio/PythonProjets/InfRecoverySistem/Documents/dos_pisones.txt'
p176
S'dos pisones'
tp177
a(S'/home/andoni/Escritorio/PythonProjets/InfRecoverySistem/Documents/alicia_caerina.txt'
p178
S'alicia caerina'
tp179
a(S'/home/andoni/Escritorio/PythonProjets/InfRecoverySistem/Documents/la_gota_de_agua.txt'
p180
S'la gota de agua'
tp181
a(S'/home/andoni/Escritorio/PythonProjets/InfRecoverySistem/Documents/lazarillo_de_tormes.txt'
p182
S'lazarillo de tormes'
tp183
a(S'/home/andoni/Escritorio/PythonProjets/InfRecoverySistem/Documents/mis_deseos.txt'
p184
S'mis deseos'
tp185
a(S'/home/andoni/Escritorio/PythonProjets/InfRecoverySistem/Documents/biologia.txt'
p186
S'biologia'
tp187
a(S'/home/andoni/Escritorio/PythonProjets/InfRecoverySistem/Documents/el_patito_feo.txt'
p188
S'el patito feo'
tp189
a(S'/home/andoni/Escritorio/PythonProjets/InfRecoverySistem/Documents/atmosfera_terreste.txt'
p190
S'atmosfera terreste'
tp191
a(S'/home/andoni/Escritorio/PythonProjets/InfRecoverySistem/Documents/biocenosis.txt'
p192
S'biocenosis'
tp193
a(S'/home/andoni/Escritorio/PythonProjets/InfRecoverySistem/Documents/ciencia_de_la_computacion.txt'
p194
S'ciencia de la computacion'
tp195
a(S'/home/andoni/Escritorio/PythonProjets/InfRecoverySistem/Documents/base_de_datos_jerarquica.txt'
p196
S'base de datos jerarquica'
tp197
a(S'/home/andoni/Escritorio/PythonProjets/InfRecoverySistem/Documents/bayern_munich.txt'
p198
S'bayern munich'
tp199
a(S'/home/andoni/Escritorio/PythonProjets/InfRecoverySistem/Documents/campeones_de_salto.txt'
p200
S'campeones de salto'
tp201
a(S'/home/andoni/Escritorio/PythonProjets/InfRecoverySistem/Documents/flash2.txt'
p202
S'flash2'
tp203
a(S'/home/andoni/Escritorio/PythonProjets/InfRecoverySistem/Documents/el_duende_de_la_tienda.txt'
p204
S'el duende de la tienda'
tp205
a(S'/home/andoni/Escritorio/PythonProjets/InfRecoverySistem/Documents/juan_sebastian_veron.txt'
p206
S'juan sebastian veron'
tp207
a(S'/home/andoni/Escritorio/PythonProjets/InfRecoverySistem/Documents/el_ninio_travieso.txt'
p208
S'el ninio travieso'
tp209
a(S'/home/andoni/Escritorio/PythonProjets/InfRecoverySistem/Documents/la_zorra_partera.txt'
p210
S'la zorra partera'
tp211
a(S'/home/andoni/Escritorio/PythonProjets/InfRecoverySistem/Documents/ingenieria_informatica.txt'
p212
S'ingenieria informatica'
tp213
a(S'/home/andoni/Escritorio/PythonProjets/InfRecoverySistem/Documents/inca.txt'
p214
S'inca'
tp215
a(S'/home/andoni/Escritorio/PythonProjets/InfRecoverySistem/Documents/viejecitos_de_la_cueva.txt'
p216
S'viejecitos de la cueva'
tp217
a(S'/home/andoni/Escritorio/PythonProjets/InfRecoverySistem/Documents/bosque.txt'
p218
S'bosque'
tp219
a(S'/home/andoni/Escritorio/PythonProjets/InfRecoverySistem/Documents/el_desafio_del_espacio.txt'
p220
S'el desafio del espacio'
tp221
a(S'/home/andoni/Escritorio/PythonProjets/InfRecoverySistem/Documents/alvaro_arveloa.txt'
p222
S'alvaro arveloa'
tp223
a(S'/home/andoni/Escritorio/PythonProjets/InfRecoverySistem/Documents/andres_iniesta.txt'
p224
S'andres iniesta'
tp225
a(S'/home/andoni/Escritorio/PythonProjets/InfRecoverySistem/Documents/arreglar_el_mundo.txt'
p226
S'arreglar el mundo'
tp227
a(S'/home/andoni/Escritorio/PythonProjets/InfRecoverySistem/Documents/montania.txt'
p228
S'montania'
tp229
a(S'/home/andoni/Escritorio/PythonProjets/InfRecoverySistem/Documents/peste_negra.txt'
p230
S'peste negra'
tp231
a(S'/home/andoni/Escritorio/PythonProjets/InfRecoverySistem/Documents/espirirtu_santo.txt'
p232
S'espirirtu santo'
tp233
a(S'/home/andoni/Escritorio/PythonProjets/InfRecoverySistem/Documents/quechua.txt'
p234
S'quechua'
tp235
a(S'/home/andoni/Escritorio/PythonProjets/InfRecoverySistem/Documents/energia.txt'
p236
S'energia'
tp237
a(S'/home/andoni/Escritorio/PythonProjets/InfRecoverySistem/Documents/arrecife_de_coral.txt'
p238
S'arrecife de coral'
tp239
a(S'/home/andoni/Escritorio/PythonProjets/InfRecoverySistem/Documents/por_que_empezamos_a_contar.txt'
p240
S'por que empezamos a contar'
tp241
a(S'/home/andoni/Escritorio/PythonProjets/InfRecoverySistem/Documents/parma.txt'
p242
S'parma'
tp243
a(S'/home/andoni/Escritorio/PythonProjets/InfRecoverySistem/Documents/ultimo_dia.txt'
p244
S'ultimo dia'
tp245
a(S'/home/andoni/Escritorio/PythonProjets/InfRecoverySistem/Documents/salinidad.txt'
p246
S'salinidad'
tp247
a(S'/home/andoni/Escritorio/PythonProjets/InfRecoverySistem/Documents/kiss.txt'
p248
S'kiss'
tp249
a(S'/home/andoni/Escritorio/PythonProjets/InfRecoverySistem/Documents/los_zapatos_rojos.txt'
p250
S'los zapatos rojos'
tp251
a(S'/home/andoni/Escritorio/PythonProjets/InfRecoverySistem/Documents/romance_en_el_establo_de_belen.txt'
p252
S'romance en el establo de belen'
tp253
a(S'/home/andoni/Escritorio/PythonProjets/InfRecoverySistem/Documents/el_gallo_despertador.txt'
p254
S'el gallo despertador'
tp255
a(S'/home/andoni/Escritorio/PythonProjets/InfRecoverySistem/Documents/platero_y_yo.txt'
p256
S'platero y yo'
tp257
a(S'/home/andoni/Escritorio/PythonProjets/InfRecoverySistem/Documents/rio.txt'
p258
S'rio'
tp259
a(S'/home/andoni/Escritorio/PythonProjets/InfRecoverySistem/Documents/estrella.txt'
p260
S'estrella'
tp261
a(S'/home/andoni/Escritorio/PythonProjets/InfRecoverySistem/Documents/gene_simmons.txt'
p262
S'gene simmons'
tp263
a(S'/home/andoni/Escritorio/PythonProjets/InfRecoverySistem/Documents/viento.txt'
p264
S'viento'
tp265
a(S'/home/andoni/Escritorio/PythonProjets/InfRecoverySistem/Documents/altiplano.txt'
p266
S'altiplano'
tp267
a(S'/home/andoni/Escritorio/PythonProjets/InfRecoverySistem/Documents/el_libro_mudo.txt'
p268
S'el libro mudo'
tp269
a(S'/home/andoni/Escritorio/PythonProjets/InfRecoverySistem/Documents/criptografia.txt'
p270
S'criptografia'
tp271
a(S'/home/andoni/Escritorio/PythonProjets/InfRecoverySistem/Documents/habitat.txt'
p272
S'habitat'
tp273
a(S'/home/andoni/Escritorio/PythonProjets/InfRecoverySistem/Documents/presion.txt'
p274
S'presion'
tp275
a(S'/home/andoni/Escritorio/PythonProjets/InfRecoverySistem/Documents/pesca.txt'
p276
S'pesca'
tp277
a(S'/home/andoni/Escritorio/PythonProjets/InfRecoverySistem/Documents/galletitas.txt'
p278
S'galletitas'
tp279
a(S'/home/andoni/Escritorio/PythonProjets/InfRecoverySistem/Documents/fin_de_invierno.txt'
p280
S'fin de invierno'
tp281
a(S'/home/andoni/Escritorio/PythonProjets/InfRecoverySistem/Documents/base_de_datos_de_red.txt'
p282
S'base de datos de red'
tp283
a(S'/home/andoni/Escritorio/PythonProjets/InfRecoverySistem/Documents/el_elfo_del_rosal.txt'
p284
S'el elfo del rosal'
tp285
a(S'/home/andoni/Escritorio/PythonProjets/InfRecoverySistem/Documents/en_el_mar_remoto.txt'
p286
S'en el mar remoto'
tp287
a(S'/home/andoni/Escritorio/PythonProjets/InfRecoverySistem/Documents/esteban_granero.txt'
p288
S'esteban granero'
tp289
a(S'/home/andoni/Escritorio/PythonProjets/InfRecoverySistem/Documents/parque_nacional_cabaneros.txt'
p290
S'parque nacional cabaneros'
tp291
a(S'/home/andoni/Escritorio/PythonProjets/InfRecoverySistem/Documents/firma_digital.txt'
p292
S'firma digital'
tp293
a(S'/home/andoni/Escritorio/PythonProjets/InfRecoverySistem/Documents/proton.txt'
p294
S'proton'
tp295
a(S'/home/andoni/Escritorio/PythonProjets/InfRecoverySistem/Documents/la_ultima_perla.txt'
p296
S'la ultima perla'
tp297
a(S'/home/andoni/Escritorio/PythonProjets/InfRecoverySistem/Documents/inter.txt'
p298
S'inter'
tp299
a(S'/home/andoni/Escritorio/PythonProjets/InfRecoverySistem/Documents/el_gollete_de_botella.txt'
p300
S'el gollete de botella'
tp301
a(S'/home/andoni/Escritorio/PythonProjets/InfRecoverySistem/Documents/computacion_cuantica.txt'
p302
S'computacion cuantica'
tp303
a(S'/home/andoni/Escritorio/PythonProjets/InfRecoverySistem/Documents/metodologia_lectora.txt'
p304
S'metodologia lectora'
tp305
a(S'/home/andoni/Escritorio/PythonProjets/InfRecoverySistem/Documents/la_llave_de_la_casa.txt'
p306
S'la llave de la casa'
tp307
a(S'/home/andoni/Escritorio/PythonProjets/InfRecoverySistem/Documents/el_porquerizo.txt'
p308
S'el porquerizo'
tp309
a(S'/home/andoni/Escritorio/PythonProjets/InfRecoverySistem/Documents/colas_el_chico_y_colas_el_grande.txt'
p310
S'colas el chico y colas el grande'
tp311
a(S'/home/andoni/Escritorio/PythonProjets/InfRecoverySistem/Documents/revolucion_astronomica.txt'
p312
S'revolucion astronomica'
tp313
a(S'/home/andoni/Escritorio/PythonProjets/InfRecoverySistem/Documents/zaragoza.txt'
p314
S'zaragoza'
tp315
a(S'/home/andoni/Escritorio/PythonProjets/InfRecoverySistem/Documents/cometa.txt'
p316
S'cometa'
tp317
a(S'/home/andoni/Escritorio/PythonProjets/InfRecoverySistem/Documents/cisnes_salvajes.txt'
p318
S'cisnes salvajes'
tp319
a(S'/home/andoni/Escritorio/PythonProjets/InfRecoverySistem/Documents/sistema_solar.txt'
p320
S'sistema solar'
tp321
a(S'/home/andoni/Escritorio/PythonProjets/InfRecoverySistem/Documents/compilador.txt'
p322
S'compilador'
tp323
a(S'/home/andoni/Escritorio/PythonProjets/InfRecoverySistem/Documents/el_tullido.txt'
p324
S'el tullido'
tp325
a(S'/home/andoni/Escritorio/PythonProjets/InfRecoverySistem/Documents/tia_dolor_de_muelas.txt'
p326
S'tia dolor de muelas'
tp327
a(S'/home/andoni/Escritorio/PythonProjets/InfRecoverySistem/Documents/el_abeto.txt'
p328
S'el abeto'
tp329
a(S'/home/andoni/Escritorio/PythonProjets/InfRecoverySistem/Documents/tierra.txt'
p330
S'tierra'
tp331
a(S'/home/andoni/Escritorio/PythonProjets/InfRecoverySistem/Documents/venus.txt'
p332
S'venus'
tp333
a(S'/home/andoni/Escritorio/PythonProjets/InfRecoverySistem/Documents/clima.txt'
p334
S'clima'
tp335
a(S'/home/andoni/Escritorio/PythonProjets/InfRecoverySistem/Documents/parque_arqueologico.txt'
p336
S'parque arqueologico'
tp337
a(S'/home/andoni/Escritorio/PythonProjets/InfRecoverySistem/Documents/cultura_moche.txt'
p338
S'cultura moche'
tp339
a(S'/home/andoni/Escritorio/PythonProjets/InfRecoverySistem/Documents/fauna.txt'
p340
S'fauna'
tp341
a(S'/home/andoni/Escritorio/PythonProjets/InfRecoverySistem/Documents/el_companero_de_viaje.txt'
p342
S'el companero de viaje'
tp343
a(S'/home/andoni/Escritorio/PythonProjets/InfRecoverySistem/Documents/la_luna.txt'
p344
S'la luna'
tp345
a(S'/home/andoni/Escritorio/PythonProjets/InfRecoverySistem/Documents/eclipse_solar.txt'
p346
S'eclipse solar'
tp347
a(S'/home/andoni/Escritorio/PythonProjets/InfRecoverySistem/Documents/los_caracoles.txt'
p348
S'los caracoles'
tp349
a(S'/home/andoni/Escritorio/PythonProjets/InfRecoverySistem/Documents/no_era_buena_para_nada.txt'
p350
S'no era buena para nada'
tp351
a(S'/home/andoni/Escritorio/PythonProjets/InfRecoverySistem/Documents/karim_benzema.txt'
p352
S'karim benzema'
tp353
a(S'/home/andoni/Escritorio/PythonProjets/InfRecoverySistem/Documents/iglesia_catolica.txt'
p354
S'iglesia catolica'
tp355
a(S'/home/andoni/Escritorio/PythonProjets/InfRecoverySistem/Documents/jardinero_y_el_senior.txt'
p356
S'jardinero y el senior'
tp357
a(S'/home/andoni/Escritorio/PythonProjets/InfRecoverySistem/Documents/agua_dulce.txt'
p358
S'agua dulce'
tp359
a(S'/home/andoni/Escritorio/PythonProjets/InfRecoverySistem/Documents/monticulo_fibonacci.txt'
p360
S'monticulo fibonacci'
tp361
a(S'/home/andoni/Escritorio/PythonProjets/InfRecoverySistem/Documents/energia_quimica.txt'
p362
S'energia quimica'
tp363
a(S'/home/andoni/Escritorio/PythonProjets/InfRecoverySistem/Documents/signos_de_puntuacion.txt'
p364
S'signos de puntuacion'
tp365
a(S'/home/andoni/Escritorio/PythonProjets/InfRecoverySistem/Documents/barcos_de_papel.txt'
p366
S'barcos de papel'
tp367
a(S'/home/andoni/Escritorio/PythonProjets/InfRecoverySistem/Documents/rio_ferdinand.txt'
p368
S'rio ferdinand'
tp369
a(S'/home/andoni/Escritorio/PythonProjets/InfRecoverySistem/Documents/tabla_hash.txt'
p370
S'tabla hash'
tp371
a(S'/home/andoni/Escritorio/PythonProjets/InfRecoverySistem/Documents/chanclos_de_la_suerte.txt'
p372
S'chanclos de la suerte'
tp373
a(S'/home/andoni/Escritorio/PythonProjets/InfRecoverySistem/Documents/la_princesa_y_el_frejol.txt'
p374
S'la princesa y el frejol'
tp375
a(S'/home/andoni/Escritorio/PythonProjets/InfRecoverySistem/Documents/agriculturaa.txt'
p376
S'agriculturaa'
tp377
a(S'/home/andoni/Escritorio/PythonProjets/InfRecoverySistem/Documents/marido_o_hermano.txt'
p378
S'marido o hermano'
tp379
a(S'/home/andoni/Escritorio/PythonProjets/InfRecoverySistem/Documents/jabali_de_bronce.txt'
p380
S'jabali de bronce'
tp381
a(S'/home/andoni/Escritorio/PythonProjets/InfRecoverySistem/Documents/gorro_de_dormir_del_solteron.txt'
p382
S'gorro de dormir del solteron'
tp383
a(S'/home/andoni/Escritorio/PythonProjets/InfRecoverySistem/Documents/la_regenta.txt'
p384
S'la regenta'
tp385
a(S'/home/andoni/Escritorio/PythonProjets/InfRecoverySistem/Documents/neptuno.txt'
p386
S'neptuno'
tp387
a(S'/home/andoni/Escritorio/PythonProjets/InfRecoverySistem/Documents/flash.txt'
p388
S'flash'
tp389
a(S'/home/andoni/Escritorio/PythonProjets/InfRecoverySistem/Documents/el_caracol_y_el_rosal.txt'
p390
S'el caracol y el rosal'
tp391
a(S'/home/andoni/Escritorio/PythonProjets/InfRecoverySistem/Documents/gato_con_botas.txt'
p392
S'gato con botas'
tp393
a(S'/home/andoni/Escritorio/PythonProjets/InfRecoverySistem/Documents/el_nido_de_cisnes.txt'
p394
S'el nido de cisnes'
tp395
a(S'/home/andoni/Escritorio/PythonProjets/InfRecoverySistem/Documents/ensenaras.txt'
p396
S'ensenaras'
tp397
a(S'/home/andoni/Escritorio/PythonProjets/InfRecoverySistem/Documents/lionel_messi.txt'
p398
S'lionel messi'
tp399
a(S'/home/andoni/Escritorio/PythonProjets/InfRecoverySistem/Documents/heavy_metal.txt'
p400
S'heavy metal'
tp401
a(S'/home/andoni/Escritorio/PythonProjets/InfRecoverySistem/Documents/marte.txt'
p402
S'marte'
tp403
a(S'/home/andoni/Escritorio/PythonProjets/InfRecoverySistem/Documents/petroglifo.txt'
p404
S'petroglifo'
tp405
a(S'/home/andoni/Escritorio/PythonProjets/InfRecoverySistem/Documents/castilla.txt'
p406
S'castilla'
tp407
a(S'/home/andoni/Escritorio/PythonProjets/InfRecoverySistem/Documents/puro_musculo.txt'
p408
S'puro musculo'
tp409
a(S'/home/andoni/Escritorio/PythonProjets/InfRecoverySistem/Documents/la_iliada.txt'
p410
S'la iliada'
tp411
a(S'/home/andoni/Escritorio/PythonProjets/InfRecoverySistem/Documents/cifrado.txt'
p412
S'cifrado'
tp413
a(S'/home/andoni/Escritorio/PythonProjets/InfRecoverySistem/Documents/madrigal_de_blanca_nieve.txt'
p414
S'madrigal de blanca nieve'
tp415
a(S'/home/andoni/Escritorio/PythonProjets/InfRecoverySistem/Documents/la_sangre.txt'
p416
S'la sangre'
tp417
a(S'/home/andoni/Escritorio/PythonProjets/InfRecoverySistem/Documents/pulgarcito.txt'
p418
S'pulgarcito'
tp419
a(S'/home/andoni/Escritorio/PythonProjets/InfRecoverySistem/Documents/la_rosa_mas_bella_del_mundo.txt'
p420
S'la rosa mas bella del mundo'
tp421
a(S'/home/andoni/Escritorio/PythonProjets/InfRecoverySistem/Documents/ingenieria_del_software.txt'
p422
S'ingenieria del software'
tp423
a(S'/home/andoni/Escritorio/PythonProjets/InfRecoverySistem/Documents/disenados_para_la_vida.txt'
p424
S'disenados para la vida'
tp425
a(S'/home/andoni/Escritorio/PythonProjets/InfRecoverySistem/Documents/matriz.txt'
p426
S'matriz'
tp427
a(S'/home/andoni/Escritorio/PythonProjets/InfRecoverySistem/Documents/patito_feo.txt'
p428
S'patito feo'
tp429
a(S'/home/andoni/Escritorio/PythonProjets/InfRecoverySistem/Documents/gonzalo_higuain.txt'
p430
S'gonzalo higuain'
tp431
a(S'/home/andoni/Escritorio/PythonProjets/InfRecoverySistem/Documents/deidad.txt'
p432
S'deidad'
tp433
a(S'/home/andoni/Escritorio/PythonProjets/InfRecoverySistem/Documents/como_se_dibuja_un_paisaje.txt'
p434
S'como se dibuja un paisaje'
tp435
a(S'/home/andoni/Escritorio/PythonProjets/InfRecoverySistem/Documents/nitrogeno.txt'
p436
S'nitrogeno'
tp437
a(S'/home/andoni/Escritorio/PythonProjets/InfRecoverySistem/Documents/liverpool.txt'
p438
S'liverpool'
tp439
a(S'/home/andoni/Escritorio/PythonProjets/InfRecoverySistem/Documents/steven_tyler.txt'
p440
S'steven tyler'
tp441
a(S'/home/andoni/Escritorio/PythonProjets/InfRecoverySistem/Documents/andriy_shevchenko.txt'
p442
S'andriy shevchenko'
tp443
a(S'/home/andoni/Escritorio/PythonProjets/InfRecoverySistem/Documents/jesucristo.txt'
p444
S'jesucristo'
tp445
a(S'/home/andoni/Escritorio/PythonProjets/InfRecoverySistem/Documents/la_nina_de_los_fosforos.txt'
p446
S'la nina de los fosforos'
tp447
a(S'/home/andoni/Escritorio/PythonProjets/InfRecoverySistem/Documents/bambi.txt'
p448
S'bambi'
tp449
a(S'/home/andoni/Escritorio/PythonProjets/InfRecoverySistem/Documents/ecologia.txt'
p450
S'ecologia'
tp451
a(S'/home/andoni/Escritorio/PythonProjets/InfRecoverySistem/Documents/las_brujas.txt'
p452
S'las brujas'
tp453
a(S'/home/andoni/Escritorio/PythonProjets/InfRecoverySistem/Documents/el_viejo_farol.txt'
p454
S'el viejo farol'
tp455
a(S'/home/andoni/Escritorio/PythonProjets/InfRecoverySistem/Documents/fusion_nuclear.txt'
p456
S'fusion nuclear'
tp457
a(S'/home/andoni/Escritorio/PythonProjets/InfRecoverySistem/Documents/fabio_coentrao.txt'
p458
S'fabio coentrao'
tp459
a(S'/home/andoni/Escritorio/PythonProjets/InfRecoverySistem/Documents/litosfera.txt'
p460
S'litosfera'
tp461
a(S'/home/andoni/Escritorio/PythonProjets/InfRecoverySistem/Documents/el_angel.txt'
p462
S'el angel'
tp463
a(S'/home/andoni/Escritorio/PythonProjets/InfRecoverySistem/Documents/cada_cosa_en_su_sitio.txt'
p464
S'cada cosa en su sitio'
tp465
a(S'/home/andoni/Escritorio/PythonProjets/InfRecoverySistem/Documents/emergencia_nutricional_en_el_cuerno_de_africa.txt'
p466
S'emergencia nutricional en el cuerno de africa'
tp467
a(S'/home/andoni/Escritorio/PythonProjets/InfRecoverySistem/Documents/ib_y_cristinita.txt'
p468
S'ib y cristinita'
tp469
a(S'/home/andoni/Escritorio/PythonProjets/InfRecoverySistem/Documents/la_barranca.txt'
p470
S'la barranca'
tp471
a(S'/home/andoni/Escritorio/PythonProjets/InfRecoverySistem/Documents/la_pareja_de_enamorados.txt'
p472
S'la pareja de enamorados'
tp473
a(S'/home/andoni/Escritorio/PythonProjets/InfRecoverySistem/Documents/la_primavera_besaba.txt'
p474
S'la primavera besaba'
tp475
a(S'/home/andoni/Escritorio/PythonProjets/InfRecoverySistem/Documents/mesut_ozil.txt'
p476
S'mesut ozil'
tp477
a(S'/home/andoni/Escritorio/PythonProjets/InfRecoverySistem/Documents/gianuigi_buffon.txt'
p478
S'gianuigi buffon'
tp479
a(S'/home/andoni/Escritorio/PythonProjets/InfRecoverySistem/Documents/constitucion_espa\xc3\xb1ola_1978.txt'
p480
S'constitucion espa\xc3\xb1ola 1978'
tp481
a(S'/home/andoni/Escritorio/PythonProjets/InfRecoverySistem/Documents/geranios_rosas.txt'
p482
S'geranios rosas'
tp483
a(S'/home/andoni/Escritorio/PythonProjets/InfRecoverySistem/Documents/el_tigre_de_malasia.txt'
p484
S'el tigre de malasia'
tp485
a(S'/home/andoni/Escritorio/PythonProjets/InfRecoverySistem/Documents/los_vecinos.txt'
p486
S'los vecinos'
tp487
a(S'/home/andoni/Escritorio/PythonProjets/InfRecoverySistem/Documents/teoria_de_grafos.txt'
p488
S'teoria de grafos'
tp489
a(S'/home/andoni/Escritorio/PythonProjets/InfRecoverySistem/Documents/las_ciguenas.txt'
p490
S'las ciguenas'
tp491
a(S'/home/andoni/Escritorio/PythonProjets/InfRecoverySistem/Documents/desierto.txt'
p492
S'desierto'
tp493
a(S'/home/andoni/Escritorio/PythonProjets/InfRecoverySistem/Documents/el_zapato_fugitivo.txt'
p494
S'el zapato fugitivo'
tp495
a(S'/home/andoni/Escritorio/PythonProjets/InfRecoverySistem/Documents/listas.txt'
p496
S'listas'
tp497
a(S'/home/andoni/Escritorio/PythonProjets/InfRecoverySistem/Documents/lenguajes_de_programacion.txt'
p498
S'lenguajes de programacion'
tp499
a(S'/home/andoni/Escritorio/PythonProjets/InfRecoverySistem/Documents/la_pastora_y_el_deshollinador.txt'
p500
S'la pastora y el deshollinador'
tp501
a(S'/home/andoni/Escritorio/PythonProjets/InfRecoverySistem/Documents/arbol_binario_de_busqueda.txt'
p502
S'arbol binario de busqueda'
tp503
a(S'/home/andoni/Escritorio/PythonProjets/InfRecoverySistem/Documents/urano.txt'
p504
S'urano'
tp505
a(S'/home/andoni/Escritorio/PythonProjets/InfRecoverySistem/Documents/particula_subatomica.txt'
p506
S'particula subatomica'
tp507
a(S'/home/andoni/Escritorio/PythonProjets/InfRecoverySistem/Documents/la_desheredada.txt'
p508
S'la desheredada'
tp509
a(S'/home/andoni/Escritorio/PythonProjets/InfRecoverySistem/Documents/la_vieja_losa_sepulcral.txt'
p510
S'la vieja losa sepulcral'
tp511
a(S'/home/andoni/Escritorio/PythonProjets/InfRecoverySistem/Documents/frank_ribery.txt'
p512
S'frank ribery'
tp513
a(S'/home/andoni/Escritorio/PythonProjets/InfRecoverySistem/Documents/zinedine_zidane.txt'
p514
S'zinedine zidane'
tp515
a(S'/home/andoni/Escritorio/PythonProjets/InfRecoverySistem/Documents/sabana.txt'
p516
S'sabana'
tp517
a(S'/home/andoni/Escritorio/PythonProjets/InfRecoverySistem/Documents/zlatan_ibrahimovic.txt'
p518
S'zlatan ibrahimovic'
tp519
a(S'/home/andoni/Escritorio/PythonProjets/InfRecoverySistem/Documents/cultura_huari.txt'
p520
S'cultura huari'
tp521
a(S'/home/andoni/Escritorio/PythonProjets/InfRecoverySistem/Documents/jamon_iberico.txt'
p522
S'jamon iberico'
tp523
a(S'/home/andoni/Escritorio/PythonProjets/InfRecoverySistem/Documents/el_yesquero.txt'
p524
S'el yesquero'
tp525
a(S'/home/andoni/Escritorio/PythonProjets/InfRecoverySistem/Documents/los_vestidos_nuevos_del_emperador.txt'
p526
S'los vestidos nuevos del emperador'
tp527
a(S'/home/andoni/Escritorio/PythonProjets/InfRecoverySistem/Documents/arbol_de_la_ciencia.txt'
p528
S'arbol de la ciencia'
tp529
a(S'/home/andoni/Escritorio/PythonProjets/InfRecoverySistem/Documents/magnetosfera.txt'
p530
S'magnetosfera'
tp531
a(S'/home/andoni/Escritorio/PythonProjets/InfRecoverySistem/Documents/la_gran_serpiente_del_mar.txt'
p532
S'la gran serpiente del mar'
tp533
a(S'/home/andoni/Escritorio/PythonProjets/InfRecoverySistem/Documents/guns_and_roses.txt'
p534
S'guns and roses'
tp535
a(S'/home/andoni/Escritorio/PythonProjets/InfRecoverySistem/Documents/electronegatividad.txt'
p536
S'electronegatividad'
tp537
a(S'/home/andoni/Escritorio/PythonProjets/InfRecoverySistem/Documents/valencia.txt'
p538
S'valencia'
tp539
a(S'/home/andoni/Escritorio/PythonProjets/InfRecoverySistem/Documents/algoritmo.txt'
p540
S'algoritmo'
tp541
a(S'/home/andoni/Escritorio/PythonProjets/InfRecoverySistem/Documents/el_pacto_de_amistad.txt'
p542
S'el pacto de amistad'
tp543
a(S'/home/andoni/Escritorio/PythonProjets/InfRecoverySistem/Documents/cristiano_ronaldo.txt'
p544
S'cristiano ronaldo'
tp545
a(S'/home/andoni/Escritorio/PythonProjets/InfRecoverySistem/Documents/la_campana.txt'
p546
S'la campana'
tp547
a(S'/home/andoni/Escritorio/PythonProjets/InfRecoverySistem/Documents/computacion_grafica.txt'
p548
S'computacion grafica'
tp549
a(S'/home/andoni/Escritorio/PythonProjets/InfRecoverySistem/Documents/sami_khedira.txt'
p550
S'sami khedira'
tp551
a(S'/home/andoni/Escritorio/PythonProjets/InfRecoverySistem/Documents/caperucita.txt'
p552
S'caperucita'
tp553
a(S'/home/andoni/Escritorio/PythonProjets/InfRecoverySistem/Documents/saturno.txt'
p554
S'saturno'
tp555
a(S'/home/andoni/Escritorio/PythonProjets/InfRecoverySistem/Documents/pegajosos.txt'
p556
S'pegajosos'
tp557
a(S'/home/andoni/Escritorio/PythonProjets/InfRecoverySistem/Documents/fernando_torres.txt'
p558
S'fernando torres'
tp559
a(S'/home/andoni/Escritorio/PythonProjets/InfRecoverySistem/Documents/en_un_bosque_de_hoja_caduca.txt'
p560
S'en un bosque de hoja caduca'
tp561
a(S'/home/andoni/Escritorio/PythonProjets/InfRecoverySistem/Documents/analisis_de_algoritmos.txt'
p562
S'analisis de algoritmos'
tp563
a(S'/home/andoni/Escritorio/PythonProjets/InfRecoverySistem/Documents/la_sombra.txt'
p564
S'la sombra'
tp565
a(S'/home/andoni/Escritorio/PythonProjets/InfRecoverySistem/Documents/sol.txt'
p566
S'sol'
tp567
a(S'/home/andoni/Escritorio/PythonProjets/InfRecoverySistem/Documents/glaciar.txt'
p568
S'glaciar'
tp569
a(S'/home/andoni/Escritorio/PythonProjets/InfRecoverySistem/Documents/historia_de_dos_ciudades.txt'
p570
S'historia de dos ciudades'
tp571
a(S'/home/andoni/Escritorio/PythonProjets/InfRecoverySistem/Documents/heliosfera.txt'
p572
S'heliosfera'
tp573
a(S'/home/andoni/Escritorio/PythonProjets/InfRecoverySistem/Documents/monticulo_binario.txt'
p574
S'monticulo binario'
tp575
a(S'/home/andoni/Escritorio/PythonProjets/InfRecoverySistem/Documents/mineria_de_datos.txt'
p576
S'mineria de datos'
tp577
a(S'/home/andoni/Escritorio/PythonProjets/InfRecoverySistem/Documents/cesc_fabregas.txt'
p578
S'cesc fabregas'
tp579
a(S'/home/andoni/Escritorio/PythonProjets/InfRecoverySistem/Documents/bajo_el_sauce.txt'
p580
S'bajo el sauce'
tp581
a(S'/home/andoni/Escritorio/PythonProjets/InfRecoverySistem/Documents/tiene_que_haber_diferencias.txt'
p582
S'tiene que haber diferencias'
tp583
a(S'/home/andoni/Escritorio/PythonProjets/InfRecoverySistem/Documents/costumbres_del_leon.txt'
p584
S'costumbres del leon'
tp585
a(S'/home/andoni/Escritorio/PythonProjets/InfRecoverySistem/Documents/el_diamante.txt'
p586
S'el diamante'
tp587
a(S'/home/andoni/Escritorio/PythonProjets/InfRecoverySistem/Documents/pradera.txt'
p588
S'pradera'
tp589
a(S'/home/andoni/Escritorio/PythonProjets/InfRecoverySistem/Documents/pulgarcita.txt'
p590
S'pulgarcita'
tp591
a(S'/home/andoni/Escritorio/PythonProjets/InfRecoverySistem/Documents/axl_rose.txt'
p592
S'axl rose'
tp593
a(S'/home/andoni/Escritorio/PythonProjets/InfRecoverySistem/Documents/medio_ambiente.txt'
p594
S'medio ambiente'
tp595
a(S'/home/andoni/Escritorio/PythonProjets/InfRecoverySistem/Documents/cultura_nazca.txt'
p596
S'cultura nazca'
tp597
a(S'/home/andoni/Escritorio/PythonProjets/InfRecoverySistem/Documents/el_ave_fenix.txt'
p598
S'el ave fenix'
tp599
a(S'/home/andoni/Escritorio/PythonProjets/InfRecoverySistem/Documents/retrato_del_licenciado_cabra.txt'
p600
S'retrato del licenciado cabra'
tp601
a(S'/home/andoni/Escritorio/PythonProjets/InfRecoverySistem/Documents/la_hucha.txt'
p602
S'la hucha'
tp603
a(S'/home/andoni/Escritorio/PythonProjets/InfRecoverySistem/Documents/sweet_child_of_mine.txt'
p604
S'sweet child of mine'
tp605
a(S'/home/andoni/Escritorio/PythonProjets/InfRecoverySistem/Documents/estructuras_de_datos.txt'
p606
S'estructuras de datos'
tp607
a(S'/home/andoni/Escritorio/PythonProjets/InfRecoverySistem/Documents/pepe.txt'
p608
S'pepe'
tp609
a(S'/home/andoni/Escritorio/PythonProjets/InfRecoverySistem/Documents/arbol_rojo_negro.txt'
p610
S'arbol rojo negro'
tp611
a(S'/home/andoni/Escritorio/PythonProjets/InfRecoverySistem/Documents/el_eclipse.txt'
p612
S'el eclipse'
tp613
a(S'/home/andoni/Escritorio/PythonProjets/InfRecoverySistem/Documents/dizzi_reed.txt'
p614
S'dizzi reed'
tp615
a(S'/home/andoni/Escritorio/PythonProjets/InfRecoverySistem/Documents/la_sirenita.txt'
p616
S'la sirenita'
tp617
a(S'/home/andoni/Escritorio/PythonProjets/InfRecoverySistem/Documents/las_tres_preguntas.txt'
p618
S'las tres preguntas'
tp619
a(S'/home/andoni/Escritorio/PythonProjets/InfRecoverySistem/Documents/lazio.txt'
p620
S'lazio'
tp621
a(S'/home/andoni/Escritorio/PythonProjets/InfRecoverySistem/Documents/kaka.txt'
p622
S'kaka'
tp623
a(S'/home/andoni/Escritorio/PythonProjets/InfRecoverySistem/Documents/combustible.txt'
p624
S'combustible'
tp625
a(S'/home/andoni/Escritorio/PythonProjets/InfRecoverySistem/Documents/juegos_olimpicos.txt'
p626
S'juegos olimpicos'
tp627
a(S'/home/andoni/Escritorio/PythonProjets/InfRecoverySistem/Documents/iker_casillas.txt'
p628
S'iker casillas'
tp629
a(S'/home/andoni/Escritorio/PythonProjets/InfRecoverySistem/Documents/vida_silvestre.txt'
p630
S'vida silvestre'
tp631
a(S'/home/andoni/Escritorio/PythonProjets/InfRecoverySistem/Documents/la_nina_judia.txt'
p632
S'la nina judia'
tp633
a(S'/home/andoni/Escritorio/PythonProjets/InfRecoverySistem/Documents/caminante_no_hay_camino.txt'
p634
S'caminante no hay camino'
tp635
a(S'/home/andoni/Escritorio/PythonProjets/InfRecoverySistem/Documents/el_pequenio_tuk.txt'
p636
S'el pequenio tuk'
tp637
a(S'/home/andoni/Escritorio/PythonProjets/InfRecoverySistem/Documents/el_plancton.txt'
p638
S'el plancton'
tp639
a(S'/home/andoni/Escritorio/PythonProjets/InfRecoverySistem/Documents/el_lino.txt'
p640
S'el lino'
tp641
a(S'/home/andoni/Escritorio/PythonProjets/InfRecoverySistem/Documents/la_piedra_filosofal.txt'
p642
S'la piedra filosofal'
tp643
a(S'/home/andoni/Escritorio/PythonProjets/InfRecoverySistem/Documents/manchester_united.txt'
p644
S'manchester united'
tp645
a(S'/home/andoni/Escritorio/PythonProjets/InfRecoverySistem/Documents/no_te_detengas.txt'
p646
S'no te detengas'
tp647
a(S'/home/andoni/Escritorio/PythonProjets/InfRecoverySistem/Documents/valle.txt'
p648
S'valle'
tp649
a(S'/home/andoni/Escritorio/PythonProjets/InfRecoverySistem/Documents/el_ultimo_suenio_del_viejo_roble.txt'
p650
S'el ultimo suenio del viejo roble'
tp651
a(S'/home/andoni/Escritorio/PythonProjets/InfRecoverySistem/Documents/inteligencia_artificial.txt'
p652
S'inteligencia artificial'
tp653
a(S'/home/andoni/Escritorio/PythonProjets/InfRecoverySistem/Documents/arbol_b+.txt'
p654
S'arbol b+'
tp655
a(S'/home/andoni/Escritorio/PythonProjets/InfRecoverySistem/Documents/decalogo_para_crecer_en_paz.txt'
p656
S'decalogo para crecer en paz'
tp657
a(S'/home/andoni/Escritorio/PythonProjets/InfRecoverySistem/Documents/hidrogeno.txt'
p658
S'hidrogeno'
tp659
a(S'/home/andoni/Escritorio/PythonProjets/InfRecoverySistem/Documents/si.txt'
p660
S'si'
tp661
a(S'/home/andoni/Escritorio/PythonProjets/InfRecoverySistem/Documents/la_aguja_de_zurcir.txt'
p662
S'la aguja de zurcir'
tp663
a(S'/home/andoni/Escritorio/PythonProjets/InfRecoverySistem/Documents/precipitacion.txt'
p664
S'precipitacion'
tp665
a(S'/home/andoni/Escritorio/PythonProjets/InfRecoverySistem/Documents/buen_humor.txt'
p666
S'buen humor'
tp667
a(S'/home/andoni/Escritorio/PythonProjets/InfRecoverySistem/Documents/de_animales.txt'
p668
S'de animales'
tp669
a(S'/home/andoni/Escritorio/PythonProjets/InfRecoverySistem/Documents/dia.txt'
p670
S'dia'
tp671
a(S'/home/andoni/Escritorio/PythonProjets/InfRecoverySistem/Documents/holger_el_danes.txt'
p672
S'holger el danes'
tp673
a(S'/home/andoni/Escritorio/PythonProjets/InfRecoverySistem/Documents/las_flores_de_la_pequena_ida.txt'
p674
S'las flores de la pequena ida'
tp675
a(S'/home/andoni/Escritorio/PythonProjets/InfRecoverySistem/Documents/constitucion_1812.txt'
p676
S'constitucion 1812'
tp677
a(S'/home/andoni/Escritorio/PythonProjets/InfRecoverySistem/Documents/los_cisnes_salvajes.txt'
p678
S'los cisnes salvajes'
tp679
a(S'/home/andoni/Escritorio/PythonProjets/InfRecoverySistem/Documents/programacion.txt'
p680
S'programacion'
tp681
a(S'/home/andoni/Escritorio/PythonProjets/InfRecoverySistem/Documents/real_madrid.txt'
p682
S'real madrid'
tp683
a(S'/home/andoni/Escritorio/PythonProjets/InfRecoverySistem/Documents/consumo_eficiente_y_responsable.txt'
p684
S'consumo eficiente y responsable'
tp685
a(S'/home/andoni/Escritorio/PythonProjets/InfRecoverySistem/Documents/una_hoja_del_cielo.txt'
p686
S'una hoja del cielo'
tp687
a(S'/home/andoni/Escritorio/PythonProjets/InfRecoverySistem/Documents/el_abecedario.txt'
p688
S'el abecedario'
tp689
a(S'/home/andoni/Escritorio/PythonProjets/InfRecoverySistem/Documents/temperatura.txt'
p690
S'temperatura'
tp691
a(S'/home/andoni/Escritorio/PythonProjets/InfRecoverySistem/Documents/mestizaje.txt'
p692
S'mestizaje'
tp693
a(S'/home/andoni/Escritorio/PythonProjets/InfRecoverySistem/Documents/crazy.txt'
p694
S'crazy'
tp695
a(S'/home/andoni/Escritorio/PythonProjets/InfRecoverySistem/Documents/el_chico_y_los_frailes.txt'
p696
S'el chico y los frailes'
tp697
a(S'/home/andoni/Escritorio/PythonProjets/InfRecoverySistem/Documents/masa.txt'
p698
S'masa'
tp699
a(S'/home/andoni/Escritorio/PythonProjets/InfRecoverySistem/Documents/flash3.txt'
p700
S'flash3'
tp701
a(S'/home/andoni/Escritorio/PythonProjets/InfRecoverySistem/Documents/decisiones.txt'
p702
S'decisiones'
tp703
a(S'/home/andoni/Escritorio/PythonProjets/InfRecoverySistem/Documents/marisma.txt'
p704
S'marisma'
tp705
a(S'/home/andoni/Escritorio/PythonProjets/InfRecoverySistem/Documents/paul_stanley.txt'
p706
S'paul stanley'
tp707
a(S'/home/andoni/Escritorio/PythonProjets/InfRecoverySistem/Documents/programacion_concurrente.txt'
p708
S'programacion concurrente'
tp709
a(S'/home/andoni/Escritorio/PythonProjets/InfRecoverySistem/Documents/fc_barcelona.txt'
p710
S'fc barcelona'
tp711
a(S'/home/andoni/Escritorio/PythonProjets/InfRecoverySistem/Documents/golfo.txt'
p712
S'golfo'
tp713
a(S'/home/andoni/Escritorio/PythonProjets/InfRecoverySistem/Documents/ala_nocturna.txt'
p714
S'ala nocturna'
tp715
a(S'/home/andoni/Escritorio/PythonProjets/InfRecoverySistem/Documents/sergio_ramos.txt'
p716
S'sergio ramos'
tp717
a(S'/home/andoni/Escritorio/PythonProjets/InfRecoverySistem/Documents/princesa_del_guisante.txt'
p718
S'princesa del guisante'
tp719
a(S'/home/andoni/Escritorio/PythonProjets/InfRecoverySistem/Documents/cultura_chavin.txt'
p720
S'cultura chavin'
tp721
a(S'/home/andoni/Escritorio/PythonProjets/InfRecoverySistem/Documents/proceso_digital_por_imagenes.txt'
p722
S'proceso digital por imagenes'
tp723
a(S'/home/andoni/Escritorio/PythonProjets/InfRecoverySistem/Documents/david_villa.txt'
p724
S'david villa'
tp725
a(S'/home/andoni/Escritorio/PythonProjets/InfRecoverySistem/Documents/el_viento_de_la_tempestad.txt'
p726
S'el viento de la tempestad'
tp727
a(S'/home/andoni/Escritorio/PythonProjets/InfRecoverySistem/Documents/carta_de_una_madre.txt'
p728
S'carta de una madre'
tp729
a(S'/home/andoni/Escritorio/PythonProjets/InfRecoverySistem/Documents/playa.txt'
p730
S'playa'
tp731
a(S'/home/andoni/Escritorio/PythonProjets/InfRecoverySistem/Documents/viajes_y_descubrimientos_geograficos.txt'
p732
S'viajes y descubrimientos geograficos'
tp733
a(S'/home/andoni/Escritorio/PythonProjets/InfRecoverySistem/Documents/xabi_alonso.txt'
p734
S'xabi alonso'
tp735
a(S'/home/andoni/Escritorio/PythonProjets/InfRecoverySistem/Documents/jose_mourinho.txt'
p736
S'jose mourinho'
tp737
a(S'/home/andoni/Escritorio/PythonProjets/InfRecoverySistem/Documents/flora.txt'
p738
S'flora'
tp739
a(S'/home/andoni/Escritorio/PythonProjets/InfRecoverySistem/Documents/la_espinosa_senda_del_honor.txt'
p740
S'la espinosa senda del honor'
tp741
a(S'/home/andoni/Escritorio/PythonProjets/InfRecoverySistem/Documents/por_que_donar_sangre.txt'
p742
S'por que donar sangre'
tp743
a(S'/home/andoni/Escritorio/PythonProjets/InfRecoverySistem/Documents/ac_milan.txt'
p744
S'ac milan'
tp745
a(S'/home/andoni/Escritorio/PythonProjets/InfRecoverySistem/Documents/el_cerro_de_los_elfos.txt'
p746
S'el cerro de los elfos'
tp747
a(S'/home/andoni/Escritorio/PythonProjets/InfRecoverySistem/Documents/algo.txt'
p748
S'algo'
tp749
a(S'/home/andoni/Escritorio/PythonProjets/InfRecoverySistem/Documents/ecosistema.txt'
p750
S'ecosistema'
tp751
a(S'/home/andoni/Escritorio/PythonProjets/InfRecoverySistem/Documents/planeta.txt'
p752
S'planeta'
tp753
a(S'/home/andoni/Escritorio/PythonProjets/InfRecoverySistem/Documents/la_soledad.txt'
p754
S'la soledad'
tp755
a(S'/home/andoni/Escritorio/PythonProjets/InfRecoverySistem/Documents/luis_figo.txt'
p756
S'luis figo'
tp757
a(S'/home/andoni/Escritorio/PythonProjets/InfRecoverySistem/Documents/redes_de_computadoras.txt'
p758
S'redes de computadoras'
tp759
a(S'/home/andoni/Escritorio/PythonProjets/InfRecoverySistem/Documents/angel_di_maria.txt'
p760
S'angel di maria'
tp761
a(S'/home/andoni/Escritorio/PythonProjets/InfRecoverySistem/Documents/computacion_paralela.txt'
p762
S'computacion paralela'
tp763
a(S'/home/andoni/Escritorio/PythonProjets/InfRecoverySistem/Documents/bio_informatica.txt'
p764
S'bio informatica'
tp765
a(S'/home/andoni/Escritorio/PythonProjets/InfRecoverySistem/Documents/base_de_datos.txt'
p766
S'base de datos'
tp767
a(S'/home/andoni/Escritorio/PythonProjets/InfRecoverySistem/Documents/protoplaneta.txt'
p768
S'protoplaneta'
tp769
a(S'/home/andoni/Escritorio/PythonProjets/InfRecoverySistem/Documents/complejidad_computacional.txt'
p770
S'complejidad computacional'
tp771
a(S'/home/andoni/Escritorio/PythonProjets/InfRecoverySistem/Documents/wayne_rooney.txt'
p772
S'wayne rooney'
tp773
a(S'/home/andoni/Escritorio/PythonProjets/InfRecoverySistem/Documents/cinco_en_una_vaina.txt'
p774
S'cinco en una vaina'
tp775
a(S'/home/andoni/Escritorio/PythonProjets/InfRecoverySistem/Documents/romance_del_conde_olinos.txt'
p776
S'romance del conde olinos'
tp777
a(S'/home/andoni/Escritorio/PythonProjets/InfRecoverySistem/Documents/lo_que_hace_el_padre_esta_bien_hecho.txt'
p778
S'lo que hace el padre esta bien hecho'
tp779
a(S'/home/andoni/Escritorio/PythonProjets/InfRecoverySistem/Documents/la_vida_a_bordo.txt'
p780
S'la vida a bordo'
tp781
a(S'/home/andoni/Escritorio/PythonProjets/InfRecoverySistem/Documents/curiosidades_animales.txt'
p782
S'curiosidades animales'
tp783
a(S'/home/andoni/Escritorio/PythonProjets/InfRecoverySistem/Documents/yo_puedo_cambiar_el_mundo.txt'
p784
S'yo puedo cambiar el mundo'
tp785
a(S'/home/andoni/Escritorio/PythonProjets/InfRecoverySistem/Documents/sopa_de_palillo_de_morcilla.txt'
p786
S'sopa de palillo de morcilla'
tp787
a(S'/home/andoni/Escritorio/PythonProjets/InfRecoverySistem/Documents/inicio_de_la_agricultura_y_ganaderia.txt'
p788
S'inicio de la agricultura y ganaderia'
tp789
a(S'/home/andoni/Escritorio/PythonProjets/InfRecoverySistem/Documents/hernan_crespo.txt'
p790
S'hernan crespo'
tp791
a(S'/home/andoni/Escritorio/PythonProjets/InfRecoverySistem/Documents/origen_del_chocolate.txt'
p792
S'origen del chocolate'
tp793
a(S'/home/andoni/Escritorio/PythonProjets/InfRecoverySistem/Documents/humedad.txt'
p794
S'humedad'
tp795
a(S'/home/andoni/Escritorio/PythonProjets/InfRecoverySistem/Documents/canion.txt'
p796
S'canion'
tp797
a(S'/home/andoni/Escritorio/PythonProjets/InfRecoverySistem/Documents/aerosmith.txt'
p798
S'aerosmith'
tp799
a(S'/home/andoni/Escritorio/PythonProjets/InfRecoverySistem/Documents/pantano.txt'
p800
S'pantano'
tp801
a(S'/home/andoni/Escritorio/PythonProjets/InfRecoverySistem/Documents/soldadito_de_plomo.txt'
p802
S'soldadito de plomo'
tp803
a.