(lp1
(lp2
(Vnavalacruz
F0.10280279314936923
tp3
a(Vtroyan
F0.5569910026506919
tp4
a(Vderret
F0.7756243121810491
tp5
a(Vsastrecill
F0.79944203960575022
tp6
a(Vmargarit
F0.63513840876196648
tp7
a(Vperrit
F0.93856490842994744
tp8
aa(lp9
(Valarc
F0.68279582284813123
tp10
a(Vcoral
F0.75230225485480218
tp11
a(Valici
F0.76308656824648469
tp12
a(Vmarip
F0.60385411244491916
tp13
a(Velis
F0.840768024169673
tp14
a(Venvuelv
F0.083549191089234504
tp15
aa(lp16
(Vbiom
F0.76716617760775185
tp17
a(Vgaviot
F0.48023427420647652
tp18
a(Vpotabl
F0.34428692382364168
tp19
a(Vkikiriki
F0.70286407303261988
tp20
a(Vtrinitari
F0.20588014515107964
tp21
a(Vferdinand
F0.51216242279216029
tp22
aa(lp23
(Vinterplanetari
F0.4460239457053739
tp24
ag4
ag5
ag6
ag7
a(Vcatedral
F0.55306164099094446
tp25
aa(lp26
(Vherbace
F0.22208878522398001
tp27
a(Vnod
F0.78219109952788801
tp28
ag5
ag17
ag14
a(Vpulgarcit
F0.73026633263895402
tp29
aa(lp30
g24
ag12
a(Vfrail
F0.8112682605177518
tp31
ag14
ag5
ag25
aa(lp32
(Veslovaqui
F0.15142942741266455
tp33
a(Vbambi
F0.78254470323406711
tp34
a(Varistotel
F0.67647512280557109
tp35
ag28
a(Vmarism
F0.7753768861917737
tp36
ag5
aa(lp37
g24
ag34
ag5
ag20
a(Vsalin
F0.79635986963448435
tp38
ag25
aa(lp39
(Vknud
F0.59741980059482702
tp40
a(Vcompetent
F0.20518604999966725
tp41
a(Vmuert
F0.28020808353274929
tp42
a(Vjuventus
F0.38947430503762043
tp43
a(Vgeomorfologi
F0.45029111993903875
tp44
ag20
aa(lp45
g36
a(Vtromp
F0.71280296597967951
tp46
a(Vmatriz
F0.41669392081974921
tp47
a(Vls
F0.16795885670770619
tp48
a(Vpolimorf
F0.10913640791243377
tp49
a(Velectronegat
F0.59882815336358575
tp50
aa(lp51
(Vbatm
F0.53845733631245163
tp52
a(Vcaden
F0.23074762035678906
tp53
ag12
a(Vpersegui
F0.098537198540591536
tp54
a(Vsomali
F0.62042539160484256
tp55
a(Vperiquin
F0.71163149820897287
tp56
aa(lp57
g8
a(Vindiscrimin
F0.15250843598400812
tp58
a(Vhoar
F0.16623229786199054
tp59
a(Vpixel
F0.47444975083696084
tp60
a(Vpison
F0.79198365253585756
tp61
ag20
aa(lp62
g33
ag34
a(Vtuk
F0.56370345598713256
tp63
ag14
ag14
ag5
aa(lp64
g8
ag12
a(Vmoch
F0.53415330989221632
tp65
a(Vzorb
F0.48872777341476981
tp66
a(Vefimer
F0.33465383433084178
tp67
ag8
aa(lp68
g8
ag12
ag12
a(Vgallin
F0.66706455502253759
tp69
ag6
ag8
aa(lp70
g8
a(Vparm
F0.69556918421125913
tp71
a(Vpiran
F0.14078533837131599
tp72
a(Vdiatom
F0.43669368408208192
tp73
ag61
ag8
aa(lp74
g34
ag12
ag5
ag13
ag38
a(Vgarci
F0.27114595786207596
tp75
aa(lp76
(Vinodor
F0.085969356240924028
tp77
a(Vaprendizaj
F0.61572375522283029
tp78
ag31
ag14
ag14
ag20
aa(lp79
(Vgretel
F0.4894044899578146
tp80
ag28
ag69
ag36
ag7
a(Vchrist
F0.097383466422683557
tp81
aa(lp82
(Vschol
F0.57122647266812387
tp83
ag66
a(Vbuh
F0.10937387874415193
tp84
ag73
ag65
ag22
aa(lp85
g3
ag11
a(Vmaharaj
F0.6258960170510629
tp86
ag20
ag6
ag8
aa(lp87
(Vvinagr
F0.08314950607367258
tp88
ag28
ag12
a(Vautodecl
F0.31594796568267924
tp89
ag38
ag6
aa(lp90
g50
a(Vlampaz
F0.58119776561635517
tp91
ag31
ag17
ag6
a(Vcrazy
F0.36161282687800261
tp92
aa(lp93
g56
a(Vcamping
F0.11425766375581306
tp94
ag10
a(Vsevill
F0.27114595786207596
tp95
a(Vhiguain
F0.5543192313502775
tp96
a(Vkm
F0.42925429092376272
tp97
aa(lp98
g13
a(Volin
F0.45218573365557996
tp99
ag12
ag54
ag11
ag20
aa(lp100
g33
ag12
ag31
ag17
ag61
ag5
aa(lp101
g8
a(Vcarvalh
F0.45571216635231704
tp102
ag35
ag17
ag61
ag8
aa(lp103
(Velfo
F0.54867639153469527
tp104
a(Vpuntu
F0.51272537403466156
tp105
a(Vcervatill
F0.2845617102669335
tp106
a(Vbillboard
F0.46539731304346421
tp107
a(Vpegaoj
F0.60243470755791428
tp108
ag8
aa(lp109
g17
ag12
ag5
ag6
ag61
a(Vurbain
F0.11593506437831567
tp110
aa(lp111
g8
ag12
ag65
a(Vmaquin
F0.29293400855944257
tp112
ag71
ag8
aa(lp113
g8
a(Vproblem
F0.44284697139857382
tp114
ag5
ag73
ag61
ag8
aa(lp115
g83
ag12
a(Vhuayn
F0.12456300665592017
tp116
a(Vmorcill
F0.40054138128526895
tp117
a(Vtia
F0.71299009986762096
tp118
a(Vocular
F0.10156934096065323
tp119
aa(lp120
g3
ag12
ag5
ag78
ag61
ag8
aa(lp121
(Vgart
F0.39008598104523068
tp122
ag114
ag12
a(Vlappon
F0.13488523223247703
tp123
a(Vlebend
F0.13528739079343755
tp124
ag8
aa(lp125
(Vdanin
F0.081483714533391816
tp126
ag4
ag5
ag14
ag11
ag56
aa(lp127
g8
a(Vdesconect
F0.12945418715526447
tp128
ag65
a(Vaz
F0.24689839863214474
tp129
a(Vms
F0.17843513519908169
tp130
ag20
aa(lp131
g34
ag34
ag10
ag69
ag38
ag75
aa(lp132
(Vsant
F0.30782096176965712
tp133
ag35
ag29
a(Vmicroterm
F0.15570453425167557
tp134
ag61
a(Vlaver
F0.17352144614388523
tp135
aa(lp136
(Vmonticul
F0.67714462284809251
tp137
ag34
ag5
a(Vdav
F0.54867641758778951
tp138
ag61
a(Vequilibr
F0.20552836334830257
tp139
aa(lp140
g56
ag137
ag69
ag69
a(Vcreari
F0.10415693789755874
tp141
a(Voport
F0.15345526743719887
tp142
aa(lp143
g38
a(Vcaperucit
F0.63558953494922577
tp144
ag29
ag17
ag61
ag8
aa(lp145
g24
ag46
ag54
a(Vfosfor
F0.295022776926813
tp146
ag44
ag108
aa(lp147
g126
ag28
ag5
ag14
ag61
ag56
aa(lp148
g56
a(Venergi
F0.4831874957383242
tp149
a(Vheinz
F0.12001034526450098
tp150
ag6
a(Vkiss
F0.5865371837369977
tp151
a(Vhuari
F0.42382357334194193
tp152
aa(lp153
(Vdinosauri
F0.63699985942143167
tp154
ag18
ag5
ag69
ag65
ag20
aa(lp155
(Vib
F0.64743030591907946
tp156
a(Vvain
F0.48822289864917495
tp157
a(Vintervencion
F0.12069448363761344
tp158
ag36
a(Vec
F0.21172150883292962
tp159
a(Vintermontan
F0.38461259510686807
tp160
aa(lp161
g88
ag78
ag12
ag36
ag14
ag6
aa(lp162
(Vsgbd
F0.56947630431091434
tp163
ag53
a(Vcerdit
F0.53319879267873516
tp164
a(Vcoj
F0.34020216285960309
tp165
ag14
a(Vexterior
F0.090781690360498782
tp166
aa(lp167
g38
ag144
a(Vatlantis
F0.40627736384261293
tp168
ag112
ag48
ag156
aa(lp169
(Vlob
F0.60909628355467182
tp170
a(Vnachum
F0.096558139085026959
tp171
ag163
ag146
ag36
a(Vizecson
F0.22949784385145899
tp172
aa(lp173
g36
ag4
ag31
ag14
ag38
a(Vclimat
F0.097604101999708287
tp174
aa(lp175
g56
ag12
ag69
ag73
ag61
ag8
aa(lp176
(Vdesembocadur
F0.19626377153734928
tp177
ag12
ag97
ag17
ag36
ag156
aa(lp178
g8
a(Vdragon
F0.64423183961357533
tp179
ag5
ag96
ag10
ag8
aa(lp180
g8
ag4
ag163
ag14
ag149
a(Vnewcastl
F0.12804060569804007
tp181
aa(lp182
g27
ag28
ag86
ag20
ag11
ag29
aa(lp183
g8
ag78
a(Vnoved
F0.096639303257938722
tp184
a(Vcirc
F0.0897428893854086
tp185
a(Vmelon
F0.21343011267512288
tp186
ag17
aa(lp187
g33
ag34
ag5
ag63
ag11
ag5
aa(lp188
(Vprincip
F0.45882717234690812
tp189
ag35
ag86
a(Vgozn
F0.16345159308509702
tp190
a(Vcompus
F0.08428280448937292
tp191
a(Vfusion
F0.66561600338225846
tp192
aa(lp193
g8
ag78
ag5
ag6
ag71
ag181
aa(lp194
g3
ag4
ag192
ag14
ag29
ag8
aa(lp195
g88
ag35
ag31
ag6
ag6
ag6
aa(lp196
g38
ag12
ag35
ag73
ag61
ag8
aa(lp197
g118
a(Vastut
F0.10431600284184382
tp198
ag10
ag95
a(Vincaic
F0.440633706644322
tp199
ag25
aa(lp200
(Vsargent
F0.2647443055014192
tp201
ag46
ag5
ag14
ag38
ag104
aa(lp202
g24
ag12
ag5
ag14
ag38
ag25
aa(lp203
g3
ag12
ag170
ag14
ag61
ag8
aa(lp204
g8
a(Vabecedari
F0.49646433180168892
tp205
a(Vmt
F0.51261700972646085
tp206
ag160
ag44
ag22
aa(lp207
g8
ag12
ag31
a(Vhansel
F0.59816104328177344
tp208
ag6
ag8
aa(lp209
g8
ag12
ag5
a(Vcalatrav
F0.52522755603702398
tp210
ag61
ag8
aa(lp211
g34
a(Vsacrist
F0.38291249473138711
tp212
ag5
ag14
ag38
ag75
aa(lp213
g8
a(Vgrazn
F0.28814056452388592
tp214
a(Viniest
F0.26658615830189442
tp215
a(Vtapon
F0.16579787462216761
tp216
ag36
ag8
aa(lp217
g24
ag34
ag35
ag35
ag71
ag25
aa(lp218
g50
ag28
ag5
ag22
ag61
ag92
aa(lp219
g8
ag13
ag5
ag69
ag6
ag181
aa(lp220
g3
ag12
ag5
ag6
ag6
ag8
aa(lp221
g8
ag71
ag29
ag73
ag61
ag8
aa(lp222
g3
ag12
ag5
ag17
ag38
ag8
aa(lp223
g163
ag149
ag192
a(Vintensific
F0.090714367627473633
tp224
a(Vovejit
F0.15023822673207676
tp225
a(Vpepit
F0.44989944741769816
tp226
aa(lp227
g159
ag12
ag31
ag20
ag14
ag47
aa(lp228
g24
ag78
ag63
ag14
ag61
ag25
aa(lp229
g8
ag34
ag31
ag20
ag14
ag181
aa(lp230
g24
ag34
ag5
ag20
ag14
ag25
aa(lp231
g3
ag34
ag12
ag36
ag38
ag8
aa(lp232
(Vperfil
F0.37775142211007262
tp233
ag46
ag5
ag14
ag7
a(Vcoentr
F0.41070111480450561
tp234
aa(lp235
g126
ag99
ag5
ag20
ag38
ag56
aa(lp236
g3
ag170
ag5
ag14
a(Vcarnivor
F0.36399991966938949
tp237
ag8
aa(lp238
(Vbizcoch
F0.52433172052498911
tp239
a(Vmestizaj
F0.51294868368320556
tp240
ag5
ag73
ag61
ag29
aa(lp241
g34
ag28
ag5
ag35
ag11
ag75
aa(lp242
g34
a(Vcoronel
F0.53757455374490237
tp243
ag31
a(Vtecnificacion
F0.27177938083488445
tp244
ag38
ag75
aa(lp245
g3
ag4
ag5
ag69
ag71
ag8
aa(lp246
g56
ag12
ag108
ag69
ag61
ag8
aa(lp247
(Vinterdependent
F0.19014742883476915
tp248
ag34
ag31
ag69
ag5
ag20
aa(lp249
g24
ag12
ag12
ag6
ag6
ag25
aa(lp250
g52
ag53
ag97
ag112
ag6
ag156
aa(lp251
g3
ag179
ag31
ag14
ag61
ag8
aa(lp252
g8
ag34
ag5
a(Vpet
F0.52176910261511089
tp253
ag55
ag181
aa(lp254
(Vallen
F0.5552758206884334
tp255
a(Vsodic
F0.34428692382364168
tp256
ag192
ag224
a(Valocton
F0.19626377153734928
tp257
ag29
aa(lp258
(Vperpetu
F0.24843373399937763
tp259
ag11
ag192
ag14
ag6
ag71
aa(lp260
g38
ag46
ag31
ag66
ag61
a(Vende
F0.12818167175863457
tp261
aa(lp262
(Varrug
F0.10393579301788806
tp263
ag171
ag163
a(Vpolitermal
F0.13812245375656881
tp264
ag6
ag166
aa(lp265
g8
ag12
ag65
ag73
ag10
ag8
aa(lp266
g11
ag46
ag5
a(Vlars
F0.40018146126585535
tp267
ag179
ag56
aa(lp268
(Vtitular
F0.11584802753653593
tp269
ag28
a(Vcopern
F0.41849307457056206
tp270
ag43
ag36
ag50
aa(lp271
g38
ag28
a(Vtender
F0.50199981874443356
tp272
ag17
ag11
ag261
aa(lp273
(Vmarron
F0.19560011711389597
tp274
a(Vparader
F0.082953050635035219
tp275
ag163
ag17
a(Vcostillaj
F0.16345159308509702
tp276
ag29
aa(lp277
g240
ag12
ag35
ag73
ag61
ag20
aa(lp278
g8
ag12
ag12
ag73
ag61
ag8
aa(lp279
g137
ag243
ag144
ag6
ag38
ag139
aa(lp280
g50
ag91
ag5
ag36
ag38
ag92
aa(lp281
g24
ag179
ag31
ag69
ag38
ag25
aa(lp282
g269
ag35
ag5
a(Vgarth
F0.44911884746548175
tp283
ag36
ag50
aa(lp284
g36
ag78
ag164
ag165
ag160
ag55
aa(lp285
g88
ag34
ag164
ag63
ag14
ag6
aa(lp286
g3
ag179
ag31
ag6
ag38
ag8
aa(lp287
g24
ag28
ag12
ag6
ag61
ag25
aa(lp288
g33
ag12
ag31
ag20
ag61
ag5
aa(lp289
g56
ag66
ag84
ag190
ag208
a(Vtortu
F0.12386721336290116
tp290
aa(lp291
g3
ag243
ag31
ag17
ag10
ag8
aa(lp292
g126
ag12
ag5
ag14
ag6
ag56
aa(lp293
g8
ag12
ag69
a(Vfabi
F0.36320726232779871
tp294
ag61
ag8
aa(lp295
g5
ag11
ag86
ag14
ag38
a(Vizquierd
F0.11380032322673742
tp296
aa(lp297
g3
ag78
ag12
ag17
ag11
ag8
aa(lp298
g8
ag274
a(Vmaradon
F0.24463901107857861
tp299
ag138
ag10
ag55
aa(lp300
g8
ag12
ag65
a(Vsacrament
F0.27941145401630235
tp301
ag61
ag8
aa(lp302
g56
ag137
a(Vsostuv
F0.10374544357161246
tp303
ag36
ag124
ag8
aa(lp304
g8
ag28
ag31
ag13
ag61
ag181
aa(lp305
g38
ag12
ag108
ag69
ag61
ag8
aa(lp306
g151
ag34
ag31
ag104
ag36
a(Vemirat
F0.092209531577744669
tp307
aa(lp308
g17
ag71
ag5
ag14
ag61
ag110
aa(lp309
g38
ag4
ag12
ag17
ag6
ag261
aa(lp310
g13
ag34
ag5
a(Vturing
F0.50564909137955494
tp311
ag118
a(Valmohadon
F0.16922196706459297
tp312
aa(lp313
(Vsofism
F0.17864963744949061
tp314
ag28
a(Vnaip
F0.1381642944852027
tp315
ag48
ag35
ag108
aa(lp316
g24
ag12
ag170
ag6
ag11
ag25
aa(lp317
g50
ag12
ag12
ag14
ag6
ag92
aa(lp318
g105
a(Vintencion
F0.1172631215773134
tp319
ag150
ag6
ag151
ag6
aa(lp320
g8
ag12
ag12
a(Vdefens
F0.26678832920526663
tp321
ag10
ag8
aa(lp322
g38
ag11
ag164
ag14
ag7
ag261
aa(lp323
g8
ag91
ag78
ag14
ag36
ag181
aa(lp324
g34
ag11
ag5
ag14
ag36
ag75
aa(lp325
g56
ag12
ag5
ag210
ag10
ag8
aa(lp326
g34
ag35
ag31
ag6
ag71
ag75
aa(lp327
g38
ag12
a(Vmercuri
F0.56895225689099072
tp328
ag96
ag10
ag8
aa(lp329
g24
ag34
a(Vmicrobi
F0.55818825179421416
tp330
ag14
ag118
ag25
aa(lp331
g24
ag34
ag5
ag14
ag38
ag25
aa(lp332
(Vmolly
F0.42363024464815591
tp333
ag28
ag31
ag14
ag11
a(Vroci
F0.19457644225768592
tp334
aa(lp335
g24
ag46
a(Vcatal
F0.10245125569637009
tp336
ag20
ag160
ag25
aa(lp337
g36
ag179
a(Vdorsal
F0.21772451095043846
tp338
a(Vlaton
F0.12199932287012313
tp339
a(Valba
F0.087050678467122861
tp340
ag210
aa(lp341
(Vdecis
F0.10723441030397542
tp342
ag12
ag31
ag50
ag36
ag17
aa(lp343
g36
ag179
ag31
ag36
ag61
ag174
aa(lp344
g8
ag71
ag29
ag17
ag61
ag8
aa(lp345
g24
ag46
a(Vinstitucion
F0.13490072113449345
tp346
ag160
ag44
ag20
aa(lp347
g34
ag40
ag5
ag17
ag29
ag75
aa(lp348
g24
ag71
ag78
ag14
ag208
ag25
aa(lp349
g24
ag34
ag5
ag6
ag6
ag25
aa(lp350
(Vzonal
F0.14573038148364864
tp351
ag4
ag144
ag185
ag69
ag22
aa(lp352
g24
ag46
ag69
ag69
ag276
ag29
aa(lp353
(Vflash
F0.35335734043809397
tp354
a(Vfortius
F0.19961613583136767
tp355
ag5
ag160
a(Vcabri
F0.085883029854551166
tp356
ag108
aa(lp357
g126
ag11
ag5
ag138
ag38
ag56
aa(lp358
g24
ag12
ag328
ag6
ag160
ag25
aa(lp359
g8
ag71
ag5
ag311
ag10
ag8
aa(lp360
g38
ag78
ag97
ag43
ag44
ag108
aa(lp361
g24
ag12
ag31
ag63
ag6
ag25
aa(lp362
g24
ag28
ag10
ag36
ag163
ag25
aa(lp363
g8
ag28
a(Vprogram
F0.083695431016983582
tp364
ag28
ag61
ag8
aa(lp365
g8
ag12
ag12
ag69
ag7
ag8
aa(lp366
g17
ag34
ag31
ag17
ag61
ag110
aa(lp367
g50
ag11
ag31
ag6
ag14
ag92
aa(lp368
g126
ag12
ag12
ag14
ag61
ag56
aa(lp369
g83
a(Vneural
F0.24185301519704391
tp370
ag10
a(Vtyler
F0.36565754628056424
tp371
ag124
ag8
aa(lp372
g28
ag163
ag31
ag36
ag61
a(Vectop
F0.12069448363761344
tp373
aa(lp374
g269
ag28
ag31
ag6
ag6
ag50
aa(lp375
g8
ag12
ag65
ag112
ag6
ag8
aa(lp376
(Vembrion
F0.47774955645082717
tp377
ag78
ag97
ag43
ag44
ag20
aa(lp378
g5
ag12
ag5
ag50
ag38
ag296
aa(lp379
(Vcrabl
F0.44215854492935625
tp380
ag168
ag206
a(Vassociation
F0.30294202269747178
tp381
a(Voxigen
F0.35353970931806067
tp382
a(Vrecal
F0.15165836327859056
tp383
aa(lp384
g255
ag163
ag69
ag294
ag6
ag56
aa(lp385
g137
ag91
a(Vsoftwar
F0.52323835161228627
tp386
ag36
ag118
ag139
aa(lp387
g5
ag12
ag78
ag14
ag61
ag296
aa(lp388
(Vhumared
F0.31503802758863469
tp389
ag149
ag192
a(Vguill
F0.3495544803499927
tp390
ag6
ag73
aa(lp391
g10
a(Vnacimient
F0.15152336723593912
tp392
ag184
a(Vgeneralis
F0.13528739079343755
tp393
ag11
ag20
aa(lp394
g8
ag12
ag65
ag96
ag61
ag20
aa(lp395
g239
a(Vrocos
F0.08480535320918739
tp396
a(Vporqueriz
F0.411677364808892
tp397
a(Vsublim
F0.17513175946174367
tp398
ag96
ag172
aa(lp399
g8
ag11
ag5
ag311
ag10
ag8
aa(lp400
g13
a(Vpermanecer
F0.11609347875411595
tp401
a(Viberoamer
F0.17098289456106855
tp402
ag78
ag65
ag22
aa(lp403
g10
ag11
ag5
ag14
ag61
ag15
aa(lp404
g91
ag270
ag44
a(Vponient
F0.18246515926904691
tp405
ag61
a(Vfiorentin
F0.090467016855668228
tp406
aa(lp407
g5
ag12
ag10
ag36
ag61
ag296
aa(lp408
g55
ag168
ag380
a(Vgitan
F0.46126402441347003
tp409
ag151
ag406
aa(lp410
g3
ag11
ag386
ag14
ag61
ag8
aa(lp411
(Vpreb
F0.57011589185995615
tp412
ag12
ag69
ag104
ag29
a(Vcerill
F0.2068663973455859
tp413
aa(lp414
g3
ag12
ag31
ag14
ag118
ag8
aa(lp415
g38
ag28
ag31
ag28
ag61
ag261
aa(lp416
(Valcald
F0.33240256280175817
tp417
a(Vmuec
F0.25634117150382324
tp418
ag31
a(Vlc
F0.39200124273199949
tp419
a(Vresidual
F0.1657349373339401
tp420
ag55
aa(lp421
g3
ag71
ag10
ag14
ag61
ag8
aa(lp422
g8
ag275
a(Vcinet
F0.51874743529785461
tp423
a(Vhoz
F0.08847404027567933
tp424
ag71
ag20
aa(lp425
g8
ag12
ag5
a(Vclub
F0.11124484641130095
tp426
ag11
ag8
aa(lp427
g5
ag12
ag10
ag6
ag5
ag296
aa(lp428
(Vfelix
F0.24035056470973976
tp429
ag28
ag5
ag36
ag10
a(Vfenix
F0.43071967964156915
tp430
aa(lp431
(Vbrutisim
F0.15023822673207676
tp432
a(Vdirector
F0.12454831973717585
tp433
ag330
ag28
ag5
ag73
aa(lp434
g24
ag243
ag5
ag17
ag36
ag25
aa(lp435
g24
ag34
ag192
ag35
ag6
ag25
aa(lp436
g24
ag78
ag31
ag14
ag11
ag25
aa(lp437
g8
ag78
ag5
ag6
ag7
ag181
aa(lp438
g50
ag12
ag12
a(Vhuesecill
F0.42292767498380313
tp439
ag6
ag92
aa(lp440
g137
ag28
ag66
ag6
ag38
ag139
aa(lp441
g17
ag28
ag31
ag14
ag6
a(Vvoc
F0.090135148318317246
tp442
aa(lp443
g10
ag11
ag31
ag17
ag208
ag15
aa(lp444
g24
ag12
ag163
ag14
ag71
ag25
aa(lp445
g126
ag11
ag5
ag20
ag38
ag56
aa(lp446
g105
ag40
a(Vfug
F0.17864963744949061
tp447
ag13
ag61
a(Vmitologi
F0.13716633079449495
tp448
aa(lp449
g24
ag40
ag108
ag35
ag61
ag25
aa(lp450
g24
ag11
ag31
ag6
ag36
ag25
aa(lp451
g137
ag34
ag5
ag20
ag38
ag139
aa(lp452
g34
ag34
ag163
ag14
ag71
ag75
aa(lp453
g8
a(Vbater
F0.21585942562749699
tp454
ag447
ag73
ag118
ag22
aa(lp455
g83
a(Vpredefin
F0.11760533332695412
tp456
ag164
a(Varredr
F0.15142942741266455
tp457
ag206
ag29
aa(lp458
g50
ag71
ag5
ag6
ag118
ag92
aa(lp459
g50
ag12
ag5
ag17
ag11
ag92
aa(lp460
g24
ag151
ag31
ag36
ag61
ag25
aa(lp461
g10
ag4
a(Varquitecton
F0.15974791999512133
tp462
a(Vuju
F0.13969832924254855
tp463
ag118
a(Vbiocomputacion
F0.09466096547451637
tp464
aa(lp465
(Vsold
F0.61367044386738789
tp466
ag163
ag19
ag20
ag21
a(Vbrasil
F0.34704289228777047
tp467
aa(lp468
g8
ag274
a(Vsirvient
F0.089180587970087391
tp469
a(Vmodul
F0.088062909188953417
tp470
ag61
ag29
aa(lp471
g36
a(Vatl
F0.12945140060098592
tp472
ag354
ag44
ag61
ag152
aa(lp473
g259
ag34
ag5
ag6
ag38
ag71
aa(lp474
g201
ag40
ag5
ag69
ag118
ag104
aa(lp475
g8
ag137
ag97
a(Veurope
F0.2333951918866877
tp476
a(Vgris
F0.10613354154596992
tp477
ag6
aa(lp478
g3
ag34
ag5
ag6
ag71
ag8
aa(lp479
g17
ag34
a(Vincreibl
F0.56329178685184866
tp480
ag14
ag61
ag442
aa(lp481
(Vapison
F0.43999091807547641
tp482
ag163
a(Vinterpret
F0.28674126658256743
tp483
a(Vchimpanc
F0.3191919012319982
tp484
a(Vnao
F0.08314950607367258
tp485
ag20
aa(lp486
g24
ag34
ag5
ag36
ag29
ag25
aa(lp487
g13
ag12
ag50
ag6
ag199
ag312
aa(lp488
g38
a(Vdesesperacion
F0.2321409517967041
tp489
ag29
ag330
ag10
ag8
aa(lp490
g118
ag144
a(Vcondensacion
F0.12818167175863457
tp491
ag267
ag208
a(Vapell
F0.11086384627005552
tp492
aa(lp493
g342
a(Vproton
F0.45300405612096289
tp494
ag31
ag20
ag38
ag17
aa(lp495
(Vcimitarr
F0.1134420275555048
tp496
ag78
a(Vconstat
F0.085392067584801015
tp497
ag35
a(Vbasili
F0.16843797092934709
tp498
ag5
aa(lp499
g78
ag46
a(Vchelse
F0.23425962361418615
tp500
a(Vcusc
F0.15974791999512133
tp501
ag38
ag56
aa(lp502
g56
ag12
ag122
ag311
ag10
ag8
aa(lp503
g55
ag12
ag330
ag28
ag36
a(Vplanific
F0.091915717937675168
tp504
aa(lp505
g10
ag12
ag170
ag14
ag61
ag15
aa(lp506
g3
ag12
a(Vabuelit
F0.62373784045341685
tp507
ag6
ag36
ag8
aa(lp508
g56
ag12
ag5
ag210
ag61
ag8
aa(lp509
g163
ag240
a(Varquimed
F0.28379435474245013
tp510
ag390
ag225
ag5
aa(lp511
g24
ag46
ag54
ag20
ag36
ag172
aa(lp512
g8
ag12
ag69
ag17
ag61
ag181
aa(lp513
g137
ag71
ag5
ag14
ag118
ag139
aa(lp514
g5
ag28
ag10
ag14
ag11
ag296
aa(lp515
g24
ag91
ag12
ag14
ag208
ag25
aa(lp516
g38
ag71
ag330
ag36
ag61
ag261
aa(lp517
g56
ag149
ag354
a(Vterapi
F0.081546337026192878
tp518
a(Vjerarqu
F0.52851626300820709
tp519
ag210
aa(lp520
g34
ag11
ag31
ag78
ag10
ag75
aa(lp521
g27
ag11
ag31
ag35
ag11
ag29
aa(lp522
g17
ag40
a(Vciudad
F0.12867352061883441
tp523
ag13
a(Vamortizacion
F0.084132942809589578
tp524
ag179
aa(lp525
g137
ag11
ag5
ag20
ag14
ag139
aa(lp526
g10
ag12
ag31
ag69
ag61
ag15
aa(lp527
g38
ag12
ag69
ag14
ag6
ag261
aa(lp528
g3
ag34
ag31
ag17
ag208
ag8
aa(lp529
g24
ag34
ag163
ag6
ag36
ag25
aa(lp530
g8
ag12
ag31
ag6
ag118
ag181
aa(lp531
g50
ag78
ag5
ag14
ag118
ag92
aa(lp532
g259
ag170
ag386
ag20
ag71
ag71
aa(lp533
g24
ag28
ag5
ag14
ag61
ag25
aa(lp534
g38
ag144
ag122
ag96
ag10
ag8
aa(lp535
g11
ag28
ag330
ag36
ag11
a(Vvecindari
F0.10349564957994203
tp536
aa(lp537
g8
ag12
ag65
ag301
ag10
ag8
aa(lp538
g24
ag12
ag31
ag36
ag118
ag25
aa(lp539
g267
ag144
a(Vracional
F0.27088681537933751
tp540
a(Vgrandez
F0.12336605091374804
tp541
ag36
ag8
aa(lp542
g8
ag12
ag294
ag243
ag61
ag8
aa(lp543
g38
ag144
ag29
ag117
ag10
ag8
aa(lp544
g24
ag34
ag423
ag20
ag11
ag25
aa(lp545
g3
ag4
ag31
ag36
ag5
ag8
aa(lp546
g50
ag11
ag5
ag17
ag11
ag92
aa(lp547
g3
ag179
ag108
ag14
ag208
ag8
aa(lp548
g269
ag35
ag31
ag17
ag29
ag50
aa(lp549
g34
a(Vperdur
F0.42499249990342536
tp550
ag10
ag14
ag61
ag75
aa(lp551
g56
ag355
ag5
a(Vcogot
F0.14895964994499292
tp552
ag10
ag135
aa(lp553
g177
ag11
ag170
ag36
ag118
ag156
aa(lp554
g56
ag28
ag35
ag73
ag38
a(Vempan
F0.081546337026192878
tp555
aa(lp556
(Vtunecin
F0.13986882514354304
tp557
ag144
ag206
ag17
a(Vcalci
F0.15964832113247684
tp558
ag8
aa(lp559
g3
ag550
ag31
ag244
ag5
ag8
aa(lp560
g63
ag205
ag65
a(Vmandamient
F0.083855861166022991
tp561
a(Vconjetur
F0.19311627817005392
tp562
ag8
aa(lp563
g78
ag46
ag44
a(Vsar
F0.090914584142793645
tp564
ag61
ag5
aa(lp565
g8
ag28
ag5
ag28
ag149
ag181
aa(lp566
g24
ag46
ag97
ag43
ag44
ag8
aa(lp567
g3
ag212
ag5
ag13
ag38
ag8
aa(lp568
g3
ag34
ag31
ag43
ag38
ag8
aa(lp569
g55
ag12
ag144
ag69
ag6
ag17
aa(lp570
g52
ag53
ag97
a(Varabi
F0.21535983982078458
tp571
ag6
ag467
aa(lp572
g50
ag35
ag31
ag17
ag61
ag92
aa(lp573
g8
ag28
ag5
ag20
ag71
ag181
aa(lp574
g163
ag78
a(Vinternational
F0.15147101134873589
tp575
a(Vfc
F0.12656820480589442
tp576
ag11
ag29
aa(lp577
g27
ag28
ag31
ag6
ag6
ag29
aa(lp578
(Vzurd
F0.21704203031243821
tp579
ag12
ag5
ag208
ag61
ag40
aa(lp580
g24
ag28
ag5
ag36
ag6
ag25
aa(lp581
g412
ag46
ag78
ag14
ag29
ag413
aa(lp582
g259
ag12
ag170
ag14
ag61
ag71
aa(lp583
g8
ag12
ag165
ag6
ag29
ag8
aa(lp584
g28
ag71
ag35
ag73
ag61
ag8
aa(lp585
g34
ag34
ag5
ag6
ag71
ag75
aa(lp586
g97
ag275
ag86
ag190
ag44
ag22
aa(lp587
g24
ag243
ag10
ag14
ag6
ag25
aa(lp588
g38
ag12
ag5
ag20
ag10
ag261
aa(lp589
g8
ag34
ag31
ag6
ag38
ag181
aa(lp590
g5
ag71
ag31
ag69
ag38
ag296
aa(lp591
g137
ag35
ag31
ag73
ag61
a(Vagrosistem
F0.14820122807413777
tp592
aa(lp593
g91
ag396
ag163
ag264
a(Vneolit
F0.39924251558156704
tp594
ag56
aa(lp595
g13
ag46
ag5
ag6
ag29
ag312
aa(lp596
g8
ag12
ag5
ag73
ag61
ag8
aa(lp597
g11
ag12
ag69
a(Vsuces
F0.087277273521236362
tp598
a(Vsegundoes
F0.12120186745449117
tp599
ag108
aa(lp600
g24
ag46
ag5
ag20
ag10
ag25
aa(lp601
g11
a(Vfig
F0.37038468970036886
tp602
ag330
ag28
ag5
ag20
aa(lp603
g50
a(Vcenoz
F0.38461259510686807
tp604
ag5
ag17
ag118
ag92
aa(lp605
g52
ag205
ag206
ag160
ag124
ag8
aa(lp606
g170
ag78
a(Vdesconfi
F0.1188059437520972
tp607
ag294
a(Vtijer
F0.13399673622484232
tp608
ag71
aa(lp609
g137
ag11
ag31
ag14
ag118
ag139
aa(lp610
g3
ag151
ag31
ag14
ag149
ag8
aa(lp611
g38
ag12
ag65
ag96
ag10
ag8
aa(lp612
g8
a(Vesfuerzat
F0.29008544028076383
tp613
ag144
ag69
ag10
ag8
aa(lp614
g389
ag454
a(Vnazc
F0.096046854841295298
tp615
ag73
ag61
ag152
aa(lp616
g24
ag35
ag5
ag14
ag237
ag25
aa(lp617
g3
ag212
ag12
ag36
ag118
ag8
aa(lp618
g24
ag144
ag31
ag36
ag29
ag25
aa(lp619
g3
ag71
ag163
ag6
ag7
ag8
aa(lp620
g8
ag256
a(Vreds
F0.16619800469591756
tp621
ag206
ag5
ag210
aa(lp622
g24
ag151
ag5
ag14
ag10
ag25
aa(lp623
g8
ag12
ag31
ag112
ag61
ag8
aa(lp624
g24
ag170
ag35
ag20
ag6
ag25
aa(lp625
g17
ag12
ag163
ag35
ag61
ag442
aa(lp626
g201
ag12
ag5
ag14
ag61
ag104
aa(lp627
g8
ag151
ag5
ag43
ag36
ag181
aa(lp628
g24
ag12
ag5
ag20
ag6
ag25
aa(lp629
g3
ag12
ag31
ag36
ag11
ag8
aa(lp630
g36
ag34
ag31
ag35
ag61
ag174
aa(lp631
g24
ag12
ag86
ag14
ag11
ag25
aa(lp632
g8
ag454
a(Vabrevi
F0.17291581176595153
tp633
a(Vribery
F0.21162335926884995
tp634
ag61
a(Vblanquisim
F0.28391858344355614
tp635
aa(lp636
g38
ag12
ag35
ag17
ag61
ag8
aa(lp637
g154
ag4
ag31
ag73
ag61
ag8
aa(lp638
g8
a(Vcristin
F0.52292447785771801
tp639
a(Vconejit
F0.12582736693880933
tp640
a(Vfac
F0.12386721336290116
tp641
ag179
ag56
aa(lp642
g17
ag604
ag12
ag36
ag14
ag442
aa(lp643
g27
ag28
ag5
ag20
ag38
ag29
aa(lp644
g96
ag11
ag480
ag14
ag6
a(Vnotici
F0.21817248389237859
tp645
aa(lp646
(Varras
F0.17621907063019893
tp647
ag12
ag31
ag35
ag38
ag210
aa(lp648
g50
ag34
ag31
ag35
ag61
ag92
aa(lp649
g24
ag34
ag35
ag20
ag71
ag25
aa(lp650
g36
ag144
ag3
ag36
ag29
ag296
aa(lp651
g24
ag34
ag31
ag14
ag118
ag25
aa(lp652
g8
ag102
ag144
ag17
ag61
ag8
aa(lp653
g13
a(Vplay
F0.21835270636217935
tp654
ag380
ag264
ag6
ag108
aa(lp655
g8
ag12
ag163
ag20
ag107
ag8
aa(lp656
g50
ag12
ag31
ag35
ag36
ag92
aa(lp657
g24
ag12
ag12
ag36
ag118
ag25
aa(lp658
g3
ag40
ag10
ag14
ag38
ag8
aa(lp659
g3
ag28
ag35
ag14
ag10
ag8
aa(lp660
g34
ag34
ag31
ag17
ag6
ag75
aa(lp661
g36
ag40
ag5
ag13
ag36
ag174
aa(lp662
g38
ag11
ag5
ag20
ag7
ag261
aa(lp663
g118
a(Vincalcul
F0.26974444197461067
tp664
ag198
a(Vcorrer
F0.086407369557973068
tp665
ag6
ag210
aa(lp666
g63
ag205
ag144
ag107
ag48
ag156
aa(lp667
(Vharris
F0.12804060569804007
tp668
a(Vkar
F0.54138404242786164
tp669
a(Vlesion
F0.10245125569637009
tp670
ag6
a(Vdomestic
F0.45023917791783774
tp671
ag205
aa(lp672
g11
ag275
ag206
ag476
ag55
ag22
aa(lp673
g3
ag170
ag35
ag17
ag61
ag8
aa(lp674
g33
ag4
ag5
ag14
ag5
ag5
aa(lp675
g11
a(Vrieg
F0.10906255308756438
tp676
ag10
ag371
ag124
ag20
aa(lp677
g8
ag71
ag523
ag13
ag10
ag8
aa(lp678
g24
ag12
ag5
ag36
ag5
ag25
aa(lp679
g3
ag46
ag5
ag35
ag36
ag8
aa(lp680
g3
ag71
ag69
ag69
ag11
ag8
aa(lp681
g55
ag18
ag19
ag6
ag151
ag152
aa(lp682
g34
ag11
ag35
ag50
ag6
ag75
aa(lp683
g24
ag28
ag5
ag35
ag38
ag25
aa(lp684
g8
ag71
ag108
ag66
ag10
ag8
aa(lp685
g3
ag604
ag5
ag17
ag208
ag8
aa(lp686
g24
ag163
ag31
ag69
ag61
ag25
aa(lp687
g8
ag12
ag10
ag36
ag61
ag8
aa(lp688
g8
ag274
ag192
ag390
ag340
ag17
aa(lp689
g24
ag78
ag163
ag264
ag118
ag464
aa(lp690
g151
ag35
ag31
ag36
ag36
ag307
aa(lp691
g8
ag12
ag5
ag96
ag10
ag8
aa(lp692
g50
ag12
ag5
ag36
ag118
ag92
aa(lp693
(Vcauch
F0.13488523223247703
tp694
ag28
a(Vreinhold
F0.13528739079343755
tp695
ag382
ag208
ag25
aa(lp696
g36
a(Vbenzem
F0.40200317507460698
tp697
ag670
ag6
a(Vextraccion
F0.18021821328263607
tp698
ag108
aa(lp699
g77
a(Vmid
F0.40436442774836623
tp700
ag10
ag17
ag6
ag20
aa(lp701
g24
ag604
ag5
ag36
ag71
ag25
aa(lp702
g24
ag34
ag31
ag35
ag38
ag25
aa(lp703
g36
ag40
ag35
ag14
ag36
ag174
aa(lp704
g17
ag205
ag206
ag160
a(Vtram
F0.19572547950144095
tp705
a(Vidon
F0.095964860105704972
tp706
aa(lp707
g8
ag12
ag5
ag14
ag6
ag181
aa(lp708
g137
ag40
ag31
ag50
ag61
ag592
aa(lp709
(Vimperi
F0.43663853765310745
tp710
ag11
ag31
ag35
ag38
a(Vdf
F0.22949784385145899
tp711
aa(lp712
g233
ag46
ag5
ag14
ag29
ag234
aa(lp713
g163
ag168
ag380
ag409
a(Vbarquit
F0.091919831660074724
tp714
ag29
aa(lp715
g342
ag179
ag52
ag6
ag61
ag17
aa(lp716
g126
ag11
ag163
ag36
ag6
ag56
aa(lp717
g8
ag12
ag5
ag243
ag10
ag8
aa(lp718
g3
ag12
ag31
ag20
ag61
ag8
aa(lp719
g8
ag12
ag5
ag14
ag61
ag181
aa(lp720
g8
ag128
ag65
ag138
ag10
ag20
aa(lp721
g8
ag71
ag206
ag96
ag208
ag8
aa(lp722
g50
ag11
ag5
ag35
ag6
ag92
aa(lp723
g24
ag28
ag31
ag73
ag11
ag25
aa(lp724
g50
ag91
ag5
ag14
ag61
ag92
aa(lp725
g56
ag40
ag69
ag73
ag61
ag8
aa(lp726
g17
a(Vfraccion
F0.10055460397820437
tp727
ag65
ag561
ag5
ag179
aa(lp728
g50
ag99
ag5
ag14
ag149
ag92
aa(lp729
g8
ag91
ag5
ag412
ag11
ag181
aa(lp730
g5
ag71
ag31
ag14
ag11
ag296
aa(lp731
g8
ag12
a(Vpluviometr
F0.12818167175863457
tp732
ag210
ag61
ag8
aa(lp733
g3
ag35
ag31
ag14
ag36
ag8
aa(lp734
g34
ag12
ag10
ag114
ag38
ag75
aa(lp735
g267
ag205
ag154
a(Vsudari
F0.16345159308509702
tp736
a(Vpozuel
F0.27177938083488445
tp737
ag52
aa(lp738
g56
ag94
a(Vadjet
F0.093315774990097286
tp739
ag17
ag48
ag156
aa(lp740
g248
ag12
ag12
ag14
ag38
ag20
aa(lp741
g259
ag34
ag5
ag35
ag38
ag71
aa(lp742
g118
ag602
ag330
ag185
ag65
ag22
aa(lp743
g38
ag4
ag12
ag14
ag671
ag261
aa(lp744
g36
ag472
ag270
a(Vinviol
F0.088266171673622246
tp745
ag38
ag492
aa(lp746
g34
ag35
ag5
ag17
ag6
ag75
aa(lp747
g38
ag78
ag31
ag14
ag36
ag261
aa(lp748
g17
ag12
ag5
ag17
ag10
ag442
aa(lp749
g5
ag34
ag31
ag14
ag61
ag296
aa(lp750
g354
a(Vhosts
F0.32101656227677283
tp751
ag423
ag564
ag61
ag105
aa(lp752
g3
ag28
ag5
ag6
ag36
ag8
aa(lp753
g333
ag28
ag5
ag36
ag61
ag334
aa(lp754
g118
a(Vmodif
F0.1445226807467421
tp755
ag86
ag190
ag208
ag25
aa(lp756
g34
ag12
ag5
ag6
ag38
ag75
aa(lp757
(Vfindmins
F0.096586951092551165
tp758
ag35
ag5
ag267
ag61
ag55
aa(lp759
g389
a(Vglyphein
F0.19962125779078352
tp760
a(Vplasm
F0.5690601058507514
tp761
ag412
a(Valt
F0.085969356240924028
tp762
ag164
aa(lp763
g24
ag12
ag31
ag17
ag118
ag25
aa(lp764
g91
ag151
ag5
ag20
ag14
a(Vcalmad
F0.1188059437520972
tp765
aa(lp766
g259
ag40
ag31
ag14
ag38
ag71
aa(lp767
g3
ag12
ag31
ag36
ag5
ag8
aa(lp768
g17
ag40
ag12
ag66
ag10
ag8
aa(lp769
g233
ag550
ag330
ag56
a(Vdelat
F0.16345159308509702
tp770
ag71
aa(lp771
g156
ag157
ag423
ag20
a(Vaztec
F0.19417710090147886
tp772
ag144
aa(lp773
(Vsald
F0.31688628769654598
tp774
a(Vhuiri
F0.10349564957994203
tp775
ag158
ag36
ag29
a(Vfluctuacion
F0.22643599452758789
tp776
aa(lp777
g8
ag179
ag35
ag264
ag61
ag8
aa(lp778
g88
ag91
ag31
ag17
ag118
ag6
aa(lp779
g259
ag12
ag69
ag36
ag118
ag71
aa(lp780
g8
ag12
ag12
ag35
ag5
ag181
aa(lp781
g56
a(Vgenic
F0.18932193094903274
tp782
ag5
ag208
ag36
ag555
aa(lp783
g8
ag71
ag31
ag14
ag29
ag181
aa(lp784
g24
ag34
ag31
ag14
ag38
ag25
aa(lp785
g38
ag46
ag294
ag73
ag10
ag8
aa(lp786
g8
ag71
a(Vtraumat
F0.12069448363761344
tp787
ag476
ag55
ag22
aa(lp788
g24
ag11
ag206
ag6
ag208
ag25
aa(lp789
g8
ag12
ag144
ag69
ag6
ag17
aa(lp790
g259
ag34
ag78
ag36
ag29
ag71
aa(lp791
(Vmaritim
F0.20572120977511163
tp792
ag78
ag31
ag17
ag29
ag192
aa(lp793
g56
ag40
ag69
ag311
ag10
ag8
aa(lp794
g8
ag12
ag732
ag17
ag61
ag8
aa(lp795
g27
ag28
ag86
ag35
ag38
ag29
aa(lp796
g27
ag28
ag5
ag14
ag61
ag29
aa(lp797
g36
ag697
a(Vjabalin
F0.099808067915683835
tp798
ag129
ag130
ag71
aa(lp799
g8
ag102
ag12
ag96
ag10
ag8
aa(lp800
g3
ag40
ag31
ag20
ag36
ag8
aa(lp801
g8
ag12
ag35
ag73
ag10
ag8
aa(lp802
g423
ag34
ag5
ag17
ag61
a(Ventidad
F0.15244656367896123
tp803
aa(lp804
g8
ag13
ag5
ag14
ag29
ag181
aa(lp805
g8
ag12
ag65
ag69
ag10
ag8
aa(lp806
g88
ag71
ag5
ag63
ag118
ag6
aa(lp807
g24
ag28
ag31
ag6
ag38
ag25
aa(lp808
(Vdespeluzn
F0.16843797092934709
tp809
ag144
ag168
ag457
a(Voasis
F0.16885109484319055
tp810
ag25
aa(lp811
g8
ag454
ag270
ag206
ag710
ag406
aa(lp812
g8
ag40
ag5
ag6
ag36
ag181
aa(lp813
g50
ag99
ag12
ag14
ag6
ag92
aa(lp814
g579
ag35
ag31
a(Vshevchenk
F0.51001081962063799
tp815
ag36
ag40
aa(lp816
g3
ag170
ag330
ag36
ag61
ag8
aa(lp817
g38
ag91
ag5
ag6
ag61
ag261
aa(lp818
g8
ag12
ag69
ag294
ag10
ag8
aa(lp819
g423
ag34
ag5
ag6
ag71
ag803
aa(lp820
g50
ag78
ag31
ag20
ag38
ag92
aa(lp821
g24
ag205
ag206
ag96
ag35
ag29
aa(lp822
g24
ag12
ag386
ag35
ag38
ag25
aa(lp823
g3
ag11
ag31
ag14
ag36
ag8
aa(lp824
g8
ag28
ag69
ag36
ag38
ag181
aa(lp825
g118
ag755
ag5
ag160
ag65
ag205
aa(lp826
g154
ag4
ag10
ag36
ag10
ag8
aa(lp827
g83
ag4
ag462
ag264
ag6
ag29
aa(lp828
g96
ag40
ag31
ag17
ag11
ag645
aa(lp829
g36
ag198
ag10
ag745
ag38
ag71
aa(lp830
g5
ag71
ag78
ag14
ag6
ag296
aa(lp831
g34
ag480
ag315
ag73
ag5
ag73
aa(lp832
(Vlatitud
F0.23306385718440317
tp833
ag28
ag5
ag6
ag38
ag4
aa(lp834
g8
ag12
ag35
ag73
ag71
ag8
aa(lp835
g429
ag78
ag5
ag14
ag7
ag430
aa(lp836
g8
ag12
ag108
ag69
ag61
a(Vgradient
F0.48815257909410742
tp837
aa(lp838
g13
ag456
ag787
ag78
ag5
ag73
aa(lp839
g8
ag105
ag12
ag66
ag10
ag8
aa(lp840
g3
ag12
ag164
ag36
ag61
ag8
aa(lp841
g668
ag669
ag69
ag294
ag118
ag17
aa(lp842
g24
ag28
ag5
ag36
ag118
ag25
aa(lp843
g56
ag66
ag84
ag73
ag61
ag20
aa(lp844
g118
ag53
ag206
a(Vstar
F0.082719184028069853
tp845
ag330
ag105
aa(lp846
g24
ag34
ag35
ag63
ag61
ag25
aa(lp847
g8
ag34
ag31
ag6
ag7
ag181
aa(lp848
g3
ag12
ag10
ag36
ag38
ag8
aa(lp849
g34
ag12
ag31
ag112
ag38
ag75
aa(lp850
g8
ag78
ag12
ag17
ag10
ag181
aa(lp851
g50
ag12
ag31
ag6
ag118
ag92
aa(lp852
g154
ag12
ag5
ag311
ag10
ag8
aa(lp853
g5
ag163
ag5
ag17
ag61
ag296
aa(lp854
g83
ag102
ag144
ag69
ag10
ag8
aa(lp855
g24
ag46
ag346
ag571
ag5
ag73
aa(lp856
g8
ag114
ag5
ag69
ag61
ag8
aa(lp857
g83
a(Vreban
F0.23098170977277835
tp858
ag78
ag191
ag61
ag448
aa(lp859
g774
ag179
ag164
ag165
ag645
ag29
aa(lp860
g10
ag12
ag5
ag14
ag6
ag15
aa(lp861
g24
a(Virreproch
F0.084585534996760636
tp862
ag233
ag107
ag14
ag166
aa(lp863
g8
ag12
ag165
ag69
ag10
ag8
aa(lp864
g8
ag149
ag192
a(Valagoan
F0.17352144614388523
tp865
a(Vmusl
F0.088431708985871257
tp866
ag71
aa(lp867
g56
a(Vdun
F0.090610852511989637
tp868
ag24
ag390
ag815
ag192
aa(lp869
g3
ag28
ag31
ag14
ag36
ag8
aa(lp870
g482
ag4
ag462
a(Vburdach
F0.13528739079343755
tp871
ag29
a(Vanhel
F0.11205417325350299
tp872
aa(lp873
g3
ag13
ag105
ag14
ag5
ag8
aa(lp874
g3
ag28
ag35
ag28
ag5
ag8
aa(lp875
g758
ag35
a(Vexot
F0.08428280448937292
tp876
ag264
ag6
ag17
aa(lp877
g34
a(Vensuen
F0.18509238865363822
tp878
ag86
ag501
ag770
ag71
aa(lp879
g8
ag179
ag31
ag14
ag36
ag181
aa(lp880
g8
ag71
ag5
ag13
ag61
ag181
aa(lp881
g8
ag34
ag31
ag35
ag29
ag181
aa(lp882
g8
ag669
ag69
ag294
ag669
ag212
aa(lp883
g55
ag12
ag35
ag17
ag61
ag8
aa(lp884
g8
ag4
ag192
a(Vcolibri
F0.3107921144507485
tp885
ag772
ag144
aa(lp886
g389
ag46
ag640
ag43
ag44
ag22
aa(lp887
g33
ag28
ag5
ag17
ag36
ag5
aa(lp888
g78
ag46
ag168
ag95
ag356
ag20
aa(lp889
g34
ag34
ag5
ag17
ag118
ag75
aa(lp890
g8
ag28
ag5
ag17
ag419
ag181
aa(lp891
(Vcanfraner
F0.16755450253945067
tp892
a(Vgabon
F0.15142942741266455
tp893
ag12
a(Vcriptograf
F0.32392928719644637
tp894
ag5
ag20
aa(lp895
g38
ag78
ag5
ag17
ag38
ag261
aa(lp896
(Vteori
F0.1318833377629117
tp897
ag34
ag31
ag36
ag61
ag192
aa(lp898
g78
ag46
ag69
ag89
ag118
ag56
aa(lp899
g97
ag18
a(Vroz
F0.15678074298579195
tp900
ag89
ag5
ag73
aa(lp901
(Vpelirroj
F0.17571601825815497
tp902
ag205
ag31
ag22
a(Vespiral
F0.26296355250850073
tp903
ag311
aa(lp904
g50
ag71
ag5
ag36
ag38
ag92
aa(lp905
g8
ag71
ag29
ag112
ag71
ag8
aa(lp906
g8
a(Vestableci
F0.13911383684225181
tp907
ag86
a(Valucinacion
F0.10963107895365842
tp908
ag44
ag20
aa(lp909
g8
ag12
ag35
ag69
ag61
ag8
aa(lp910
g5
ag34
ag31
ag28
ag36
ag296
aa(lp911
g56
ag149
ag163
ag871
ag11
ag29
aa(lp912
g163
ag78
ag59
ag60
ag477
ag6
aa(lp913
g17
ag12
ag5
ag476
ag38
ag110
aa(lp914
g13
ag456
ag164
a(Vracion
F0.08314950607367258
tp915
ag29
ag29
aa(lp916
g8
ag12
ag328
ag208
ag6
ag8
aa(lp917
g5
ag12
ag5
ag36
ag14
ag296
aa(lp918
g118
a(Vgater
F0.10895196684010938
tp919
ag5
a(Vdisociacion
F0.1053261214418801
tp920
a(Vworld
F0.085119761386817316
tp921
ag108
aa(lp922
(Voca
F0.42445865878597178
tp923
ag13
ag670
ag6
ag186
ag17
aa(lp924
g118
ag697
ag798
a(Vrecepcion
F0.15844314384827299
tp925
ag38
ag71
aa(lp926
g11
ag205
ag154
ag190
ag208
ag25
aa(lp927
g24
ag46
ag670
ag56
ag186
ag17
aa(lp928
g423
a(Vchaney
F0.082719184028069853
tp929
ag41
a(Vdesbord
F0.28970232924446115
tp930
ag61
ag20
aa(lp931
g38
ag78
a(Vlugubr
F0.08428280448937292
tp932
a(Vozil
F0.21704203031243821
tp933
ag815
ag144
aa(lp934
g8
ag144
ag5
ag36
ag38
ag181
aa(lp935
g50
ag99
ag97
ag20
ag118
ag92
aa(lp936
g3
ag34
ag5
ag6
ag38
ag8
aa(lp937
g50
ag12
ag328
ag20
ag61
ag92
aa(lp938
g239
ag144
ag206
ag117
ag61
ag25
aa(lp939
(Vso
F0.23673335353884498
tp940
ag11
ag5
ag17
ag10
ag419
aa(lp941
g8
ag12
ag35
ag17
ag61
ag8
aa(lp942
g8
ag270
ag423
ag311
ag599
ag108
aa(lp943
g34
ag28
ag5
ag6
ag6
ag75
aa(lp944
g24
ag28
ag5
ag6
ag208
ag25
aa(lp945
g88
ag12
ag31
ag36
ag5
ag6
aa(lp946
g91
ag144
a(Vllan
F0.092118721808631454
tp947
ag160
ag208
ag156
aa(lp948
g24
ag4
ag272
ag17
ag29
ag25
aa(lp949
g83
ag66
ag84
ag73
ag5
ag17
aa(lp950
g38
ag12
ag12
ag14
ag36
ag261
aa(lp951
g8
ag46
ag35
ag73
ag61
ag8
aa(lp952
g8
ag12
ag328
ag73
ag61
ag8
aa(lp953
g126
ag11
ag31
ag69
ag61
ag56
aa(lp954
g8
ag46
a(Vparametr
F0.083895139893484766
tp955
ag191
ag124
ag8
aa(lp956
g8
ag456
ag164
ag117
ag118
ag774
aa(lp957
g579
ag18
ag35
ag17
ag61
ag40
aa(lp958
g8
ag137
ag303
a(Vgalaxi
F0.26296355250850073
tp959
a(Vdiscrep
F0.10252822751817664
tp960
ag20
aa(lp961
g377
ag205
ag380
ag264
ag6
ag20
aa(lp962
g8
ag12
ag330
ag17
ag29
ag181
aa(lp963
g8
ag11
ag31
ag14
ag10
ag181
aa(lp964
g56
ag12
ag328
ag96
ag61
ag8
aa(lp965
g8
ag28
ag50
ag17
ag36
ag181
aa(lp966
g8
ag163
ag31
ag14
ag118
ag181
aa(lp967
g154
ag760
ag78
ag925
ag124
ag97
aa(lp968
g24
ag28
ag5
ag6
ag38
ag25
aa(lp969
g38
ag4
ag5
ag36
ag11
ag261
aa(lp970
g56
ag137
ag97
ag43
ag44
ag22
aa(lp971
g8
ag71
ag787
ag134
ag186
ag17
aa(lp972
g36
ag240
ag5
ag36
ag118
ag174
aa(lp973
g8
ag454
ag5
ag552
ag49
ag50
aa(lp974
g163
ag4
ag163
ag264
ag6
ag71
aa(lp975
(Vheliopaus
F0.45652192338725772
tp976
ag12
ag29
ag17
ag61
ag8
aa(lp977
g27
ag28
ag31
ag35
ag61
ag29
aa(lp978
g34
ag40
ag5
ag6
ag6
ag75
aa(lp979
g8
ag179
ag670
a(Vperry
F0.13198123878136853
tp980
ag19
a(Vgolfet
F0.14285517822636504
tp981
aa(lp982
g189
ag46
ag498
a(Vguatemal
F0.11013984381521925
tp983
ag65
ag20
aa(lp984
g50
ag11
ag31
ag14
ag14
ag92
aa(lp985
g55
ag18
a(Vmagnetizacion
F0.13001451752968154
tp986
ag208
ag48
ag156
aa(lp987
g8
ag12
ag144
a(Vsuyu
F0.31140751663980043
tp988
ag10
ag8
aa(lp989
g137
ag4
ag5
ag6
ag38
ag139
aa(lp990
g13
ag4
ag5
ag17
ag61
ag312
aa(lp991
g77
ag35
ag144
ag6
ag7
ag20
aa(lp992
g56
ag12
ag5
ag73
ag61
ag8
aa(lp993
g8
ag12
ag35
ag73
ag61
ag210
aa(lp994
g24
ag4
ag12
ag14
ag118
ag25
aa(lp995
g38
ag28
ag5
ag89
ag38
ag261
aa(lp996
g13
ag12
ag31
ag14
a(Varrecif
F0.47873779854396503
tp997
ag312
aa(lp998
g56
ag137
ag303
a(Vlongitud
F0.083230303815032325
tp999
ag276
ag5
aa(lp1000
g8
ag11
ag5
ag412
ag36
ag181
aa(lp1001
g11
ag4
ag31
ag69
ag6
ag536
aa(lp1002
g56
ag137
ag497
ag20
ag160
ag55
aa(lp1003
g33
ag34
ag78
ag17
ag36
ag5
aa(lp1004
g8
a(Vsuavisim
F0.16591894372948118
tp1005
ag69
ag73
ag61
ag8
aa(lp1006
g8
ag34
ag5
ag28
ag36
ag181
aa(lp1007
g56
ag149
ag192
ag736
ag11
ag20
aa(lp1008
g118
ag168
ag78
a(Varist
F0.21446998216709798
tp1009
ag208
ag20
aa(lp1010
g17
ag18
ag5
a(Vtorit
F0.12624470518729144
tp1011
ag14
ag166
aa(lp1012
g50
ag34
ag31
ag14
ag10
ag92
aa(lp1013
g24
ag34
ag31
ag66
ag11
ag25
aa(lp1014
g11
ag71
ag5
ag210
ag10
ag8
aa(lp1015
g3
ag28
ag5
ag20
ag118
ag8
aa(lp1016
g56
ag12
ag5
ag73
ag71
ag8
aa(lp1017
(Vlimon
F0.15023822673207676
tp1018
ag205
ag168
ag123
ag11
ag237
aa(lp1019
g34
ag170
ag144
ag14
ag5
ag75
aa(lp1020
g8
ag12
ag144
ag210
ag10
ag8
aa(lp1021
g38
ag71
ag163
ag14
ag61
ag261
aa(lp1022
g412
ag12
ag31
ag14
ag29
ag413
aa(lp1023
g36
ag206
a(Vlag
F0.10558388183490057
tp1024
ag476
ag524
ag156
aa(lp1025
g8
ag34
ag31
ag6
ag71
ag181
aa(lp1026
g8
ag12
ag328
ag96
ag10
ag8
aa(lp1027
g482
ag4
ag462
ag871
ag36
a(Vkarel
F0.14730091421913802
tp1028
aa(lp1029
g17
ag18
ag10
ag95
a(Vturqui
F0.21162335926884995
tp1030
ag179
aa(lp1031
g36
ag78
ag330
ag28
ag208
ag20
aa(lp1032
g10
ag480
ag328
ag43
ag118
ag50
aa(lp1033
g8
ag114
ag294
ag96
ag10
ag8
aa(lp1034
g8
ag454
ag192
ag73
ag61
ag152
aa(lp1035
g8
ag4
ag5
ag14
ag36
ag181
aa(lp1036
g3
ag28
ag5
ag6
ag6
ag8
aa(lp1037
g163
ag46
ag97
ag43
a(Varistocrat
F0.112032986535297
tp1038
ag192
aa(lp1039
g8
ag34
ag31
ag13
ag14
ag181
aa(lp1040
g50
ag28
ag69
ag36
ag118
ag92
aa(lp1041
g24
ag46
ag5
ag552
ag61
ag20
aa(lp1042
g24
ag35
ag31
ag17
ag61
ag25
aa(lp1043
g8
ag71
a(Varrays
F0.10929698545324687
tp1044
ag36
ag107
ag8
aa(lp1045
g3
ag212
ag12
ag17
ag38
ag8
aa(lp1046
g8
ag12
ag144
ag294
ag10
ag8
aa(lp1047
g8
ag4
ag5
ag17
ag7
ag181
aa(lp1048
g36
ag11
ag35
ag6
ag61
ag174
aa(lp1049
g55
ag205
ag192
ag165
ag14
ag166
aa(lp1050
g8
ag12
ag5
ag14
ag36
ag181
aa(lp1051
g8
ag12
ag164
ag96
ag10
ag8
aa(lp1052
g5
ag34
ag31
ag13
ag38
ag296
aa(lp1053
g5
ag163
ag78
ag14
ag5
ag296
aa(lp1054
g38
ag12
ag5
ag17
ag61
ag261
aa(lp1055
g24
ag91
ag5
ag14
ag61
ag25
aa(lp1056
g342
ag71
ag31
ag36
ag61
ag17
aa(lp1057
g5
ag157
a(Vritm
F0.26531511446845646
tp1058
ag69
ag770
ag71
aa(lp1059
g38
ag28
ag206
ag36
ag29
ag261
aa(lp1060
g8
ag12
ag328
a(Vjenn
F0.13954706294855354
tp1061
ag61
ag8
aa(lp1062
g8
a(Vespontane
F0.10927609026205418
tp1063
ag206
ag439
ag5
ag179
aa(lp1064
g17
ag28
ag5
ag14
ag6
ag110
aa(lp1065
g126
ag35
ag163
ag20
ag36
ag56
aa(lp1066
g8
ag12
a(Vcaliz
F0.22703282428143376
tp1067
ag78
ag10
ag8
aa(lp1068
g43
a(Vtenis
F0.12001034526450098
tp1069
a(Vchazell
F0.096586951092551165
tp1070
ag457
ag206
ag29
aa(lp1071
g34
ag239
ag86
ag190
ag61
ag20
aa(lp1072
g56
ag602
ag330
ag28
ag608
ag907
aa(lp1073
g77
ag71
ag10
ag20
ag10
ag20
aa(lp1074
g88
ag91
ag78
ag28
ag36
ag6
aa(lp1075
g163
a(Vcrrac
F0.17401810830039488
tp1076
ag328
ag43
ag44
ag20
aa(lp1077
g34
ag34
ag10
ag14
ag11
ag75
aa(lp1078
g370
ag355
ag206
ag439
ag737
ag52
aa(lp1079
(Vdelfin
F0.14859393715925104
tp1080
ag240
ag86
ag107
ag38
ag406
aa(lp1081
g118
ag171
ag163
ag264
ag594
ag25
aa(lp1082
g27
ag11
ag5
ag35
ag61
ag29
aa(lp1083
g126
ag28
ag31
ag50
ag61
ag56
aa(lp1084
g177
ag11
ag163
ag50
ag61
ag156
aa(lp1085
g3
ag28
ag144
ag36
ag61
ag8
aa(lp1086
g36
a(Vsubgener
F0.2136888475565924
tp1087
ag270
ag885
ag19
ag29
aa(lp1088
g97
ag18
a(Vmasculin
F0.1788206111313245
tp1089
ag55
ag6
ag212
aa(lp1090
g137
ag71
ag5
ag6
ag38
ag592
aa(lp1091
g259
ag71
ag31
ag14
ag6
ag71
aa(lp1092
g8
ag12
ag65
ag66
ag71
ag8
aa(lp1093
g38
ag34
ag31
ag17
ag71
ag261
aa(lp1094
g8
ag34
ag5
ag36
ag6
ag181
aa(lp1095
g83
ag669
ag787
ag69
ag14
ag56
aa(lp1096
g154
ag602
ag78
ag576
ag5
a(Vmiop
F0.16843797092934709
tp1097
aa(lp1098
g88
ag34
ag50
ag20
ag14
ag6
aa(lp1099
g3
ag28
ag78
ag6
ag208
ag8
aa(lp1100
g40
ag12
ag31
ag20
ag38
a(Vaur
F0.12386721336290116
tp1101
aa(lp1102
g56
ag240
ag35
ag14
ag5
ag555
aa(lp1103
g11
ag12
ag65
ag73
ag61
ag8
aa(lp1104
g11
ag66
ag84
ag185
ag6
ag17
aa(lp1105
g8
ag12
ag144
ag69
ag71
a(Vquebr
F0.59695265280793031
tp1106
aa(lp1107
g24
ag12
ag154
ag35
ag38
ag25
aa(lp1108
g83
ag11
ag5
ag14
ag6
ag58
aa(lp1109
g56
ag40
ag108
ag69
ag6
ag8
aa(lp1110
g3
ag12
ag31
ag17
ag71
ag8
aa(lp1111
g24
ag240
ag192
a(Vceram
F0.19536393219849113
tp1112
ag371
ag29
aa(lp1113
g56
ag137
ag164
ag165
ag160
ag55
aa(lp1114
g24
ag34
ag5
ag35
ag6
ag25
aa(lp1115
g11
ag676
ag97
ag6
ag151
ag406
aa(lp1116
g24
ag34
ag5
ag14
ag61
ag25
aa(lp1117
g8
ag28
ag31
ag6
ag29
ag181
aa(lp1118
g118
ag602
ag44
ag564
ag61
ag17
aa(lp1119
g8
ag639
a(Vapod
F0.096873057482217598
tp1120
ag424
ag160
ag210
aa(lp1121
g3
ag170
ag206
ag20
ag14
ag8
aa(lp1122
g17
ag12
ag480
ag6
ag61
ag110
aa(lp1123
g3
ag34
ag423
ag17
ag29
ag8
aa(lp1124
g8
ag12
ag5
ag6
ag11
ag181
aa(lp1125
g34
ag170
ag5
ag6
ag36
ag75
aa(lp1126
g88
ag163
ag5
ag14
ag14
ag6
aa(lp1127
g8
ag91
ag5
ag36
ag61
ag181
aa(lp1128
g8
ag46
ag5
ag35
ag5
ag181
aa(lp1129
g33
ag28
ag5
ag69
ag6
ag5
aa(lp1130
g3
ag11
ag507
ag20
ag38
ag8
aa(lp1131
g8
ag28
ag31
ag14
ag61
ag181
aa(lp1132
g774
ag179
ag65
a(Vaplaudi
F0.1153407185283515
tp1133
ag35
ag192
aa(lp1134
g24
ag151
ag78
a(Vrooney
F0.40621364224512535
tp1135
ag38
ag25
aa(lp1136
g13
ag46
ag97
ag224
ag61
ag226
aa(lp1137
g24
ag28
ag108
ag17
ag71
ag25
aa(lp1138
g8
ag105
ag12
ag66
ag29
ag8
aa(lp1139
g33
ag78
ag5
ag14
ag11
ag5
aa(lp1140
g239
ag480
ag78
ag36
a(Vgel
F0.12760740006279128
tp1141
a(Vayudart
F0.10860617186994885
tp1142
aa(lp1143
g10
ag480
ag69
ag294
ag608
ag71
aa(lp1144
g976
a(Valejandr
F0.10927609026205418
tp1145
ag328
ag17
ag276
ag29
aa(lp1146
g3
ag12
ag108
ag17
ag6
ag8
aa(lp1147
g36
ag602
ag116
ag60
ag61
ag907
aa(lp1148
g33
ag604
ag5
ag20
ag38
ag5
aa(lp1149
g412
ag71
ag5
ag210
ag10
ag8
aa(lp1150
g83
ag433
ag330
ag20
ag397
ag226
aa(lp1151
g163
ag12
ag31
ag14
ag118
a(Vherth
F0.13986882514354304
tp1152
aa(lp1153
g8
ag12
ag144
ag69
a(Vsupercop
F0.082553973765738267
tp1154
ag17
aa(lp1155
g342
ag71
ag35
ag69
ag6
ag17
aa(lp1156
g774
ag179
a(Vkemp
F0.12132352114172193
tp1157
ag382
ag208
ag20
aa(lp1158
g496
ag205
ag423
ag311
ag179
a(Vocasional
F0.35471720968509513
tp1159
aa(lp1160
g8
ag12
ag5
ag17
ag61
ag181
aa(lp1161
(Vartic
F0.10493839829563389
tp1162
a(Vpececit
F0.10420935270916268
tp1163
ag330
ag541
ag55
ag29
aa(lp1164
g24
ag46
ag5
ag35
ag480
ag25
aa(lp1165
(Vcricket
F0.090467016855668228
tp1166
ag163
ag69
ag14
ag38
ag118
aa(lp1167
g24
ag12
ag163
ag35
ag38
ag25
aa(lp1168
g8
ag170
ag5
ag6
ag5
ag181
aa(lp1169
g24
ag12
ag5
ag14
ag149
ag25
aa(lp1170
g269
ag11
ag5
ag35
ag6
ag50
aa(lp1171
g126
ag11
ag5
ag35
ag11
ag56
aa(lp1172
g233
ag163
ag12
ag6
ag61
ag234
aa(lp1173
g8
ag144
ag31
ag14
ag36
ag181
aa(lp1174
g50
ag35
ag31
ag14
ag29
ag92
aa(lp1175
g3
ag12
ag163
ag17
ag61
ag8
aa(lp1176
g38
ag34
ag31
ag17
ag14
ag261
aa(lp1177
g11
ag149
ag192
ag73
ag61
ag156
aa(lp1178
g8
ag179
ag5
ag6
ag29
ag8
aa(lp1179
g233
ag149
ag192
ag17
ag276
ag25
aa(lp1180
g56
ag149
a(Vvotacion
F0.092209531577744669
tp1181
ag134
ag55
ag55
aa(lp1182
(Vheaps
F0.14407458089595607
tp1183
ag1076
ag787
ag78
ag5
ag73
aa(lp1184
g24
ag46
ag5
ag17
ag208
ag25
aa(lp1185
g126
ag34
ag31
ag14
ag71
ag56
aa(lp1186
g3
ag4
ag5
ag36
ag199
ag8
aa(lp1187
g170
ag396
a(Vtommy
F0.30560721154955417
tp1188
ag134
ag208
ag25
aa(lp1189
g24
ag11
ag5
ag14
ag61
ag25
aa(lp1190
g38
ag144
ag29
ag17
ag10
ag8
aa(lp1191
g24
ag12
ag5
ag35
ag480
ag25
aa(lp1192
g55
ag34
ag50
ag17
ag38
ag504
aa(lp1193
g8
ag18
ag19
ag267
ag206
a(Vescobaj
F0.13495901029622295
tp1194
aa(lp1195
g118
ag12
ag65
ag112
ag10
ag8
aa(lp1196
g8
ag12
ag65
ag96
ag6
ag837
aa(lp1197
g33
ag163
ag5
ag14
ag14
ag5
aa(lp1198
g63
a(Vtraicion
F0.25634117150382324
tp1199
ag84
ag73
ag61
ag152
aa(lp1200
g50
ag78
ag5
ag14
ag5
ag92
aa(lp1201
g8
ag78
ag5
ag14
ag11
ag181
aa(lp1202
g5
ag12
ag31
ag35
ag38
ag296
aa(lp1203
g33
ag151
ag5
ag36
ag61
ag5
aa(lp1204
g8
ag114
ag170
ag17
ag61
ag8
aa(lp1205
g38
ag12
ag5
ag14
ag6
ag261
aa(lp1206
g126
ag11
ag163
ag14
ag38
ag56
aa(lp1207
g3
ag4
ag5
ag6
ag38
ag8
aa(lp1208
g239
ag240
a(Vlimosn
F0.1102228439100903
tp1209
ag518
ag519
ag20
aa(lp1210
g8
ag78
ag5
ag18
ag772
ag192
aa(lp1211
g8
ag12
ag328
ag96
ag61
ag8
aa(lp1212
g1080
ag240
ag354
ag871
ag11
ag20
aa(lp1213
g13
ag179
ag31
ag35
ag29
ag312
aa(lp1214
g24
ag34
ag144
ag36
ag61
ag25
aa(lp1215
g24
ag12
ag5
ag14
ag61
ag25
aa(lp1216
g557
ag144
ag206
ag17
ag36
ag492
aa(lp1217
g24
ag12
ag5
ag17
ag208
ag25
aa(lp1218
g50
ag91
ag5
ag14
ag208
ag92
aa(lp1219
g5
ag12
ag12
ag6
ag38
ag296
aa(lp1220
g126
ag34
ag31
ag50
ag11
ag56
aa(lp1221
g33
ag12
ag163
ag14
ag29
ag5
aa(lp1222
g923
ag163
a(Vindecid
F0.34562947823189227
tp1223
a(Vmensajer
F0.10408787197991744
tp1224
ag35
ag108
aa(lp1225
g77
ag28
ag5
ag14
ag38
ag20
aa(lp1226
g17
ag12
ag35
ag117
ag118
ag8
aa(lp1227
g27
ag40
ag31
ag20
ag38
ag29
aa(lp1228
g179
ag12
ag144
ag69
ag118
ag8
aa(lp1229
g8
ag12
ag35
ag210
ag10
ag8
aa(lp1230
g34
ag46
ag31
ag17
ag118
ag75
aa(lp1231
g8
ag28
ag5
ag267
ag419
ag181
aa(lp1232
g170
ag46
a(Vprimit
F0.2358212494943325
tp1233
ag185
ag6
ag17
aa(lp1234
g8
ag370
ag10
ag371
ag124
ag8
aa(lp1235
g88
ag78
ag5
ag14
ag38
ag6
aa(lp1236
g24
ag4
ag5
ag36
ag61
ag25
aa(lp1237
g56
ag12
ag35
ag117
ag118
ag8
aa(lp1238
g354
ag78
ag184
ag185
ag6
ag210
aa(lp1239
g8
ag602
ag1157
ag216
ag419
ag210
aa(lp1240
(Valtiplan
F0.38461259510686807
tp1241
a(Vimpon
F0.099765509949655648
tp1242
ag5
ag894
ag50
ag20
aa(lp1243
g423
ag4
ag5
ag267
ag5
ag803
aa(lp1244
g269
ag11
ag163
ag6
ag118
ag50
aa(lp1245
g239
ag240
a(Vaerosmith
F0.32502893002716821
tp1246
a(Vrichard
F0.19788920789041947
tp1247
ag6
ag210
aa(lp1248
g13
ag12
ag31
ag6
ag71
ag312
aa(lp1249
g3
ag71
ag480
ag69
ag36
ag8
aa(lp1250
g97
ag163
ag97
ag43
ag10
ag210
aa(lp1251
g13
ag12
ag108
ag69
ag61
ag8
aa(lp1252
g8
ag163
ag12
ag35
ag11
ag181
aa(lp1253
g154
ag12
ag97
a(Vperill
F0.10140853256471898
tp1254
ag1087
ag20
aa(lp1255
g1018
ag163
ag65
ag138
ag10
ag97
aa(lp1256
g36
ag34
ag12
ag20
ag36
ag174
aa(lp1257
(Vglaciar
F0.13913581781918025
tp1258
a(Vpalanc
F0.28379435474245013
tp1259
ag10
ag871
ag11
ag20
aa(lp1260
g24
ag28
ag31
ag6
ag118
ag25
aa(lp1261
g83
ag46
ag164
ag598
a(Vpoblador
F0.23240398144907967
tp1262
ag56
aa(lp1263
g177
ag12
ag5
ag208
ag38
ag156
aa(lp1264
g50
ag151
ag31
ag17
ag6
ag92
aa(lp1265
g163
ag78
ag69
ag55
ag6
ag210
aa(lp1266
g88
ag34
ag5
ag36
ag61
ag6
aa(lp1267
g17
ag18
ag10
ag1247
ag6
ag210
aa(lp1268
g24
ag604
ag5
ag17
ag6
ag25
aa(lp1269
g342
ag71
ag10
ag14
ag36
ag17
aa(lp1270
g24
ag179
ag5
ag14
ag36
ag25
aa(lp1271
g17
ag11
ag78
ag20
ag14
ag442
aa(lp1272
g3
ag35
ag31
ag14
ag61
ag8
aa(lp1273
g201
ag270
ag31
ag14
ag6
ag104
aa(lp1274
(Vceld
F0.26026572197070558
tp1275
ag12
ag507
ag14
ag7
ag311
aa(lp1276
g27
ag270
a(Vastros
F0.14374878205722305
tp1277
a(Vatlant
F0.39508618332350781
tp1278
ag44
ag22
aa(lp1279
g38
ag34
ag206
ag20
ag14
ag261
aa(lp1280
g8
ag12
ag65
ag112
ag118
ag8
aa(lp1281
g8
ag12
ag144
ag28
ag10
ag8
aa(lp1282
g17
ag12
ag328
ag311
ag10
ag8
aa(lp1283
g3
ag163
ag31
ag6
ag199
ag8
aa(lp1284
g38
ag12
ag5
ag13
ag208
ag261
aa(lp1285
g24
ag34
ag5
ag35
ag11
ag25
aa(lp1286
g13
ag34
ag31
ag36
ag71
ag312
aa(lp1287
g8
ag163
ag144
ag20
ag14
ag181
aa(lp1288
g50
ag35
ag31
ag6
ag55
ag92
aa(lp1289
g3
ag46
ag31
ag14
ag71
ag8
aa(lp1290
g351
ag94
ag10
ag95
ag96
ag20
aa(lp1291
g5
ag12
ag5
ag14
ag61
ag296
aa(lp1292
g50
ag12
ag31
ag14
ag208
ag92
aa(lp1293
g8
ag274
ag69
ag1133
ag35
ag192
aa(lp1294
g24
ag163
ag12
ag6
ag61
ag25
aa(lp1295
g423
ag205
a(Veficaz
F0.12800566524496937
tp1296
a(Vextranjer
F0.096037025517518831
tp1297
ag7
ag99
aa(lp1298
g33
ag12
ag5
ag6
ag38
ag5
aa(lp1299
g24
ag28
ag78
ag6
ag36
ag25
aa(lp1300
g259
ag46
ag12
ag6
ag199
ag71
aa(lp1301
g38
ag179
ag29
ag330
ag10
ag8
aa(lp1302
g342
ag11
ag31
ag36
ag997
ag17
aa(lp1303
g52
ag53
ag97
ag160
ag118
ag17
aa(lp1304
g33
ag34
ag423
ag36
ag29
ag5
aa(lp1305
g976
ag760
ag386
a(Vpluvi
F0.12818167175863457
tp1306
ag36
ag29
aa(lp1307
g8
ag78
ag10
ag50
ag61
ag181
aa(lp1308
g36
ag639
ag5
ag552
ag6
ag20
aa(lp1309
g24
ag34
ag31
ag6
ag36
ag25
aa(lp1310
g10
a(Vadriaans
F0.17352144614388523
tp1311
a(Vpertenecient
F0.12502252260505728
tp1312
ag6
a(Vsanz
F0.13244598683877484
tp1313
a(Vrocall
F0.26089549122019023
tp1314
aa(lp1315
g88
ag12
ag31
ag36
ag61
ag6
aa(lp1316
g3
ag78
ag5
ag14
ag61
ag8
aa(lp1317
g8
ag34
ag5
ag13
ag14
ag181
aa(lp1318
g50
ag151
ag86
ag35
ag6
ag92
aa(lp1319
g13
ag179
ag163
ag14
ag29
ag312
aa(lp1320
g10
ag4
ag192
a(Vucranian
F0.17000360654021268
tp1321
ag225
ag5
aa(lp1322
g33
ag71
ag5
ag20
ag36
ag5
aa(lp1323
g17
ag71
ag294
ag96
ag10
ag8
aa(lp1324
g233
ag4
a(Vac
F0.092669819329078307
tp1325
ag43
ag44
ag20
aa(lp1326
g10
ag480
ag233
ag925
ag124
ag8
aa(lp1327
g8
ag34
ag5
ag13
ag118
ag181
aa(lp1328
g34
ag12
ag386
ag20
ag38
ag75
aa(lp1329
g24
ag11
ag31
ag13
ag10
ag25
aa(lp1330
g24
ag34
ag35
ag14
ag5
ag25
aa(lp1331
g56
ag12
ag163
ag35
ag5
ag555
aa(lp1332
g8
ag454
ag615
a(Vrel
F0.08428280448937292
tp1333
ag65
ag22
aa(lp1334
g96
ag11
ag31
ag36
ag11
ag645
aa(lp1335
g55
a(Vrequier
F0.09287692127700331
tp1336
ag163
ag17
ag276
ag29
aa(lp1337
g118
ag34
ag5
ag36
ag6
a(Vagall
F0.11481064789981373
tp1338
aa(lp1339
g269
ag34
ag5
ag50
ag36
ag50
aa(lp1340
g8
ag12
ag35
ag264
ag6
ag17
aa(lp1341
g24
ag28
ag144
ag14
ag36
ag25
aa(lp1342
g152
ag35
ag5
ag409
ag61
ag20
aa(lp1343
g579
ag170
ag5
ag14
ag61
ag40
aa(lp1344
g104
ag456
ag86
ag190
ag208
ag25
aa(lp1345
(Vleid
F0.12105956939273725
tp1346
ag669
ag69
ag69
a(Vaustralopithecus
F0.14750848269435729
tp1347
ag482
aa(lp1348
g8
ag179
ag50
ag69
ag55
ag181
aa(lp1349
g13
ag149
ag192
a(Vconsecut
F0.084135961496632258
tp1350
ag108
ag8
aa(lp1351
g24
ag12
ag5
ag20
ag71
ag25
aa(lp1352
g8
ag179
ag78
a(Vjavi
F0.13139684164684906
tp1353
ag44
ag467
aa(lp1354
g105
ag40
ag447
ag13
ag29
ag5
aa(lp1355
g11
ag12
ag35
ag13
ag107
ag17
aa(lp1356
g24
ag4
ag462
ag264
ag6
ag17
aa(lp1357
g8
ag149
ag192
ag736
ag206
a(Vcalabaz
F0.13286454080923296
tp1358
aa(lp1359
g50
ag28
ag31
ag69
ag38
ag92
aa(lp1360
g8
ag46
ag523
ag13
ag61
ag8
aa(lp1361
g50
ag35
ag5
ag6
ag38
ag92
aa(lp1362
g38
ag12
ag5
ag35
ag38
ag261
aa(lp1363
g8
ag71
ag35
ag96
ag10
ag8
aa(lp1364
g259
ag46
ag31
ag36
ag5
ag71
aa(lp1365
g8
ag71
ag163
ag264
ag118
ag17
aa(lp1366
g269
ag34
ag31
ag35
ag61
ag50
aa(lp1367
g33
ag34
ag31
ag17
ag163
ag5
aa(lp1368
g28
ag71
ag35
ag73
ag61
ag29
aa(lp1369
g118
a(Viic
F0.093557485783386379
tp1370
a(Vkopp
F0.31140906850335115
tp1371
a(Vcontribuir
F0.29008544028076383
tp1372
ag11
ag20
aa(lp1373
g8
a(Volympiqu
F0.2370101068679949
tp1374
a(Vunderground
F0.1068444237782962
tp1375
ag56
ag11
a(Vcribl
F0.44215854492935625
tp1376
aa(lp1377
g83
ag205
a(Vbarry
F0.16089402361921409
tp1378
ag1133
ag35
ag47
aa(lp1379
g8
ag550
ag31
ag36
ag55
ag181
aa(lp1380
g8
ag1076
ag787
ag69
ag5
ag907
aa(lp1381
g27
ag28
ag31
ag36
ag61
ag29
aa(lp1382
g24
ag34
ag69
ag36
ag61
ag25
aa(lp1383
g24
ag205
ag5
ag13
ag208
ag25
aa(lp1384
g36
ag602
ag330
ag28
ag5
ag20
aa(lp1385
(Vchaparron
F0.25634117150382324
tp1386
ag144
ag986
ag50
ag698
ag17
aa(lp1387
g8
ag71
a(Vwari
F0.15974791999512133
tp1388
ag17
ag61
ag8
aa(lp1389
g892
ag78
ag163
ag294
ag65
ag22
aa(lp1390
g24
ag12
ag31
ag14
ag6
ag25
aa(lp1391
g8
ag198
ag10
ag745
ag61
ag135
aa(lp1392
g8
ag12
ag5
ag301
ag10
ag8
aa(lp1393
g8
ag12
ag144
ag17
ag61
ag8
aa(lp1394
g34
ag12
ag86
ag14
ag61
ag75
aa(lp1395
g923
ag13
ag5
ag1011
ag11
ag119
aa(lp1396
g118
ag1199
ag84
ag13
a(Vgarfi
F0.41186208033613936
tp1397
ag1376
aa(lp1398
g694
ag12
ag31
ag14
ag38
ag1376
aa(lp1399
g8
ag4
ag12
ag14
ag6
ag181
aa(lp1400
g579
ag28
ag5
ag35
ag61
ag40
aa(lp1401
g24
ag149
ag192
ag17
a(Vexpresart
F0.16885109484319055
tp1402
ag210
aa(lp1403
(Vamig
F0.17177513410070031
tp1404
ag171
ag163
ag73
ag61
ag29
aa(lp1405
g5
ag28
ag31
ag6
ag330
ag296
aa(lp1406
g17
ag34
ag10
ag6
ag38
ag110
aa(lp1407
g3
ag12
ag86
ag35
ag61
ag8
aa(lp1408
g8
ag604
ag192
ag983
ag65
ag20
aa(lp1409
g892
ag78
ag163
ag264
ag44
ag20
aa(lp1410
g24
ag46
ag184
ag28
ag36
ag1028
aa(lp1411
g24
ag12
ag31
ag14
ag38
ag25
aa(lp1412
g170
ag171
ag787
ag69
ag5
ag73
aa(lp1413
g8
a(Vmandibul
F0.41059191970484227
tp1414
ag144
ag6
ag36
ag181
aa(lp1415
g24
a(Vapol
F0.32085256335654744
tp1416
ag12
ag14
ag29
ag25
aa(lp1417
g8
ag28
ag5
ag66
ag61
ag181
aa(lp1418
g259
ag28
ag206
ag14
ag6
ag71
aa(lp1419
g56
ag13
ag330
ag28
ag38
ag73
aa(lp1420
g50
ag4
ag31
ag43
ag36
ag92
aa(lp1421
g8
ag71
ag523
ag13
ag6
ag8
aa(lp1422
g55
a(Vcarcom
F0.16345159308509702
tp1423
ag168
ag123
ag38
ag56
aa(lp1424
g34
ag34
ag5
ag36
ag6
ag75
aa(lp1425
g8
ag12
ag5
ag311
ag10
ag8
aa(lp1426
g77
ag78
ag192
ag17
ag38
ag20
aa(lp1427
g55
ag1336
ag116
ag117
ag11
ag20
aa(lp1428
g5
ag12
ag31
ag66
ag36
ag296
aa(lp1429
g17
ag12
ag108
ag6
ag10
ag442
aa(lp1430
g8
ag12
ag5
ag134
ag61
ag8
aa(lp1431
g27
ag28
ag31
ag35
ag5
ag29
aa(lp1432
g36
ag170
ag31
ag14
ag36
ag174
aa(lp1433
g137
ag71
ag31
ag20
ag38
ag592
aa(lp1434
g8
ag40
ag69
ag294
ag67
ag8
aa(lp1435
(Varad
F0.09253754723066604
tp1436
ag35
a(Vanular
F0.11609347875411595
tp1437
ag69
ag11
ag119
aa(lp1438
g34
ag11
ag12
ag6
ag38
ag75
aa(lp1439
g10
ag480
ag47
ag206
ag5
ag73
aa(lp1440
g3
ag34
ag519
ag6
ag6
ag8
aa(lp1441
g24
ag12
ag170
ag14
ag38
ag25
aa(lp1442
g1166
ag91
ag5
ag35
ag36
ag118
aa(lp1443
g13
ag11
ag5
ag14
ag38
ag312
aa(lp1444
g17
ag12
ag35
ag17
ag61
ag8
aa(lp1445
g792
ag11
ag31
ag20
ag38
ag192
aa(lp1446
g24
ag46
ag670
ag56
ag705
ag17
aa(lp1447
g8
ag550
ag144
ag14
ag55
ag181
aa(lp1448
g34
ag28
ag69
ag14
ag36
ag75
aa(lp1449
g8
ag12
ag1296
ag1133
ag35
ag29
aa(lp1450
g34
ag205
a(Vmidi
F0.11094570366094206
tp1451
ag1112
ag5
ag179
aa(lp1452
g579
ag71
ag31
ag28
ag61
ag40
aa(lp1453
g17
ag11
ag5
ag69
ag14
ag442
aa(lp1454
g36
a(Valbacet
F0.39987923745284165
tp1455
ag1166
ag134
ag61
a(Vaparient
F0.17057195682460083
tp1456
aa(lp1457
g154
ag18
ag5
ag36
ag29
ag5
aa(lp1458
g38
ag12
ag5
ag13
ag55
ag261
aa(lp1459
g1275
ag28
ag31
ag36
ag38
ag311
aa(lp1460
g17
ag28
ag10
ag6
ag118
ag110
aa(lp1461
g8
ag12
ag65
ag112
ag61
ag8
aa(lp1462
g8
ag12
ag31
ag73
ag61
ag8
aa(lp1463
g8
ag12
ag5
ag210
ag10
ag8
aa(lp1464
g5
ag12
ag5
ag20
ag71
ag296
aa(lp1465
g83
ag11
ag5
ag6
ag6
ag58
aa(lp1466
g11
ag179
ag670
ag6
ag186
ag17
aa(lp1467
g50
ag91
ag78
ag17
ag14
ag92
aa(lp1468
g56
ag480
ag695
ag73
ag61
ag424
aa(lp1469
g27
ag12
ag163
ag35
ag163
ag29
aa(lp1470
g8
ag12
ag35
ag73
ag61
ag8
aa(lp1471
g24
ag12
ag31
ag20
ag10
ag25
aa(lp1472
g8
ag71
ag31
ag14
ag36
ag181
aa(lp1473
g34
ag243
ag105
ag50
ag38
ag75
aa(lp1474
g354
ag12
ag270
ag73
ag61
ag976
aa(lp1475
g24
ag4
ag697
ag14
ag10
ag25
aa(lp1476
g33
ag11
ag35
ag35
ag61
ag5
aa(lp1477
g34
ag12
ag5
ag17
ag671
ag75
aa(lp1478
g8
ag78
ag63
ag50
ag11
ag181
aa(lp1479
g83
ag71
ag29
ag96
ag10
ag8
aa(lp1480
g13
ag28
ag31
ag13
ag11
ag312
aa(lp1481
g8
ag639
ag640
ag641
ag160
ag1159
aa(lp1482
g177
ag12
ag170
ag14
ag38
ag156
aa(lp1483
g354
ag355
ag5
ag134
ag61
ag135
aa(lp1484
g3
ag28
ag507
ag6
ag118
ag8
aa(lp1485
g17
ag11
ag5
ag35
ag14
ag442
aa(lp1486
g5
ag46
ag69
ag17
ag11
ag296
aa(lp1487
g24
ag12
ag206
ag439
a(Vavecill
F0.1954657740066981
tp1488
ag494
aa(lp1489
g3
ag46
ag519
ag14
ag11
ag8
aa(lp1490
g8
ag12
ag170
ag264
ag6
ag8
aa(lp1491
g8
ag71
ag5
ag426
ag61
ag8
aa(lp1492
g24
ag4
ag5
ag6
ag118
ag25
aa(lp1493
g259
ag46
ag78
ag14
ag71
ag71
aa(lp1494
g423
ag12
ag31
ag20
ag10
ag803
aa(lp1495
g8
ag919
ag144
a(Vantepas
F0.202430610834271
tp1496
a(Vcarrington
F0.36344913673674939
tp1497
a(Vveracruz
F0.08314950607367258
tp1498
aa(lp1499
g33
ag91
ag31
ag20
ag71
ag5
aa(lp1500
(Vneuron
F0.4232427765948269
tp1501
ag256
ag12
ag54
ag55
ag192
aa(lp1502
g118
ag198
ag10
ag206
ag5
a(Vlimosner
F0.13495901029622295
tp1503
aa(lp1504
g1501
ag78
ag164
ag165
ag61
ag152
aa(lp1505
g24
ag46
ag31
ag253
ag11
ag25
aa(lp1506
g50
ag11
ag10
ag311
ag55
ag92
aa(lp1507
g38
ag11
ag31
ag6
ag199
ag261
aa(lp1508
g50
ag12
ag330
ag17
ag38
ag92
aa(lp1509
g118
ag179
ag86
ag190
ag38
ag114
aa(lp1510
g8
ag233
ag5
ag311
ag10
ag8
aa(lp1511
g118
ag12
ag65
ag18
ag50
ag8
aa(lp1512
g33
ag78
ag31
ag6
ag36
ag5
aa(lp1513
g259
ag40
ag480
ag14
ag38
ag71
aa(lp1514
g3
ag34
ag5
ag14
ag29
ag8
aa(lp1515
g88
ag71
ag5
ag35
ag36
ag6
aa(lp1516
g24
ag12
ag31
ag14
ag11
ag25
aa(lp1517
g8
ag270
ag5
a(Vgenom
F0.28398289642354912
tp1518
ag10
ag8
aa(lp1519
g50
ag151
ag5
ag14
ag10
ag92
aa(lp1520
g5
ag11
ag31
ag6
ag71
ag296
aa(lp1521
g24
ag28
ag5
ag36
ag61
ag25
aa(lp1522
g56
ag137
ag206
ag50
a(Vhablant
F0.082738412574873604
tp1523
ag25
aa(lp1524
g154
ag654
a(Vdespabil
F0.12270158604506232
tp1525
ag35
ag419
ag17
aa(lp1526
g668
ag355
ag5
ag552
ag267
ag20
aa(lp1527
g259
ag71
ag31
ag14
ag36
ag71
aa(lp1528
g38
ag34
ag170
ag14
ag10
ag261
aa(lp1529
(Vpupilaj
F0.10895196684010938
tp1530
ag28
ag5
ag104
ag36
ag108
aa(lp1531
g50
ag34
ag5
ag14
ag5
ag92
aa(lp1532
g5
ag28
ag78
ag35
ag61
ag296
aa(lp1533
g8
ag40
ag10
ag36
ag44
ag20
aa(lp1534
g3
ag28
ag31
ag35
ag36
ag8
aa(lp1535
g24
ag170
ag31
ag17
ag61
ag25
aa(lp1536
g50
ag11
ag31
ag36
ag14
ag92
aa(lp1537
g24
ag46
ag31
ag412
ag38
ag25
aa(lp1538
g377
ag1024
ag47
ag28
ag21
ag17
aa(lp1539
g259
ag34
ag78
ag17
ag61
ag71
aa(lp1540
g8
a(Vmalecon
F0.29007288663625402
tp1541
ag5
ag78
ag61
ag181
aa(lp1542
g27
ag28
ag31
ag17
ag208
ag29
aa(lp1543
g96
ag40
ag10
ag6
ag11
ag645
aa(lp1544
g10
ag12
ag31
ag104
ag5
ag15
aa(lp1545
g38
ag91
ag5
ag14
ag149
ag261
aa(lp1546
g579
ag34
ag31
ag20
ag5
ag40
aa(lp1547
g10
ag28
ag5
ag20
ag149
ag15
aa(lp1548
g13
ag34
ag192
ag35
ag38
ag312
aa(lp1549
g50
ag28
ag5
ag14
ag11
ag92
aa(lp1550
g24
ag12
ag35
ag17
ag163
ag25
aa(lp1551
g170
ag4
ag31
ag73
ag61
ag8
aa(lp1552
g36
ag91
ag192
ag35
ag480
ag174
aa(lp1553
g3
ag34
ag5
ag17
ag38
ag8
aa(lp1554
g13
ag28
ag5
ag14
ag6
ag312
aa(lp1555
g126
ag35
ag66
ag17
ag11
ag56
aa(lp1556
g5
ag12
ag5
ag63
ag38
ag296
aa(lp1557
g8
ag114
ag5
ag311
ag10
ag8
aa(lp1558
g248
ag71
ag31
ag66
ag118
ag20
aa(lp1559
g55
ag168
ag69
ag294
ag1087
ag20
aa(lp1560
g11
a(Vsetubal
F0.12654165634936118
tp1561
ag498
ag73
ag61
ag152
aa(lp1562
g758
ag35
ag69
ag294
ag19
ag6
aa(lp1563
g56
ag137
ag1246
ag1061
ag671
ag205
aa(lp1564
g24
ag34
ag5
ag14
ag6
ag25
aa(lp1565
g17
ag71
ag69
ag294
ag61
ag8
aa(lp1566
g34
ag91
ag5
ag14
ag38
ag75
aa(lp1567
g3
ag28
ag31
ag14
ag10
ag8
aa(lp1568
g24
ag163
ag144
ag6
ag38
ag25
aa(lp1569
g774
ag179
ag69
ag264
ag6
ag210
aa(lp1570
g8
ag12
ag29
ag330
ag6
ag837
aa(lp1571
g24
ag151
ag31
ag14
ag61
ag25
aa(lp1572
g88
ag12
ag5
ag17
ag71
ag6
aa(lp1573
g24
ag28
a(Vveron
F0.39729747229595164
tp1574
ag14
ag29
ag25
aa(lp1575
g24
ag151
ag5
ag69
ag10
ag25
aa(lp1576
g11
ag4
ag31
ag14
ag38
ag536
aa(lp1577
g55
ag66
ag12
ag1321
ag225
ag226
aa(lp1578
g50
ag34
ag163
ag419
ag5
ag92
aa(lp1579
g8
ag34
ag761
ag36
ag11
ag181
aa(lp1580
g17
ag28
ag5
ag36
ag6
ag110
aa(lp1581
g3
ag12
ag272
ag14
ag5
ag8
aa(lp1582
g13
ag355
ag163
ag264
ag6
ag210
aa(lp1583
g8
ag34
ag12
ag35
ag38
ag181
aa(lp1584
g467
ag1259
ag29
ag123
ag11
ag119
aa(lp1585
g10
ag46
ag54
ag146
ag96
ag172
aa(lp1586
g774
ag12
ag330
ag18
ag36
ag226
aa(lp1587
g8
ag12
ag5
ag13
ag107
ag192
aa(lp1588
g1241
ag78
a(Vales
F0.10581167963442498
tp1589
a(Vtsunamis
F0.35471720968509513
tp1590
ag5
ag73
aa(lp1591
g24
a(Vpuent
F0.095652106460157094
tp1592
ag69
ag36
ag29
ag210
aa(lp1593
g8
ag12
ag65
ag36
ag44
ag8
aa(lp1594
g1018
ag163
ag192
ag17
ag276
ag105
aa(lp1595
(Vrescision
F0.13329307915094721
tp1596
ag46
ag621
ag185
ag6
ag73
aa(lp1597
g33
ag12
ag35
ag14
ag6
ag5
aa(lp1598
g3
ag28
ag31
ag20
ag61
ag8
aa(lp1599
g3
ag12
ag5
ag14
ag38
ag8
aa(lp1600
g11
ag858
ag144
ag1496
ag1497
ag20
aa(lp1601
g248
ag34
ag63
ag6
ag61
ag20
aa(lp1602
g13
ag12
ag31
ag69
ag36
ag312
aa(lp1603
g38
ag11
ag5
ag17
ag29
ag261
aa(lp1604
g24
ag12
ag5
ag6
ag36
ag25
aa(lp1605
g24
ag28
ag192
ag69
ag6
ag25
aa(lp1606
g80
ag11
ag5
ag36
ag163
ag81
aa(lp1607
g50
ag11
ag10
ag6
ag38
ag92
aa(lp1608
g3
ag34
ag519
ag14
ag38
ag8
aa(lp1609
g24
ag275
ag163
ag20
ag772
ag144
aa(lp1610
g56
ag149
ag97
ag20
ag21
ag172
aa(lp1611
g38
ag12
ag5
ag17
ag14
ag261
aa(lp1612
g269
ag91
ag31
ag35
ag61
ag50
aa(lp1613
g8
a(Vdescansari
F0.091263662333446446
tp1614
ag380
ag409
ag714
ag29
aa(lp1615
g13
ag12
ag144
ag17
ag61
ag8
aa(lp1616
g774
ag179
ag78
ag1254
ag5
ag774
aa(lp1617
g8
ag12
ag31
ag36
ag6
ag181
aa(lp1618
g8
ag34
ag31
ag14
ag38
ag181
aa(lp1619
g8
ag71
ag5
a(Vpa
F0.24753326370433859
tp1620
ag118
ag8
aa(lp1621
g24
ag71
ag69
ag28
ag14
ag25
aa(lp1622
g3
ag12
ag31
ag35
ag7
ag8
aa(lp1623
g13
ag40
ag519
ag6
ag36
ag312
aa(lp1624
g3
ag1246
ag10
ag36
ag118
ag8
aa(lp1625
g3
ag550
ag5
ag35
ag6
ag8
aa(lp1626
g33
ag34
ag35
ag117
ag118
ag5
aa(lp1627
g96
ag11
ag31
ag815
ag38
ag645
aa(lp1628
g126
ag34
ag697
ag35
ag118
ag56
aa(lp1629
g13
ag53
ag97
ag112
a(Vargument
F0.16779027978696953
tp1630
ag8
aa(lp1631
g24
ag46
ag498
ag117
ag118
ag492
aa(lp1632
g3
ag11
ag192
ag14
ag6
ag8
aa(lp1633
g50
ag170
ag31
ag14
ag6
ag92
aa(lp1634
g5
ag28
ag31
ag6
ag61
ag296
aa(lp1635
g5
ag28
ag5
ag14
ag61
ag296
aa(lp1636
g24
ag71
ag31
ag36
ag11
ag25
aa(lp1637
g13
ag28
ag5
ag138
ag36
ag312
aa(lp1638
g38
ag34
ag31
ag17
ag61
ag261
aa(lp1639
g27
ag28
ag31
ag36
ag36
ag29
aa(lp1640
g24
ag4
ag12
ag36
ag6
ag25
aa(lp1641
g38
ag12
ag31
ag20
ag36
ag261
aa(lp1642
g8
ag12
ag35
a(Vfederation
F0.15147101134873589
tp1643
ag10
ag8
aa(lp1644
g170
ag240
ag168
a(Vmsnm
F0.13139684164684906
tp1645
ag206
ag1358
aa(lp1646
g8
ag179
ag294
ag243
ag10
ag8
aa(lp1647
g24
ag91
ag12
ag17
ag208
ag25
aa(lp1648
g3
ag91
ag31
ag17
ag71
ag8
aa(lp1649
g33
ag34
ag5
ag20
ag149
ag5
aa(lp1650
g423
ag149
ag192
ag224
ag118
ag492
aa(lp1651
g496
ag275
ag163
ag17
ag61
a(Vagregacion
F0.3159783643256403
tp1652
aa(lp1653
g259
ag12
ag5
ag14
ag61
ag71
aa(lp1654
g137
ag12
ag31
ag17
ag61
ag139
aa(lp1655
g24
ag46
ag346
a(Vegoist
F0.10963107895365842
tp1656
ag397
ag210
aa(lp1657
(Vbiocenosis
F0.39318930761642112
tp1658
ag179
ag670
ag6
ag65
a(Vconjuncion
F0.50335765463240789
tp1659
aa(lp1660
g3
ag28
ag5
ag14
ag6
ag8
aa(lp1661
g3
ag46
ag44
ag17
ag36
ag8
aa(lp1662
g83
ag919
ag986
ag208
ag14
ag25
aa(lp1663
g10
ag12
ag78
ag20
ag38
ag15
aa(lp1664
g24
ag78
ag29
ag571
ag179
a(Vetic
F0.096639303257938722
tp1665
aa(lp1666
g137
ag163
ag519
ag14
ag61
ag139
aa(lp1667
g8
ag179
ag507
ag96
ag10
ag8
aa(lp1668
g8
ag46
ag122
ag208
ag61
ag8
aa(lp1669
g50
ag28
ag10
ag35
ag38
ag92
aa(lp1670
g83
ag669
ag787
ag69
ag61
ag17
aa(lp1671
g3
ag12
ag31
ag17
ag29
ag8
aa(lp1672
g8
ag12
ag732
ag208
ag10
ag8
aa(lp1673
g56
ag137
ag303
ag999
ag276
ag210
aa(lp1674
g189
ag168
ag1246
ag54
ag36
ag160
aa(lp1675
g579
ag34
ag5
ag14
ag38
ag40
aa(lp1676
g36
ag433
ag330
ag28
ag6
ag1314
aa(lp1677
g8
ag4
ag5
ag69
ag36
ag181
aa(lp1678
g8
ag4
ag163
ag35
ag29
ag181
aa(lp1679
g36
ag240
ag84
ag73
ag38
ag56
aa(lp1680
g17
ag99
ag5
ag552
ag419
ag73
aa(lp1681
g8
ag12
ag69
ag243
ag10
ag8
aa(lp1682
g8
ag12
ag31
a(Vparaj
F0.12663874593545973
tp1683
ag7
ag8
aa(lp1684
g24
ag12
ag519
ag13
ag38
ag25
aa(lp1685
g40
ag78
ag5
ag470
ag5
ag73
aa(lp1686
g91
ag396
ag84
ag73
ag61
ag20
aa(lp1687
g5
ag12
ag31
ag36
ag38
ag296
aa(lp1688
g50
ag11
ag31
ag20
ag10
ag92
aa(lp1689
g36
ag12
ag330
ag14
ag11
ag174
aa(lp1690
g38
ag28
ag10
ag6
ag71
ag261
aa(lp1691
g34
ag34
ag163
ag14
ag10
ag75
aa(lp1692
g380
ag168
ag1246
ag69
ag141
ag212
aa(lp1693
g50
ag28
ag31
ag73
ag38
ag92
aa(lp1694
g50
ag34
ag5
ag35
ag11
ag92
aa(lp1695
g24
ag12
ag108
ag17
ag55
ag25
aa(lp1696
g3
ag12
ag31
ag6
ag6
ag8
aa(lp1697
g36
ag240
ag168
ag28
ag608
ag299
aa(lp1698
g3
ag12
ag226
ag14
ag10
ag8
aa(lp1699
g8
ag1374
ag621
ag185
ag6
ag99
aa(lp1700
g24
ag71
ag5
ag104
ag118
ag25
aa(lp1701
g8
ag11
ag5
ag112
ag29
ag8
aa(lp1702
g259
ag12
ag10
ag36
ag36
ag71
aa(lp1703
g50
ag34
ag31
ag117
ag118
ag92
aa(lp1704
g8
ag12
ag5
ag301
ag61
ag8
aa(lp1705
g8
ag71
ag732
ag96
ag10
ag8
aa(lp1706
g118
ag755
ag164
ag165
ag6
ag1199
aa(lp1707
g17
ag12
ag65
ag96
ag10
ag8
aa(lp1708
g34
ag12
ag5
ag17
ag61
ag75
aa(lp1709
g17
ag71
ag108
ag20
ag11
ag110
aa(lp1710
g5
ag40
ag78
ag14
ag61
ag296
aa(lp1711
g27
ag11
ag31
ag6
ag7
ag29
aa(lp1712
g8
ag12
ag35
ag243
ag10
ag8
aa(lp1713
g24
ag28
ag5
ag815
ag36
ag25
aa(lp1714
g33
ag34
ag386
ag14
ag61
ag5
aa(lp1715
g24
ag46
ag621
ag36
ag29
ag108
aa(lp1716
g8
ag12
ag10
ag36
ag44
ag20
aa(lp1717
g56
ag12
ag144
ag69
ag6
ag837
aa(lp1718
g38
ag144
ag5
ag301
ag6
ag8
aa(lp1719
(Vchristianshaf
F0.13818901758350666
tp1720
ag1246
ag5
ag17
ag118
ag267
aa(lp1721
g3
ag170
ag31
ag17
ag208
ag8
aa(lp1722
g13
ag53
ag168
ag206
ag5
ag1503
aa(lp1723
g10
ag480
ag47
ag48
ag810
ag144
aa(lp1724
g24
ag12
ag5
ag17
ag38
ag25
aa(lp1725
g154
ag4
ag462
ag78
ag38
ag114
aa(lp1726
g10
ag12
ag31
ag6
ag36
ag15
aa(lp1727
g3
ag1455
ag31
ag14
ag38
ag8
aa(lp1728
g24
ag163
ag483
ag69
ag141
ag8
aa(lp1729
g55
ag1561
ag31
ag22
ag48
ag73
aa(lp1730
g52
ag858
ag78
ag18
ag700
ag6
aa(lp1731
g88
ag4
ag12
ag14
ag61
ag6
aa(lp1732
g8
ag12
ag5
ag243
ag61
ag8
aa(lp1733
g36
ag34
ag5
ag14
ag163
ag174
aa(lp1734
(Vdesemboc
F0.30174305502816445
tp1735
a(Vjuniors
F0.081546337026192878
tp1736
ag1371
ag73
ag61
ag29
aa(lp1737
g8
ag144
ag168
ag457
ag206
a(Vconfidencial
F0.11691974919327712
tp1738
aa(lp1739
g24
ag71
ag5
ag14
ag71
ag25
aa(lp1740
g38
ag34
ag31
ag69
ag10
ag261
aa(lp1741
g579
ag11
ag31
ag36
ag163
ag40
aa(lp1742
g50
ag78
ag5
ag78
ag10
ag92
aa(lp1743
g163
ag270
ag44
ag206
ag5
ag1503
aa(lp1744
g56
ag775
ag158
ag36
ag29
ag1159
aa(lp1745
g8
ag12
ag5
ag6
ag61
ag17
aa(lp1746
g13
ag163
ag5
ag14
ag14
ag312
aa(lp1747
g118
ag46
ag5
ag22
ag48
ag156
aa(lp1748
g91
ag144
ag364
ag206
ag5
ag210
aa(lp1749
g8
ag34
ag31
ag14
ag5
ag181
aa(lp1750
g52
ag454
ag328
ag73
ag61
ag8
aa(lp1751
g56
ag149
ag192
ag1112
ag38
ag56
aa(lp1752
g97
a(Valmagest
F0.1137033650921393
tp1753
ag447
ag470
ag49
ag97
aa(lp1754
g50
ag91
ag78
ag14
ag61
ag92
aa(lp1755
g56
a(Vdefin
F0.11212981120365342
tp1756
ag1018
ag17
ag61
ag1652
aa(lp1757
g118
ag755
ag330
ag1496
ag191
ag192
aa(lp1758
g8
ag12
a(Vkeni
F0.20680846386828086
tp1759
ag96
ag61
ag8
aa(lp1760
g10
ag1455
ag1166
ag476
ag55
ag105
aa(lp1761
g56
ag13
ag5
ag552
a(Vold
F0.1081594013338623
tp1762
ag381
aa(lp1763
g239
ag4
ag462
ag925
ag124
ag8
aa(lp1764
g34
ag12
ag31
ag117
ag118
ag75
aa(lp1765
(Vcolin
F0.14073098104389059
tp1766
ag370
ag10
ag1297
ag14
ag56
aa(lp1767
g5
ag163
ag31
ag36
ag118
ag296
aa(lp1768
g1436
ag35
ag1437
ag69
ag65
ag17
aa(lp1769
g38
ag91
ag12
ag20
ag14
ag261
aa(lp1770
g55
ag12
ag35
ag96
ag10
ag8
aa(lp1771
g557
ag144
ag1437
ag56
ag1659
ag8
aa(lp1772
g24
ag751
ag5
ag14
ag208
ag25
aa(lp1773
g56
ag240
ag54
ag146
ag44
ag6
aa(lp1774
g122
ag114
ag12
ag123
ag206
ag29
aa(lp1775
g24
ag34
ag78
ag6
ag61
ag25
aa(lp1776
g10
ag170
ag69
ag294
ag179
ag1159
aa(lp1777
g8
ag12
ag12
ag96
ag10
ag8
aa(lp1778
g8
ag12
ag462
ag96
ag10
ag8
aa(lp1779
g402
ag34
ag5
ag311
ag38
ag234
aa(lp1780
g36
ag78
ag330
ag18
ag186
ag17
aa(lp1781
g8
ag46
ag168
ag190
ag208
ag290
aa(lp1782
g88
ag34
ag5
ag14
ag71
ag6
aa(lp1783
g259
ag71
ag31
ag50
ag61
ag71
aa(lp1784
g88
ag71
ag5
ag17
ag14
ag6
aa(lp1785
g24
ag34
ag78
ag36
ag61
ag25
aa(lp1786
g17
ag151
ag31
ag14
ag38
ag442
aa(lp1787
g13
ag179
ag5
ag14
ag38
ag312
aa(lp1788
g36
ag34
ag5
ag17
ag38
ag174
aa(lp1789
g3
ag4
ag97
ag69
ag6
ag8
aa(lp1790
g24
ag46
ag5
ag36
ag6
ag25
aa(lp1791
g13
ag179
ag65
ag35
ag36
ag312
aa(lp1792
g163
ag12
ag158
ag36
ag159
ag160
aa(lp1793
g774
ag179
ag29
ag330
ag10
ag8
aa(lp1794
g38
ag11
ag170
ag20
ag38
ag261
aa(lp1795
g3
ag12
ag10
ag14
ag10
ag8
aa(lp1796
g1018
ag163
ag483
ag264
ag44
ag20
aa(lp1797
g13
ag34
ag31
ag6
ag38
ag312
aa(lp1798
g38
ag28
ag5
ag14
ag6
ag261
aa(lp1799
g55
ag34
ag206
ag20
ag10
ag504
aa(lp1800
g50
ag34
ag163
ag311
ag55
ag92
aa(lp1801
g8
ag137
a(Vhernandez
F0.12624470518729144
tp1802
ag138
ag208
a(Vsurc
F0.09519090103726266
tp1803
aa(lp1804
g154
ag12
ag65
ag96
ag10
ag8
aa(lp1805
g36
ag12
ag12
ag6
ag38
ag174
aa(lp1806
g3
ag28
ag31
ag14
ag38
ag8
aa(lp1807
g24
ag71
ag31
ag36
ag38
ag25
aa(lp1808
g154
ag669
ag69
ag294
ag19
ag97
aa(lp1809
g892
ag893
ag12
ag73
ag61
ag1541
aa(lp1810
g24
ag28
ag5
ag6
ag71
ag25
aa(lp1811
g154
ag12
ag35
ag96
ag10
ag8
aa(lp1812
g118
ag168
ag5
ag1620
ag330
ag105
aa(lp1813
g3
ag12
ag5
ag17
ag35
ag8
aa(lp1814
g34
ag433
ag86
ag190
ag208
ag25
aa(lp1815
g8
ag11
ag35
ag63
ag118
ag181
aa(lp1816
g8
ag12
ag165
ag6
ag61
ag8
aa(lp1817
g63
ag12
ag168
ag1350
ag108
ag8
aa(lp1818
g50
ag28
ag12
ag13
ag38
ag92
aa(lp1819
g151
ag28
ag31
ag6
ag118
ag307
aa(lp1820
g8
ag12
ag170
ag311
ag10
ag8
aa(lp1821
g8
ag12
ag5
ag112
ag61
ag8
aa(lp1822
g56
ag433
ag192
ag208
ag118
ag492
aa(lp1823
g56
ag669
ag876
ag900
ag118
ag20
aa(lp1824
g50
ag170
ag31
ag22
ag6
ag92
aa(lp1825
g8
ag71
ag29
ag96
ag10
ag8
aa(lp1826
g8
ag35
ag35
ag14
ag208
ag181
aa(lp1827
g5
ag11
ag31
ag35
ag36
ag296
aa(lp1828
g8
ag12
ag5
ag18
ag412
ag8
aa(lp1829
g56
ag137
a(Vurrac
F0.16843797092934709
tp1830
ag191
a(Vmolusc
F0.19514507452629146
tp1831
a(Vsami
F0.27973765028708608
tp1832
aa(lp1833
g17
ag12
ag35
ag117
ag61
ag8
aa(lp1834
g24
ag46
ag519
ag36
ag6
ag25
aa(lp1835
g201
ag34
ag5
ag14
ag61
ag104
aa(lp1836
g24
ag12
ag5
ag6
ag671
ag25
aa(lp1837
g24
ag35
ag5
ag43
ag44
ag20
aa(lp1838
g88
ag28
ag12
ag69
ag6
ag6
aa(lp1839
g354
ag355
ag5
ag17
ag48
ag156
aa(lp1840
g402
ag34
ag10
ag6
ag7
ag234
aa(lp1841
g3
ag91
ag31
ag36
ag71
ag8
aa(lp1842
g27
ag12
ag69
ag14
ag6
ag29
aa(lp1843
g11
ag676
ag10
ag95
ag1501
ag73
aa(lp1844
(Vimag
F0.14244167957618217
tp1845
ag893
ag12
ag1254
ag61
ag448
aa(lp1846
g159
ag12
ag5
ag107
ag61
ag47
aa(lp1847
g36
ag12
ag1296
ag1133
ag208
ag25
aa(lp1848
g38
ag34
ag31
ag28
ag11
ag261
aa(lp1849
g159
ag34
ag31
ag107
ag61
ag47
aa(lp1850
g13
ag4
ag5
ag14
ag10
ag312
aa(lp1851
g8
ag13
a(Vavestruz
F0.096352661764898401
tp1852
ag95
ag55
ag105
aa(lp1853
g3
ag12
ag5
ag14
ag11
ag8
aa(lp1854
g154
ag1753
ag97
ag43
ag267
ag29
aa(lp1855
g24
ag34
ag31
ag117
ag61
ag25
aa(lp1856
g3
ag12
ag69
ag17
ag36
ag8
aa(lp1857
g152
ag35
ag5
ag191
ag61
ag448
aa(lp1858
g38
ag28
ag5
ag14
ag36
ag261
aa(lp1859
g11
ag275
ag86
a(Vcabaner
F0.3353851038733151
tp1860
ag124
ag8
aa(lp1861
g8
ag12
ag31
ag14
ag118
ag181
aa(lp1862
g8
ag456
ag31
ag6
ag61
ag181
aa(lp1863
g792
ag78
ag31
ag17
ag38
ag192
aa(lp1864
g104
ag1199
ag31
ag36
ag49
ag50
aa(lp1865
g24
ag28
ag31
ag50
ag61
ag25
aa(lp1866
g24
ag12
ag78
ag17
ag6
ag25
aa(lp1867
(Vgollet
F0.20300616709252417
tp1868
ag179
ag330
ag43
a(Vcomenc
F0.1188059437520972
tp1869
ag55
aa(lp1870
g24
ag179
ag5
ag17
ag6
ag25
aa(lp1871
g56
ag137
ag1830
ag191
a(Vtuenti
F0.14238236793071604
tp1872
ag179
aa(lp1873
g126
ag11
ag31
ag14
ag412
ag56
aa(lp1874
g96
ag11
ag35
ag6
ag61
ag645
aa(lp1875
g8
ag34
ag5
a(Vcaca
F0.32362850150246475
tp1876
ag639
ag181
aa(lp1877
g311
ag71
ag5
ag6
ag38
a(Vrud
F0.10628126267730527
tp1878
aa(lp1879
g3
ag12
ag423
ag6
ag5
ag8
aa(lp1880
g38
ag4
ag31
ag117
ag118
ag261
aa(lp1881
g17
ag179
ag5
ag17
ag61
ag442
aa(lp1882
g8
ag12
ag165
ag73
ag61
ag8
aa(lp1883
g38
ag28
ag5
ag13
ag55
ag261
aa(lp1884
g8
ag12
ag5
ag17
ag61
ag8
aa(lp1885
g88
ag71
ag5
ag14
ag671
ag6
aa(lp1886
g38
ag12
ag31
ag14
ag412
ag261
aa(lp1887
g13
ag40
ag761
ag6
ag38
ag312
aa(lp1888
g8
ag454
ag447
ag13
ag714
ag8
aa(lp1889
g52
ag179
a(Vacronim
F0.12370841786813609
tp1890
ag933
ag5
ag976
aa(lp1891
g8
ag12
ag5
ag210
ag118
ag5
aa(lp1892
g8
ag12
ag29
ag112
ag71
ag8
aa(lp1893
g8
ag34
ag5
ag36
ag11
ag181
aa(lp1894
g38
ag4
ag5
ag6
ag61
ag261
aa(lp1895
g342
ag179
ag69
ag112
ag61
ag17
aa(lp1896
g10
ag71
ag31
ag36
ag5
ag15
aa(lp1897
g3
ag78
ag12
ag66
ag61
ag8
aa(lp1898
(Vmezcl
F0.084474070584889302
tp1899
ag144
ag491
ag6
ag6
ag17
aa(lp1900
g3
ag12
ag5
ag14
ag71
ag8
aa(lp1901
g137
ag78
ag5
ag17
ag38
ag139
aa(lp1902
g36
ag1756
ag1018
ag17
ag61
ag1652
aa(lp1903
g126
ag28
ag5
ag36
ag71
ag56
aa(lp1904
g8
ag275
ag12
ag634
ag65
ag22
aa(lp1905
g34
ag28
ag31
ag6
ag671
ag75
aa(lp1906
g8
ag12
ag1388
ag17
ag10
ag8
aa(lp1907
g10
ag1455
ag192
ag885
ag772
ag144
aa(lp1908
g24
ag243
ag35
ag815
ag38
ag25
aa(lp1909
g1166
ag28
ag31
ag14
ag6
ag118
aa(lp1910
g3
ag34
ag31
ag28
ag36
ag8
aa(lp1911
g118
ag46
ag5
ag552
ag382
ag20
aa(lp1912
g3
ag12
ag5
ag117
ag14
ag8
aa(lp1913
g342
ag12
ag31
ag6
ag208
ag17
aa(lp1914
g8
ag114
ag5
ag311
ag71
ag17
aa(lp1915
g88
ag12
ag5
ag44
ag61
ag6
aa(lp1916
g259
ag163
ag12
ag36
ag61
ag71
aa(lp1917
g118
ag105
ag106
ag294
ag639
a(Vyesquer
F0.22009217122355584
tp1918
aa(lp1919
g34
ag11
ag5
ag20
ag208
ag75
aa(lp1920
g10
ag46
ag397
ag1321
ag225
ag5
aa(lp1921
g10
ag12
ag31
ag14
ag38
ag15
aa(lp1922
g8
ag28
ag5
ag14
ag10
ag181
aa(lp1923
g122
ag114
ag84
ag73
ag61
a(Vpotabilizacion
F0.34428692382364168
tp1924
aa(lp1925
g809
ag144
ag192
ag390
ag225
ag5
aa(lp1926
g1530
ag34
ag5
ag36
ag36
ag108
aa(lp1927
g5
ag12
ag12
ag69
ag6
ag296
aa(lp1928
g56
ag4
ag462
ag463
ag65
ag22
aa(lp1929
g10
ag71
ag108
ag35
ag5
ag15
aa(lp1930
g239
ag144
ag206
a(Vnightrain
F0.12945418715526447
tp1931
ag397
ag20
aa(lp1932
g56
ag137
ag303
ag999
ag48
ag156
aa(lp1933
g126
ag639
ag5
ag36
ag61
ag56
aa(lp1934
g40
ag177
ag154
ag20
ag160
ag210
aa(lp1935
g8
ag28
ag5
ag17
ag639
ag181
aa(lp1936
g88
ag28
ag12
ag14
ag38
ag6
aa(lp1937
g496
ag205
ag86
ag1860
ag1397
ag17
aa(lp1938
g255
ag163
ag69
ag17
a(Vzamarr
F0.088431708985871257
tp1939
ag1924
aa(lp1940
g24
ag755
ag330
ag28
ag36
ag1028
aa(lp1941
g342
ag71
ag31
ag14
ag61
ag17
aa(lp1942
g8
ag12
ag5
ag20
ag61
ag8
aa(lp1943
g259
ag46
ag5
ag14
ag61
ag71
aa(lp1944
g50
ag28
ag105
ag50
ag118
ag92
aa(lp1945
g8
ag78
ag144
ag17
ag163
ag181
aa(lp1946
g118
ag137
ag1375
ag78
ag124
ag8
aa(lp1947
g3
ag34
ag31
ag14
ag38
ag8
aa(lp1948
g17
ag179
ag294
ag17
ag61
ag8
aa(lp1949
g24
ag11
ag31
ag66
ag118
ag25
aa(lp1950
g50
ag28
ag5
ag36
ag6
ag92
aa(lp1951
(Vprescind
F0.093767404598636625
tp1952
ag11
ag144
ag6
ag38
ag179
aa(lp1953
g248
ag12
ag5
ag36
ag61
ag20
aa(lp1954
g33
ag28
ag5
ag17
ag5
ag5
aa(lp1955
g17
ag613
ag170
ag17
ag61
ag8
aa(lp1956
g354
ag114
ag97
ag160
ag419
ag20
aa(lp1957
g8
ag12
ag10
ag36
ag44
ag8
aa(lp1958
g33
ag163
ag31
ag17
ag14
ag5
aa(lp1959
g8
ag71
ag69
ag73
ag61
ag8
aa(lp1960
g56
ag40
ag523
ag73
ag61
ag71
aa(lp1961
g56
ag12
ag35
ag73
ag61
ag8
aa(lp1962
g34
ag28
ag5
ag14
ag61
ag75
aa(lp1963
g56
ag28
ag12
ag35
ag61
ag555
aa(lp1964
g24
ag1241
ag5
ag14
ag61
ag25
aa(lp1965
g8
a(Velectromagnet
F0.23113504906207849
tp1966
ag5
ag311
ag7
ag8
aa(lp1967
g3
ag28
ag5
ag36
ag61
ag8
aa(lp1968
g24
ag34
ag31
ag20
ag208
ag25
aa(lp1969
g13
ag53
ag97
ag224
ag61
ag17
aa(lp1970
g923
ag13
ag206
ag160
ag356
ag192
aa(lp1971
g36
ag35
ag35
ag6
ag61
ag174
aa(lp1972
g8
ag71
ag1044
ag1620
ag772
ag144
aa(lp1973
g8
ag179
ag1371
ag73
ag61
a(Vpetr
F0.19962125779078352
tp1974
aa(lp1975
g33
ag46
ag5
ag14
ag29
ag5
aa(lp1976
g3
ag12
ag31
ag20
ag36
ag8
aa(lp1977
g34
ag28
ag31
ag20
ag61
ag75
aa(lp1978
g8
ag12
ag35
ag96
ag10
ag8
aa(lp1979
g27
ag170
ag31
ag35
ag38
ag29
aa(lp1980
g3
ag12
ag697
ag28
ag11
ag8
aa(lp1981
g8
ag28
ag5
ag6
ag38
ag181
aa(lp1982
g3
ag71
ag10
ag69
ag118
ag8
aa(lp1983
g5
ag12
ag5
ag17
ag38
ag296
aa(lp1984
g976
ag12
ag5
ag73
ag61
ag8
aa(lp1985
g24
ag28
ag5
ag104
ag6
ag25
aa(lp1986
g10
ag480
ag86
ag190
ag356
ag8
aa(lp1987
g24
ag137
ag5
ag20
ag61
ag25
aa(lp1988
g24
ag12
ag5
ag50
ag61
ag25
aa(lp1989
g5
ag28
ag5
ag69
ag61
ag296
aa(lp1990
g354
ag355
ag164
ag165
ag6
ag776
aa(lp1991
g56
ag149
ag192
ag1254
ag5
ag50
aa(lp1992
g24
ag170
ag35
ag36
ag6
ag25
aa(lp1993
g248
ag71
ag31
ag20
ag118
ag20
aa(lp1994
g36
ag697
ag670
ag6
ag698
ag50
aa(lp1995
g5
ag4
ag507
ag20
ag38
ag296
aa(lp1996
g24
ag71
ag31
ag63
ag61
ag25
aa(lp1997
g3
ag243
ag66
ag14
ag10
ag8
aa(lp1998
g17
ag71
ag163
ag20
ag61
ag8
aa(lp1999
g248
ag12
ag5
ag138
ag118
ag20
aa(lp2000
g13
ag179
ag31
ag6
ag5
ag312
aa(lp2001
g38
ag28
ag507
ag6
ag160
ag261
aa(lp2002
g342
ag179
ag31
ag17
ag14
ag17
aa(lp2003
g88
ag34
ag10
ag36
ag14
ag6
aa(lp2004
g88
ag18
ag108
ag44
ag71
ag6
aa(lp2005
g154
ag1753
ag1157
ag382
ag5
ag20
aa(lp2006
g3
ag4
ag31
ag14
ag61
ag8
aa(lp2007
g17
ag243
ag5
ag35
ag61
ag442
aa(lp2008
g17
ag12
ag5
ag6
ag36
ag110
aa(lp2009
g163
ag149
ag192
ag224
ag257
ag29
aa(lp2010
g88
ag4
ag35
ag14
ag10
ag6
aa(lp2011
g36
ag144
a(Vbermud
F0.15142942741266455
tp2012
a(Vcurr
F0.20580593416449175
tp2013
ag65
ag22
aa(lp2014
g17
ag12
ag35
ag243
ag11
ag8
aa(lp2015
g8
ag4
ag5
ag6
ag71
ag181
aa(lp2016
g38
ag11
ag12
ag50
ag29
ag261
aa(lp2017
g8
ag1241
ag163
ag17
ag71
ag181
aa(lp2018
g354
ag163
ag1223
ag1224
ag1262
ag56
aa(lp2019
g694
ag12
ag270
ag73
ag61
ag17
aa(lp2020
g33
ag46
ag35
ag17
ag38
ag5
aa(lp2021
g8
ag12
ag12
ag321
ag71
ag29
aa(lp2022
g269
ag34
ag31
ag14
ag38
ag50
aa(lp2023
g8
ag71
ag108
ag210
ag61
ag20
aa(lp2024
g3
ag12
ag10
ag69
ag38
ag8
aa(lp2025
g8
ag28
ag12
ag14
ag38
ag181
aa(lp2026
g5
ag157
ag1058
ag69
ag141
ag71
aa(lp2027
g8
ag4
ag31
ag243
ag10
ag8
aa(lp2028
g1241
ag78
ag621
ag185
ag6
ag56
aa(lp2029
g38
ag11
ag12
ag13
ag55
ag261
aa(lp2030
g24
ag28
ag10
ag63
ag38
ag25
aa(lp2031
g24
ag46
ag787
ag69
ag65
ag20
aa(lp2032
g24
ag46
ag192
ag17
ag6
ag25
aa(lp2033
g96
ag12
ag31
ag14
ag7
ag645
aa(lp2034
g5
ag28
ag170
ag117
ag6
ag296
aa(lp2035
g56
ag137
ag303
ag6
ag698
ag17
aa(lp2036
g36
ag12
ag507
ag6
ag208
ag174
aa(lp2037
g88
ag550
ag69
ag17
ag14
ag6
aa(lp2038
g1868
ag4
ag462
ag17
ag5
ag1503
aa(lp2039
g159
ag12
ag31
ag14
ag38
ag47
aa(lp2040
g8
ag11
ag5
ag301
ag61
ag8
aa(lp2041
g56
ag240
a(Vgeofis
F0.2890453614934842
tp2042
ag28
ag36
ag226
aa(lp2043
g8
ag71
ag31
ag78
ag10
ag181
aa(lp2044
g34
ag34
ag78
ag14
ag71
ag75
aa(lp2045
g342
ag11
ag31
ag14
ag10
ag17
aa(lp2046
g66
ag12
ag31
ag14
ag38
a(Vburbuj
F0.08861981656086225
tp2047
aa(lp2048
g259
ag28
ag270
ag20
ag38
ag71
aa(lp2049
g24
ag71
ag31
ag117
ag6
ag25
aa(lp2050
g97
ag18
ag462
ag463
ag11
ag20
aa(lp2051
g8
ag12
ag108
ag73
ag61
ag8
aa(lp2052
g269
ag12
ag31
ag35
ag118
ag50
aa(lp2053
g8
ag28
ag5
ag36
ag29
ag181
aa(lp2054
g269
ag12
ag31
ag14
ag11
ag50
aa(lp2055
g34
ag12
ag163
ag36
ag5
ag75
aa(lp2056
g38
ag34
ag5
ag6
ag6
ag261
aa(lp2057
g24
ag144
ag5
ag35
ag6
ag25
aa(lp2058
g36
ag179
ag31
ag14
ag61
ag174
aa(lp2059
g56
ag137
ag69
a(Vfray
F0.22027968763043851
tp2060
a(Vmap
F0.58218249963610758
tp2061
a(Vzaragoz
F0.30331672655718112
tp2062
aa(lp2063
g8
ag243
ag12
ag14
ag6
ag181
aa(lp2064
g24
ag12
ag31
ag17
ag208
ag25
aa(lp2065
g8
ag99
ag2012
ag2013
ag118
ag56
aa(lp2066
g8
ag11
ag1067
ag96
ag10
ag8
aa(lp2067
g137
ag71
ag31
ag14
ag208
ag139
aa(lp2068
g8
ag179
ag12
ag96
ag10
ag8
aa(lp2069
g17
a(Vdescompuest
F0.088062909188953417
tp2070
a(Vgijon
F0.12132352114172193
tp2071
a(Vdecoherent
F0.36185998237250538
tp2072
ag118
ag97
aa(lp2073
g24
ag34
ag35
ag14
ag208
ag25
aa(lp2074
g8
ag12
ag108
ag69
ag61
ag8
aa(lp2075
g647
ag12
ag31
ag20
ag38
ag210
aa(lp2076
g137
ag12
ag31
ag35
ag61
ag139
aa(lp2077
g88
ag12
ag31
ag69
ag14
ag6
aa(lp2078
g1183
ag12
ag158
ag36
ag330
ag105
aa(lp2079
g38
ag78
ag31
ag22
a(Vsanguin
F0.31803512063481487
tp2080
ag923
aa(lp2081
g11
ag99
ag5
ag14
ag61
ag536
aa(lp2082
g38
ag12
ag65
ag96
ag29
ag8
aa(lp2083
g11
ag676
ag97
ag1061
ag1262
ag56
aa(lp2084
g269
ag151
ag31
ag50
ag7
ag50
aa(lp2085
g10
ag480
ag315
ag598
ag1262
ag56
aa(lp2086
g33
ag12
ag5
ag6
ag14
ag5
aa(lp2087
g201
ag28
ag31
ag14
ag55
ag104
aa(lp2088
g56
ag149
ag192
ag56
ag55
ag22
aa(lp2089
g8
ag274
ag299
ag915
ag38
ag56
aa(lp2090
g1241
ag1242
ag5
ag894
ag50
ag56
aa(lp2091
g38
ag4
ag206
ag36
ag6
ag261
aa(lp2092
g56
ag149
ag462
ag463
ag11
ag8
aa(lp2093
(Vindexacion
F0.47118181700474537
tp2094
ag149
ag199
a(Vdemostracion
F0.24003218414536695
tp2095
ag5
ag73
aa(lp2096
g56
ag149
ag168
ag78
ag65
ag22
aa(lp2097
g579
ag240
ag5
ag6
ag61
ag40
aa(lp2098
g38
ag12
ag5
ag14
ag38
ag261
aa(lp2099
g8
ag12
ag12
ag311
ag10
ag8
aa(lp2100
g10
ag480
ag5
ag264
ag6
ag29
aa(lp2101
g36
ag1592
a(Vdat
F0.36826590292049033
tp2102
ag925
a(Vnecesiteis
F0.10044154737050437
tp2103
ag144
aa(lp2104
g38
ag550
ag31
ag20
ag71
ag261
aa(lp2105
g38
ag12
ag69
ag6
ag208
ag261
aa(lp2106
g24
ag163
ag12
ag14
ag61
ag25
aa(lp2107
g3
ag12
ag69
ag14
ag36
ag8
aa(lp2108
g24
ag243
ag31
ag14
ag38
ag25
aa(lp2109
g177
ag11
ag69
ag17
ag36
ag156
aa(lp2110
g3
ag71
ag5
ag17
ag14
ag8
aa(lp2111
g8
ag71
ag10
ag17
ag61
ag8
aa(lp2112
g24
ag12
ag5
ag13
ag14
ag25
aa(lp2113
g13
ag53
ag97
ag1133
ag35
ag192
aa(lp2114
g83
ag114
ag31
ag17
ag149
ag58
aa(lp2115
g3
ag12
ag5
ag138
ag38
ag8
aa(lp2116
g466
ag13
ag5
ag35
ag11
a(Vpersonill
F0.16843797092934709
tp2117
aa(lp2118
g8
ag91
ag31
ag6
ag10
ag181
aa(lp2119
g976
ag40
ag462
ag871
ag11
ag20
aa(lp2120
g97
ag18
ag5
ag1620
ag866
ag97
aa(lp2121
g8
ag550
ag5
ag104
ag55
ag181
aa(lp2122
g66
ag11
ag5
ag14
ag6
ag2047
aa(lp2123
g56
ag137
ag168
ag35
ag669
ag212
aa(lp2124
g402
ag179
ag5
ag14
ag10
ag234
aa(lp2125
g8
ag71
ag10
ag14
ag5
ag181
aa(lp2126
g8
ag454
ag447
a(Vmimos
F0.17728176884863797
tp2127
ag44
ag20
aa(lp2128
g354
ag355
ag2102
a(Vportugal
F0.31948730084277915
tp2129
ag1030
ag73
aa(lp2130
g423
ag11
ag31
ag66
ag61
ag803
aa(lp2131
g8
ag40
ag31
ag17
ag29
ag181
aa(lp2132
g342
ag28
ag5
ag50
ag330
ag17
aa(lp2133
g38
ag78
a(Vimperial
F0.12750083147965907
tp2134
a(Vojuel
F0.16843797092934709
tp2135
ag1262
ag6
aa(lp2136
g8
ag28
ag31
ag14
ag118
ag181
aa(lp2137
g13
ag53
ag63
ag20
ag21
ag6
aa(lp2138
g24
ag170
ag5
ag14
ag61
ag25
aa(lp2139
g11
ag144
ag1437
a(Vtrujill
F0.13353832747305408
tp2140
a(Vbalsam
F0.28391858344355614
tp2141
ag382
aa(lp2142
g412
ag40
ag69
ag73
ag61
ag8
aa(lp2143
g97
ag433
ag330
ag28
ag6
ag776
aa(lp2144
g34
ag12
ag5
ag14
ag71
ag75
aa(lp2145
g38
ag40
ag31
ag14
ag61
ag261
aa(lp2146
g579
ag34
ag31
ag63
ag61
ag40
aa(lp2147
g3
ag34
ag35
ag20
ag38
ag8
aa(lp2148
g710
ag34
ag31
ag66
ag71
ag711
aa(lp2149
g91
ag71
ag5
ag14
ag61
ag765
aa(lp2150
g118
ag102
ag144
ag28
ag10
ag8
aa(lp2151
g579
ag34
ag31
ag14
ag61
ag40
aa(lp2152
g1258
ag1259
ag10
ag95
ag55
ag17
aa(lp2153
g56
ag137
ag876
ag900
ag118
ag6
aa(lp2154
g126
ag35
ag69
ag6
ag208
ag56
aa(lp2155
g8
ag1063
ag270
ag44
ag55
ag22
aa(lp2156
g24
ag46
ag164
ag598
ag1262
ag29
aa(lp2157
g50
ag11
ag5
ag14
ag61
ag92
aa(lp2158
g24
ag28
ag63
ag35
ag6
ag25
aa(lp2159
g8
ag12
ag523
ag311
ag10
ag8
aa(lp2160
g24
ag35
ag5
ag13
ag6
ag25
aa(lp2161
g17
ag12
ag5
ag44
ag61
ag442
aa(lp2162
g78
ag1024
ag47
ag48
ag124
ag8
aa(lp2163
g233
ag163
ag5
ag17
ag38
ag234
aa(lp2164
g3
ag12
ag163
ag35
ag61
ag8
aa(lp2165
g8
ag149
a(Vwally
F0.3073907864527341
tp2166
ag409
ag714
ag29
aa(lp2167
g3
ag35
ag5
ag17
ag38
ag8
aa(lp2168
g8
ag12
ag5
ag311
ag10
ag144
aa(lp2169
g38
ag12
ag31
ag35
ag118
ag261
aa(lp2170
g8
ag179
ag507
ag20
ag36
ag181
aa(lp2171
g8
ag1966
ag5
ag311
ag61
ag8
aa(lp2172
g274
ag275
ag86
ag107
ag38
ag22
aa(lp2173
g24
ag46
ag184
ag28
ag36
ag635
aa(lp2174
g8
ag274
ag2102
ag264
ag61
ag73
aa(lp2175
g77
ag28
ag5
ag17
ag38
ag20
aa(lp2176
g8
ag71
ag10
ag36
ag10
ag8
aa(lp2177
g269
ag34
ag78
ag104
ag6
ag50
aa(lp2178
g17
ag11
ag86
ag190
ag208
ag156
aa(lp2179
g36
ag12
ag31
ag14
ag71
ag174
aa(lp2180
g3
ag34
ag5
ag14
ag11
ag8
aa(lp2181
g8
ag604
a(Vbarrow
F0.11425766375581306
tp2182
ag73
ag61
ag8
aa(lp2183
g3
ag12
ag31
ag36
ag61
ag8
aa(lp2184
g104
ag105
ag106
ag107
ag61
ag406
aa(lp2185
g10
ag275
ag164
ag165
ag65
ag22
aa(lp2186
g137
ag34
ag50
ag14
ag118
ag139
aa(lp2187
g24
ag11
ag144
ag36
ag6
ag25
aa(lp2188
g97
ag433
ag206
ag885
ag594
a(Vpolluel
F0.27722348408571013
tp2189
aa(lp2190
g8
ag12
ag294
ag96
ag10
ag8
aa(lp2191
g38
ag34
ag163
ag50
ag61
ag261
aa(lp2192
g56
ag149
ag192
ag73
ag61
ag152
aa(lp2193
g38
ag28
ag10
ag17
ag38
ag261
aa(lp2194
g11
ag676
ag78
ag18
ag186
ag17
aa(lp2195
g24
ag46
ag336
ag20
ag36
ag71
aa(lp2196
g88
ag35
ag31
ag36
ag38
ag6
aa(lp2197
g56
a(Vorbit
F0.19897161829925761
tp2198
ag86
ag190
a(Vramone
F0.098583958906760943
tp2199
ag20
aa(lp2200
g8
ag12
ag294
ag73
ag10
ag8
aa(lp2201
g8
ag78
ag5
ag17
ag7
ag181
aa(lp2202
g3
ag12
ag5
ag14
ag61
ag8
aa(lp2203
g50
ag28
ag5
ag6
ag36
ag92
aa(lp2204
g8
ag198
ag10
ag745
ag48
ag156
aa(lp2205
g24
ag168
ag523
ag73
ag61
ag71
aa(lp2206
g8
ag34
ag5
ag69
ag61
ag181
aa(lp2207
g833
ag34
ag31
ag36
ag6
ag4
aa(lp2208
g259
ag46
ag5
ag17
ag61
ag71
aa(lp2209
g8
ag34
ag12
ag14
ag10
ag181
aa(lp2210
g8
ag4
ag5
ag6
ag10
ag181
aa(lp2211
g11
ag676
ag78
ag28
ag1831
ag192
aa(lp2212
g56
ag12
ag144
ag69
ag6
ag8
aa(lp2213
g163
ag4
ag5
ag69
ag44
ag20
aa(lp2214
g17
ag46
ag31
ag17
ag61
ag110
aa(lp2215
g24
ag28
ag31
ag66
ag61
ag25
aa(lp2216
g170
a(Vturin
F0.28951669688044102
tp2217
a(Vsector
F0.39332457858700659
tp2218
ag871
ag11
ag73
aa(lp2219
g3
ag12
ag480
ag20
ag6
ag8
aa(lp2220
g3
ag34
ag519
ag35
ag38
ag8
aa(lp2221
g38
ag11
ag69
ag73
ag61
ag8
aa(lp2222
g8
ag12
ag144
ag69
ag6
ag8
aa(lp2223
g38
ag4
ag163
ag14
ag10
ag261
aa(lp2224
g36
ag78
ag192
ag412
ag61
ag1142
aa(lp2225
g429
ag78
ag31
ag78
ag10
ag430
aa(lp2226
g24
ag604
ag5
ag6
ag61
ag25
aa(lp2227
g24
ag4
ag5
ag14
ag10
ag25
aa(lp2228
g8
ag46
ag97
ag43
ag44
ag47
aa(lp2229
g38
ag28
ag5
ag20
ag118
ag261
aa(lp2230
(Vcasuc
F0.13349312055512644
tp2231
ag46
ag462
ag871
ag61
ag50
aa(lp2232
g10
ag12
ag5
ag20
ag11
ag15
aa(lp2233
g50
ag34
ag10
ag14
ag38
ag92
aa(lp2234
g13
ag53
ag164
ag165
ag14
ag492
aa(lp2235
g8
ag12
ag65
ag18
ag50
ag8
aa(lp2236
g118
ag179
ag330
ag28
ag36
ag226
aa(lp2237
g11
ag12
ag5
ag210
ag61
ag8
aa(lp2238
g36
ag472
ag1589
ag371
ag141
ag226
aa(lp2239
g1402
a(Vdeidad
F0.33201423273514014
tp2240
ag1058
ag541
ag55
ag192
aa(lp2241
g78
ag46
ag2042
ag1496
ag599
ag108
aa(lp2242
g55
ag11
ag12
ag17
ag96
ag504
aa(lp2243
g3
ag34
ag5
ag14
ag36
ag8
aa(lp2244
g13
ag456
ag164
ag915
ag29
ag212
aa(lp2245
g34
ag12
ag164
ag63
ag38
ag75
aa(lp2246
g24
ag34
ag5
ag17
ag118
ag25
aa(lp2247
g34
ag12
ag31
ag14
ag118
ag75
aa(lp2248
g5
ag163
ag10
ag14
ag61
ag296
aa(lp2249
g24
ag433
ag192
ag17
ag1402
ag210
aa(lp2250
g50
ag34
ag5
ag14
ag11
ag92
aa(lp2251
g36
ag18
ag1089
ag1133
ag35
ag114
aa(lp2252
g8
ag12
ag65
ag96
ag61
ag8
aa(lp2253
g233
ag4
ag1325
ag1518
ag14
ag179
aa(lp2254
g3
ag91
ag5
ag6
ag61
ag8
aa(lp2255
g126
ag28
ag164
ag14
ag71
ag56
aa(lp2256
g17
ag12
ag63
ag35
ag61
ag442
aa(lp2257
g27
ag71
ag78
ag14
ag11
ag29
aa(lp2258
g50
ag28
ag31
ag14
ag6
ag92
aa(lp2259
g24
ag12
ag5
ag35
ag6
ag25
aa(lp2260
g118
ag198
ag10
ag95
ag199
a(Vprot
F0.11609347875411595
tp2261
aa(lp2262
g8
ag28
ag31
ag14
ag160
ag181
aa(lp2263
g758
ag35
ag5
a(Vasim
F0.1032219306340723
tp2264
ag61
ag448
aa(lp2265
g24
ag34
ag65
ag6
ag118
ag25
aa(lp2266
g923
ag13
ag330
ag1372
ag11
ag20
aa(lp2267
g380
ag168
ag1246
ag95
ag208
ag25
aa(lp2268
g24
ag639
ag31
ag6
ag11
ag25
aa(lp2269
g351
ag4
ag144
ag107
ag44
ag20
aa(lp2270
g38
ag144
ag63
ag69
ag10
ag8
aa(lp2271
g24
ag12
ag69
ag36
ag11
ag25
aa(lp2272
g694
ag12
ag5
ag17
ag61
ag17
aa(lp2273
g11
ag12
ag69
ag73
ag61
ag8
aa(lp2274
g248
ag28
ag480
ag35
ag118
ag20
aa(lp2275
g8
ag34
ag31
ag13
ag71
ag181
aa(lp2276
(Vvotar
F0.10415693789755874
tp2277
ag78
ag163
ag13
a(Vcultr
F0.14825221451648299
tp2278
ag71
aa(lp2279
g56
ag28
ag31
ag20
ag5
ag555
aa(lp2280
g56
ag12
ag294
ag96
ag10
ag8
aa(lp2281
g8
ag34
ag31
ag50
ag10
ag181
aa(lp2282
g154
ag78
ag164
ag165
ag61
ag152
aa(lp2283
g8
ag163
ag5
a(Vkmseg
F0.24430969129205951
tp2284
ag6
ag181
aa(lp2285
g38
ag4
ag272
ag35
ag6
ag261
aa(lp2286
g11
ag676
ag97
ag48
ag36
ag20
aa(lp2287
g24
ag12
ag5
ag6
ag29
ag25
aa(lp2288
g8
ag751
ag5
ag17
ag71
ag181
aa(lp2289
g11
ag12
ag31
ag73
ag61
ag8
aa(lp2290
g24
ag11
ag35
ag36
ag6
ag25
aa(lp2291
g5
ag34
ag5
ag14
ag7
ag296
aa(lp2292
g8
ag613
ag170
ag66
ag29
ag8
aa(lp2293
g579
ag34
ag5
ag35
ag38
ag40
aa(lp2294
g17
a(Vlyonnais
F0.26800211671640467
tp2295
ag5
ag6
ag118
ag110
aa(lp2296
g8
ag12
ag35
ag73
ag44
ag8
aa(lp2297
g24
ag12
ag78
ag14
ag11
ag25
aa(lp2298
g8
ag12
ag65
ag73
ag61
ag8
aa(lp2299
g28
ag28
ag31
ag69
ag61
ag373
aa(lp2300
g8
ag12
ag19
ag199
ag208
ag8
aa(lp2301
g77
ag12
ag78
ag17
ag38
ag20
aa(lp2302
g24
ag878
ag86
ag134
ag61
ag135
aa(lp2303
g8
ag12
ag31
ag20
ag38
ag181
aa(lp2304
g8
ag71
ag5
ag73
ag61
ag8
aa(lp2305
g1766
ag355
ag5
ag44
ag61
ag135
aa(lp2306
g56
ag12
ag116
ag294
ag65
ag22
aa(lp2307
g13
ag40
ag31
ag14
ag61
ag312
aa(lp2308
g412
ag2217
ag2218
ag17
ag276
ag108
aa(lp2309
g976
ag179
ag163
ag165
ag38
ag56
aa(lp2310
g8
ag12
ag65
ag96
ag29
ag8
aa(lp2311
g24
ag28
ag5
ag14
ag11
ag25
aa(lp2312
g774
ag179
ag12
ag66
ag10
ag8
aa(lp2313
g24
ag28
ag31
ag14
ag71
ag25
aa(lp2314
g13
ag355
ag163
ag264
ag6
ag17
aa(lp2315
g239
ag240
ag168
ag1247
ag6
ag22
aa(lp2316
g27
ag91
ag192
ag35
ag36
ag29
aa(lp2317
g8
ag4
ag31
ag17
ag163
ag181
aa(lp2318
g159
ag28
ag31
ag35
ag38
ag47
aa(lp2319
g11
ag179
ag78
ag1254
ag5
ag179
aa(lp2320
g3
ag28
ag5
ag28
ag36
ag8
aa(lp2321
g694
ag34
ag5
ag36
ag61
ag1376
aa(lp2322
g3
ag12
ag69
ag35
ag61
ag8
aa(lp2323
g24
ag243
ag31
ag14
ag61
ag25
aa(lp2324
g3
ag34
ag31
ag36
ag6
ag8
aa(lp2325
g13
ag12
ag31
ag14
ag118
ag312
aa(lp2326
g8
ag12
ag31
ag96
ag10
ag8
aa(lp2327
g24
ag34
ag78
ag13
ag11
ag25
aa(lp2328
g52
ag53
ag97
ag20
ag206
ag1358
aa(lp2329
g3
ag12
ag31
ag14
ag38
ag8
aa(lp2330
g3
ag12
ag31
ag17
ag11
ag8
aa(lp2331
g276
ag12
ag5
ag210
ag61
ag8
aa(lp2332
g8
ag12
ag1388
ag17
ag61
ag8
aa(lp2333
g52
ag433
ag330
ag20
ag397
ag20
aa(lp2334
g83
ag858
ag133
ag20
ag61
ag907
aa(lp2335
g8
ag12
ag144
ag69
ag6
ag837
aa(lp2336
g88
ag91
ag31
ag36
ag61
ag6
aa(lp2337
g33
ag12
ag78
ag6
ag14
ag5
aa(lp2338
g429
ag28
ag12
ag35
ag10
ag430
aa(lp2339
g8
ag370
ag10
ag73
ag61
ag1924
aa(lp2340
g8
ag71
ag10
ag36
ag61
ag8
aa(lp2341
g3
ag91
ag31
ag6
ag61
ag8
aa(lp2342
g10
ag12
ag739
ag294
ag276
ag25
aa(lp2343
g56
ag12
ag35
ag17
ag61
ag8
aa(lp2344
g13
ag11
ag5
ag6
ag10
ag312
aa(lp2345
g34
ag12
ag5
ag253
ag61
ag75
aa(lp2346
g8
ag157
ag2278
ag665
ag6
ag210
aa(lp2347
g3
ag12
ag31
ag14
ag61
ag8
aa(lp2348
g27
ag78
ag523
ag13
ag65
ag22
aa(lp2349
g8
ag40
ag69
ag17
ag61
ag8
aa(lp2350
g8
ag12
ag5
ag36
ag36
ag181
aa(lp2351
g27
ag11
ag69
ag36
ag14
ag29
aa(lp2352
g5
ag34
ag206
ag17
ag61
ag296
aa(lp2353
g8
ag71
ag163
ag20
ag107
ag8
aa(lp2354
g8
ag12
ag5
ag69
ag10
ag8
aa(lp2355
g50
ag179
ag31
ag35
ag71
ag92
aa(lp2356
g8
ag198
ag10
ag745
ag38
ag1803
aa(lp2357
g13
ag179
ag31
ag28
ag14
ag312
aa(lp2358
g77
ag179
ag154
ag14
ag29
ag20
aa(lp2359
g24
ag46
ag5
ag73
ag61
ag8
aa(lp2360
g8
ag12
ag294
ag96
ag61
ag8
aa(lp2361
g91
ag669
ag69
ag69
ag141
ag6
aa(lp2362
g24
ag34
ag386
ag20
ag199
ag25
aa(lp2363
g5
ag71
ag144
ag17
ag11
ag296
aa(lp2364
g8
ag12
ag12
ag112
ag29
ag8
aa(lp2365
g8
ag34
ag5
ag6
ag7
ag181
aa(lp2366
g137
ag91
ag31
ag36
ag11
ag139
aa(lp2367
g77
ag35
ag31
ag14
ag7
ag20
aa(lp2368
(Vazucen
F0.30743459340926749
tp2369
ag1753
a(Vbart
F0.1072626824128094
tp2370
a(Vestamp
F0.10716891233158359
tp2371
ag1872
ag179
aa(lp2372
g259
ag179
ag519
ag28
ag36
ag71
aa(lp2373
g34
ag40
ag5
ag6
ag208
ag75
aa(lp2374
g354
ag782
ag154
ag736
ag11
ag22
aa(lp2375
g8
ag1005
ag69
ag885
ag96
ag164
aa(lp2376
g8
ag12
ag5
ag69
ag6
ag837
aa(lp2377
g380
ag168
ag1246
ag1652
ag866
ag71
aa(lp2378
g3
ag34
ag5
ag14
ag118
ag8
aa(lp2379
g38
ag137
ag1375
ag56
ag19
ag29
aa(lp2380
g137
ag11
ag10
ag35
ag71
ag139
aa(lp2381
g24
ag71
ag78
ag14
ag61
ag25
aa(lp2382
g56
ag28
ag31
ag14
ag118
ag555
aa(lp2383
g105
ag66
ag84
ag1518
ag118
ag17
aa(lp2384
g269
ag28
ag5
ag14
ag38
ag50
aa(lp2385
g56
ag12
ag116
ag134
ag772
ag144
aa(lp2386
g8
ag243
ag5
ag78
ag61
ag181
aa(lp2387
g5
ag12
ag192
ag412
ag7
ag296
aa(lp2388
g50
ag71
ag10
ag815
ag36
ag92
aa(lp2389
g8
ag46
ag122
ag73
ag61
ag8
aa(lp2390
g423
ag12
ag163
ag14
ag29
ag803
aa(lp2391
g83
ag240
ag5
ag36
ag149
ag58
aa(lp2392
g3
ag179
ag31
ag20
ag11
ag8
aa(lp2393
g55
ag168
ag1246
ag1247
ag5
ag8
aa(lp2394
g24
ag34
ag35
ag17
ag208
ag25
aa(lp2395
g8
ag1414
ag5
ag1876
ag61
ag181
aa(lp2396
g8
ag12
ag65
ag112
ag10
ag8
aa(lp2397
g239
ag149
ag498
ag73
ag61
ag1924
aa(lp2398
g154
ag760
ag184
ag1069
ag6
ag210
aa(lp2399
g3
ag12
ag31
ag6
ag199
ag8
aa(lp2400
g24
ag34
ag5
ag36
ag118
ag25
aa(lp2401
g24
ag46
ag270
ag44
ag108
ag8
aa(lp2402
g38
ag46
ag761
ag14
ag11
ag261
aa(lp2403
g8
ag12
ag69
ag17
ag61
ag8
aa(lp2404
g8
ag4
ag272
ag22
ag6
ag181
aa(lp2405
g97
ag433
ag330
ag28
ag61
ag20
aa(lp2406
g151
ag35
ag78
ag36
ag36
ag307
aa(lp2407
g126
ag11
ag31
ag6
ag11
ag56
aa(lp2408
g137
ag28
ag5
ag20
ag38
ag139
aa(lp2409
g56
ag12
ag165
ag6
ag61
ag29
aa(lp2410
g24
ag4
ag163
ag17
ag61
ag25
aa(lp2411
g1899
ag144
ag491
ag6
ag6
ag152
aa(lp2412
g38
a(Vazote
F0.11601207220026326
tp2413
ag97
ag208
ag671
ag205
aa(lp2414
g8
ag34
ag69
ag35
ag36
ag181
aa(lp2415
g8
ag12
ag5
ag73
ag61
ag181
aa(lp2416
g3
ag28
ag5
ag14
ag14
ag8
aa(lp2417
g3
ag28
ag31
ag20
ag997
ag8
aa(lp2418
g24
ag12
ag31
ag36
ag208
ag25
aa(lp2419
g77
ag28
ag105
ag50
ag61
ag20
aa(lp2420
g163
ag18
ag10
a(Vdiox
F0.1109211504688925
tp2421
ag124
ag8
aa(lp2422
g56
ag94
ag10
ag107
ag14
ag166
aa(lp2423
g56
ag205
ag423
ag564
ag61
ag144
aa(lp2424
g239
ag12
ag1296
ag1590
ag5
a(Vrecoleccion
F0.13734262400970068
tp2425
aa(lp2426
g3
ag28
ag97
ag14
ag6
ag8
aa(lp2427
g8
ag34
ag5
ag35
ag36
ag181
aa(lp2428
g8
ag12
ag5
ag66
ag67
ag8
aa(lp2429
g3
ag179
ag5
ag14
ag997
ag8
aa(lp2430
g55
ag149
ag192
ag56
ag7
a(Vapurimac
F0.093557485783386379
tp2431
aa(lp2432
g8
ag28
ag144
ag14
ag71
ag181
aa(lp2433
g833
ag34
ag5
ag17
ag6
ag4
aa(lp2434
g923
ag13
ag330
ag13
ag1939
ag20
aa(lp2435
g259
ag550
ag31
ag36
ag6
ag71
aa(lp2436
g8
ag71
ag35
ag73
ag61
ag8
aa(lp2437
g8
ag893
ag12
ag69
ag6
ag8
aa(lp2438
g8
ag163
ag31
ag36
ag118
ag181
aa(lp2439
g1868
ag4
ag462
ag17
ag61
a(Vdesembols
F0.10581167963442498
tp2440
aa(lp2441
g8
ag91
ag31
ag14
ag118
ag181
aa(lp2442
g34
ag34
ag163
ag6
ag199
ag75
aa(lp2443
g342
ag34
ag5
ag20
ag38
ag17
aa(lp2444
g50
ag13
ag5
ag78
ag208
ag92
aa(lp2445
g50
ag12
ag5
ag36
ag11
ag92
aa(lp2446
g8
ag1414
ag5
ag14
ag61
ag181
aa(lp2447
g118
ag34
ag5
ag14
ag5
ag1338
aa(lp2448
g8
ag78
a(Varrazol
F0.22027968763043851
tp2449
a(Vangiosperm
F0.088062909188953417
tp2450
ag163
ag142
aa(lp2451
g314
ag46
ag97
ag43
ag44
ag210
aa(lp2452
g3
ag34
ag5
ag35
ag38
ag8
aa(lp2453
g923
ag157
ag2278
ag484
ag179
ag25
aa(lp2454
g1166
ag28
ag5
ag36
ag6
ag118
aa(lp2455
g170
ag13
ag695
ag73
ag61
ag424
aa(lp2456
g259
ag35
ag163
ag14
ag61
ag71
aa(lp2457
g8
ag12
ag10
ag36
ag67
ag8
aa(lp2458
g24
ag494
ag5
ag17
ag38
ag25
aa(lp2459
g3
ag28
ag35
ag20
ag14
ag8
aa(lp2460
g8
ag114
ag86
ag208
ag6
ag8
aa(lp2461
g259
ag11
ag5
ag6
ag36
ag71
aa(lp2462
g11
ag676
ag10
ag371
ag49
ag50
aa(lp2463
g137
ag11
ag5
ag17
ag330
ag139
aa(lp2464
g154
ag1455
ag163
ag28
ag1831
ag2425
aa(lp2465
g24
ag179
ag154
ag17
ag11
ag25
aa(lp2466
g423
ag1414
ag31
ag20
ag10
ag803
aa(lp2467
g1596
a(Vendorr
F0.15084229320012793
tp2468
ag270
ag36
ag2278
ag17
aa(lp2469
g34
ag12
ag31
ag6
ag38
ag75
aa(lp2470
g380
ag168
ag206
ag381
ag191
ag17
aa(lp2471
g38
ag144
ag29
ag330
ag10
ag8
aa(lp2472
g8
ag28
ag5
ag50
ag71
ag181
aa(lp2473
g24
ag12
ag12
ag17
ag208
ag25
aa(lp2474
g137
ag11
ag5
ag17
ag61
ag139
aa(lp2475
g11
ag12
ag5
ag134
ag61
ag8
aa(lp2476
g8
ag12
ag65
ag96
ag10
ag8
aa(lp2477
g3
ag1455
ag31
ag36
ag29
ag8
aa(lp2478
g56
ag28
ag35
ag36
ag29
ag555
aa(lp2479
g8
ag46
ag500
ag501
ag770
ag20
aa(lp2480
g55
ag12
ag31
ag35
ag38
ag504
aa(lp2481
g3
ag243
ag31
ag14
ag10
ag8
aa(lp2482
g104
ag480
ag947
a(Vhusm
F0.16917106999352127
tp2483
ag356
ag8
aa(lp2484
g38
ag71
ag330
ag14
ag29
ag261
aa(lp2485
g201
ag11
ag31
ag36
ag38
ag104
aa(lp2486
g36
ag472
ag354
ag73
ag61
ag234
aa(lp2487
g3
ag40
ag164
ag28
ag38
ag8
aa(lp2488
g24
ag12
ag5
ag69
ag11
ag25
aa(lp2489
g3
ag12
ag78
ag20
ag208
ag8
aa(lp2490
g24
ag12
ag31
ag17
ag61
ag25
aa(lp2491
g163
ag1455
ag1166
ag484
ag377
a(Vrecurri
F0.10581167963442498
tp2492
aa(lp2493
g239
ag240
ag621
ag371
ag124
ag29
aa(lp2494
g8
ag28
ag31
ag17
ag71
ag181
aa(lp2495
g8
ag40
ag69
ag96
ag10
ag8
aa(lp2496
g83
ag270
ag44
ag405
ag815
ag5
aa(lp2497
g8
ag12
ag29
ag330
ag6
ag8
aa(lp2498
g24
ag71
ag31
ag17
ag96
ag25
aa(lp2499
g55
ag18
ag19
ag6
ag96
ag172
aa(lp2500
g8
ag28
ag5
ag35
ag10
ag181
aa(lp2501
g8
ag12
ag31
ag1683
ag61
ag8
aa(lp2502
g38
ag12
ag5
ag20
ag14
ag261
aa(lp2503
g8
ag71
ag1044
ag96
ag61
ag17
aa(lp2504
g3
ag697
ag5
ag14
ag38
ag8
aa(lp2505
g647
ag12
ag31
ag14
ag38
ag210
aa(lp2506
g8
ag114
ag69
ag73
ag10
ag8
aa(lp2507
g8
ag114
ag5
ag14
ag38
ag181
aa(lp2508
g248
ag34
ag12
ag35
ag7
ag20
aa(lp2509
g3
ag12
ag5
ag6
ag36
ag8
aa(lp2510
g8
ag34
ag52
ag6
ag6
ag181
aa(lp2511
g1658
ag149
ag192
ag73
ag61
ag164
aa(lp2512
g170
ag697
ag199
ag463
ag118
ag56
aa(lp2513
g3
ag12
ag31
ag117
ag118
ag8
aa(lp2514
g5
ag71
ag10
ag17
ag38
ag296
aa(lp2515
g24
ag12
ag5
ag14
ag671
ag25
aa(lp2516
g8
ag18
ag19
ag20
ag36
ag8
aa(lp2517
g3
ag34
ag31
ag6
ag38
ag8
aa(lp2518
g8
ag71
ag12
ag321
ag10
ag8
aa(lp2519
g24
ag28
ag5
ag69
ag61
ag25
aa(lp2520
g27
ag28
ag5
ag6
ag38
ag29
aa(lp2521
g52
ag53
ag63
ag20
ag21
ag6
aa(lp2522
g38
ag34
ag35
ag36
ag6
ag261
aa(lp2523
g24
ag46
ag336
ag20
ag71
ag20
aa(lp2524
g24
ag12
ag5
ag35
ag10
ag25
aa(lp2525
g8
ag604
ag2449
ag2450
ag163
ag142
aa(lp2526
g923
ag13
ag330
ag43
ag419
ag5
aa(lp2527
g24
ag46
ag31
ag6
ag55
ag25
aa(lp2528
g8
ag78
ag206
ag14
ag61
ag181
aa(lp2529
g8
ag12
ag69
ag294
ag6
ag5
aa(lp2530
g11
ag137
ag44
ag69
ag151
ag406
aa(lp2531
g50
ag40
ag154
ag17
ag208
ag92
aa(lp2532
g354
ag12
ag69
ag146
a(Vsumider
F0.16218314043103702
tp2533
ag1376
aa(lp2534
g38
ag179
ag29
ag28
ag29
ag8
aa(lp2535
g17
ag12
ag65
ag112
ag61
ag20
aa(lp2536
g52
ag137
ag1451
ag146
ag2533
ag20
aa(lp2537
g24
ag205
ag164
ag412
ag118
ag25
aa(lp2538
g17
ag40
ag12
ag311
ag10
ag8
aa(lp2539
g137
ag550
ag10
ag14
ag55
ag139
aa(lp2540
(Veudox
F0.10927609026205418
tp2541
ag78
ag1375
ag56
ag61
ag71
aa(lp2542
(Vdichos
F0.19205366198012841
tp2543
ag1242
ag5
ag2264
ag61
ag448
aa(lp2544
g38
ag34
ag5
ag14
ag5
ag261
aa(lp2545
g36
ag12
ag31
ag14
ag36
ag174
aa(lp2546
g8
ag114
ag35
ag73
ag61
ag8
aa(lp2547
g259
ag12
ag5
ag6
ag36
ag71
aa(lp2548
g170
ag240
ag1437
ag56
a(Vbuey
F0.12754490697854631
tp2549
ag482
aa(lp2550
g8
ag12
ag144
ag6
ag7
ag181
aa(lp2551
g33
ag35
ag5
ag14
ag199
ag5
aa(lp2552
g8
ag12
ag732
ag311
ag10
ag8
aa(lp2553
g83
a(Vconsist
F0.19514507452629146
tp2554
ag206
ag146
ag2533
ag20
aa(lp2555
g10
ag1455
ag1166
ag69
ag36
ag1028
aa(lp2556
g38
ag78
ag519
ag6
ag36
ag261
aa(lp2557
g24
ag179
ag670
ag959
ag208
ag5
aa(lp2558
g8
ag274
ag5
ag73
ag61
ag152
aa(lp2559
g36
ag35
ag31
ag14
ag36
ag174
aa(lp2560
g3
ag40
ag31
ag14
ag38
ag8
aa(lp2561
g3
ag4
ag31
ag36
ag29
ag8
aa(lp2562
g8
ag454
ag787
ag69
ag49
ag97
aa(lp2563
g8
ag12
ag35
ag1643
ag71
ag8
aa(lp2564
g24
ag46
ag2042
ag1496
ag191
ag192
aa(lp2565
g170
ag669
ag69
ag294
ag19
ag97
aa(lp2566
g579
ag243
ag31
ag73
ag11
ag40
aa(lp2567
g34
ag170
ag31
ag35
ag6
ag75
aa(lp2568
g163
ag78
ag900
ag89
ag5
ag73
aa(lp2569
g3
ag12
ag31
ag36
ag6
ag8
aa(lp2570
g201
ag40
ag31
ag50
ag6
ag104
aa(lp2571
g269
ag34
ag50
ag36
ag36
ag50
aa(lp2572
g24
ag71
ag78
ag6
ag38
ag25
aa(lp2573
g34
ag12
ag5
ag14
ag38
ag75
aa(lp2574
g423
ag34
ag31
ag35
ag38
ag803
aa(lp2575
g118
ag170
ag69
a(Ventorn
F0.090641799956336755
tp2576
ag11
a(Vbatimetri
F0.22512435304767225
tp2577
aa(lp2578
g50
ag91
ag31
ag6
ag14
ag92
aa(lp2579
(Vmacei
F0.17352144614388523
tp2580
ag1561
ag206
ag439
ag5
ag179
aa(lp2581
g38
ag4
ag163
ag36
ag208
ag261
aa(lp2582
g24
ag28
ag31
ag6
ag6
ag25
aa(lp2583
g389
ag149
ag192
ag390
ag14
ag494
aa(lp2584
g342
ag28
ag5
ag6
ag61
ag17
aa(lp2585
g118
ag755
ag86
ag78
ag38
ag1498
aa(lp2586
g24
ag179
ag5
ag14
ag61
ag25
aa(lp2587
g24
ag4
ag12
ag69
ag5
ag25
aa(lp2588
g3
ag78
ag31
ag28
ag11
ag8
aa(lp2589
g24
ag34
ag105
ag50
ag61
ag25
aa(lp2590
g24
ag34
ag5
ag6
ag38
ag25
aa(lp2591
g3
ag11
ag31
ag20
ag71
ag8
aa(lp2592
g97
ag35
a(Vvertient
F0.0944888369099708
tp2593
ag2450
ag5
ag73
aa(lp2594
g8
ag28
ag31
ag13
ag36
ag181
aa(lp2595
g34
ag12
ag163
ag6
ag38
ag75
aa(lp2596
g8
ag71
ag10
ag96
ag29
ag8
aa(lp2597
g96
ag4
ag31
ag6
ag6
ag645
aa(lp2598
g88
ag12
ag761
ag14
ag7
ag6
aa(lp2599
g8
ag34
ag31
ag36
ag14
ag181
aa(lp2600
g758
ag35
ag29
a(Vambit
F0.15710228040996685
tp2601
ag485
ag20
aa(lp2602
g8
ag12
ag732
ag69
ag6
ag8
aa(lp2603
g56
ag12
ag35
ag294
ag61
ag8
aa(lp2604
g36
ag12
ag5
ag17
ag61
ag174
aa(lp2605
g8
ag170
ag206
ag36
ag10
ag181
aa(lp2606
g8
ag179
ag294
ag96
ag6
ag29
aa(lp2607
g8
ag12
ag65
ag69
ag7
ag210
aa(lp2608
g24
ag151
ag31
ag14
ag208
ag25
aa(lp2609
g10
ag28
ag31
ag35
ag61
ag15
aa(lp2610
g8
ag163
ag31
ag17
ag118
ag181
aa(lp2611
g13
ag12
ag5
ag6
ag118
ag312
aa(lp2612
g36
ag240
ag523
ag13
ag1347
ag482
aa(lp2613
g83
ag2554
a(Vchancl
F0.24183078077113668
tp2614
ag44
ag108
ag8
aa(lp2615
g2541
ag12
ag1181
ag112
ag6
ag164
aa(lp2616
g24
ag28
ag31
ag14
ag11
ag25
aa(lp2617
g88
ag12
ag31
ag17
ag61
ag6
aa(lp2618
g2094
ag66
ag10
ag95
ag477
ag17
aa(lp2619
g248
ag28
ag31
ag35
ag61
ag20
aa(lp2620
g11
ag205
ag154
ag73
ag61
ag1924
aa(lp2621
g5
ag163
ag519
ag28
ag61
ag296
aa(lp2622
g5
ag46
ag144
ag17
ag6
ag296
aa(lp2623
g8
ag454
a(Vcentimetr
F0.26350870821352124
tp2624
ag1350
ag61
ag152
aa(lp2625
g3
ag4
ag5
ag14
ag61
ag8
aa(lp2626
g34
ag40
ag31
ag6
ag208
ag75
aa(lp2627
g314
ag28
ag69
ag56
ag7
ag2431
aa(lp2628
g154
ag4
ag31
ag311
ag10
ag8
aa(lp2629
g38
ag11
ag31
ag6
ag71
ag261
aa(lp2630
g83
ag1753
ag1188
ag69
ag6
ag71
aa(lp2631
g50
ag11
ag50
ag6
ag38
ag92
aa(lp2632
g269
ag28
ag270
ag35
ag6
ag50
aa(lp2633
g10
ag243
ag5
ag14
ag10
ag15
aa(lp2634
g694
ag12
ag168
ag35
ag65
ag73
aa(lp2635
g189
ag1242
ag29
ag424
ag71
ag55
aa(lp2636
g88
ag12
ag69
ag17
ag36
ag6
aa(lp2637
g11
ag12
ag35
ag13
ag107
ag8
aa(lp2638
g8
ag114
ag69
ag36
ag10
ag8
aa(lp2639
g8
ag480
ag315
ag73
ag11
ag907
aa(lp2640
g423
ag91
ag31
ag6
ag38
ag803
aa(lp2641
g56
ag40
ag69
ag17
ag10
ag8
aa(lp2642
g34
ag12
ag31
ag35
ag36
ag75
aa(lp2643
g24
ag28
ag163
ag14
ag61
ag25
aa(lp2644
g88
ag12
ag206
ag14
ag7
ag6
aa(lp2645
g8
ag28
ag31
ag14
ag6
ag181
aa(lp2646
g159
ag12
ag31
ag17
ag38
ag47
aa(lp2647
g118
ag1199
a(Vsalford
F0.19040882422270794
tp2648
ag107
ag2061
ag17
aa(lp2649
g77
ag34
ag5
ag6
ag10
ag20
aa(lp2650
g38
ag11
ag10
ag6
ag38
ag261
aa(lp2651
g8
ag170
ag5
ag14
ag10
ag181
aa(lp2652
g8
ag114
ag69
ag17
ag61
ag20
aa(lp2653
g24
ag71
ag31
ag36
ag36
ag25
aa(lp2654
g8
ag34
ag31
ag14
ag163
ag181
aa(lp2655
g56
ag137
ag787
ag73
ag61
ag25
aa(lp2656
g259
ag28
ag31
ag36
ag6
ag71
aa(lp2657
g88
ag12
ag5
ag6
ag10
ag6
aa(lp2658
g402
ag11
ag35
ag14
ag6
ag234
aa(lp2659
g24
ag170
ag5
ag35
ag6
ag25
aa(lp2660
g27
ag28
ag5
ag17
ag29
ag29
aa(lp2661
g432
ag433
ag330
ag28
ag772
ag164
aa(lp2662
g3
ag78
ag5
ag36
ag10
ag8
aa(lp2663
g56
ag149
ag192
ag56
ag163
ag8
aa(lp2664
g8
ag11
ag5
ag36
ag163
ag181
aa(lp2665
(Vesteb
F0.27177938083488445
tp2666
ag78
ag498
ag571
ag179
ag1159
aa(lp2667
g3
ag12
ag423
ag6
ag118
ag8
aa(lp2668
g8
ag270
ag31
ag73
ag61
ag8
aa(lp2669
g50
ag12
ag5
ag35
ag208
ag92
aa(lp2670
g163
ag1259
ag29
ag123
ag11
ag119
aa(lp2671
g694
ag12
ag423
a(Vcroat
F0.18052431838931765
tp2672
ag11
ag20
aa(lp2673
g27
ag4
ag31
ag14
ag61
ag29
aa(lp2674
g24
ag243
ag52
ag36
ag38
ag25
aa(lp2675
g52
ag275
ag158
ag36
ag29
ag776
aa(lp2676
g8
ag12
ag65
ag311
ag10
ag8
aa(lp2677
g88
ag34
ag5
ag17
ag36
ag6
aa(lp2678
g33
ag34
ag31
ag36
ag61
ag5
aa(lp2679
(Vguarnicion
F0.10895196684010938
tp2680
ag239
ag78
ag18
ag815
ag192
aa(lp2681
g8
ag53
ag97
ag36
ag1141
ag1142
aa(lp2682
g8
a(Vplanch
F0.1935126477771259
tp2683
ag1058
ag69
ag141
ag8
aa(lp2684
g8
ag12
ag144
ag69
ag671
ag205
aa(lp2685
g40
ag177
ag154
ag736
ag6
ag872
aa(lp2686
g24
ag170
ag5
ag17
ag6
ag25
aa(lp2687
g118
ag396
ag397
ag73
ag61
ag152
aa(lp2688
g56
ag233
ag5
ag96
ag10
ag8
aa(lp2689
g24
ag34
ag31
ag17
ag61
ag25
aa(lp2690
g24
ag12
ag5
ag17
ag10
ag25
aa(lp2691
g8
a(Vdesventaj
F0.14137076742487426
tp2692
ag787
ag69
ag5
ag20
aa(lp2693
g10
ag480
ag330
ag463
ag118
ag20
aa(lp2694
g50
ag34
ag5
ag69
ag61
ag92
aa(lp2695
g389
ag550
ag330
ag56
ag19
ag981
aa(lp2696
g36
ag240
ag168
ag311
ag599
ag108
aa(lp2697
g163
ag46
ag1181
ag56
ag7
ag2431
aa(lp2698
g3
ag4
ag163
ag35
ag71
ag8
aa(lp2699
g5
ag71
ag31
ag35
ag61
ag296
aa(lp2700
g3
ag4
ag78
ag17
ag11
ag8
aa(lp2701
g8
ag12
ag10
ag96
ag10
ag8
aa(lp2702
g8
ag480
ag315
ag73
ag11
ag8
aa(lp2703
g8
ag11
ag5
ag14
ag118
ag181
aa(lp2704
g33
ag240
ag5
ag35
ag11
ag5
aa(lp2705
g8
ag12
ag65
ag330
ag44
ag8
aa(lp2706
g83
ag12
ag19
ag20
ag206
ag1358
aa(lp2707
g3
ag34
ag206
ag20
ag10
ag8
aa(lp2708
g34
ag40
ag31
ag20
ag10
ag75
aa(lp2709
g151
ag35
ag5
ag283
ag36
ag307
aa(lp2710
g1658
ag755
ag330
ag160
ag419
ag55
aa(lp2711
g8
ag179
ag5
ag13
ag11
ag181
aa(lp2712
g3
ag40
ag69
ag35
ag118
ag8
aa(lp2713
g118
ag144
ag338
ag160
ag419
ag210
aa(lp2714
g5
ag28
ag78
ag17
ag71
ag296
aa(lp2715
g8
ag639
ag163
ag20
ag10
ag8
aa(lp2716
g154
ag760
ag761
ag412
ag124
ag8
aa(lp2717
g163
ag78
ag1525
ag35
ag498
ag8
aa(lp2718
g342
ag1455
ag31
ag36
ag10
ag17
aa(lp2719
g8
ag12
ag65
ag243
ag11
ag8
aa(lp2720
g24
ag12
ag31
ag63
ag61
ag25
aa(lp2721
g52
ag78
ag523
ag13
ag1939
ag47
aa(lp2722
g38
ag34
ag31
ag17
ag38
ag261
aa(lp2723
g105
ag319
ag540
ag117
ag5
ag20
aa(lp2724
g259
ag12
ag5
ag20
ag38
ag71
aa(lp2725
g38
ag28
ag31
ag36
ag11
ag261
aa(lp2726
g17
ag12
ag65
ag112
ag61
ag8
aa(lp2727
g24
ag12
ag5
ag210
ag61
ag8
aa(lp2728
g314
ag28
ag2166
ag1656
ag397
ag20
aa(lp2729
g697
a(Varbelo
F0.17148957448909649
tp2730
ag31
ag36
ag382
ag383
aa(lp2731
g8
ag454
ag423
ag645
ag1501
ag20
aa(lp2732
g8
ag782
ag5
ag208
ag71
ag181
aa(lp2733
g412
ag46
ag5
ag6
ag61
ag413
aa(lp2734
g34
ag205
ag1451
ag457
ag1630
ag8
aa(lp2735
g38
ag12
ag330
ag17
ag29
ag261
aa(lp2736
g8
ag494
ag31
ag17
ag61
ag181
aa(lp2737
g5
ag12
ag5
ag36
ag6
ag296
aa(lp2738
g24
ag46
ag97
ag43
ag44
ag20
aa(lp2739
g10
ag1374
ag5
ag311
ag6
ag8
aa(lp2740
g233
ag46
ag5
ag14
ag38
ag234
aa(lp2741
g5
ag34
ag5
ag6
ag38
ag296
aa(lp2742
g154
ag4
ag10
ag36
ag44
ag8
aa(lp2743
g259
ag12
ag31
ag17
ag6
ag71
aa(lp2744
g8
ag144
ag78
ag36
ag36
ag181
aa(lp2745
g63
ag205
ag65
ag845
ag29
ag210
aa(lp2746
g24
ag137
ag5
ag14
ag671
ag25
aa(lp2747
g27
ag71
ag31
ag20
ag38
ag29
aa(lp2748
g154
ag1753
ag330
a(Vhitzfeld
F0.12654165634936118
tp2749
ag377
ag73
aa(lp2750
g2369
ag99
ag462
ag78
ag2533
ag1376
aa(lp2751
g24
ag34
ag31
ag20
ag61
ag25
aa(lp2752
g88
ag28
ag12
ag35
ag5
ag6
aa(lp2753
g8
ag12
ag5
ag6
ag29
ag8
aa(lp2754
g170
ag171
ag168
ag73
ag61
ag1924
aa(lp2755
g259
ag12
ag163
ag36
ag61
ag71
aa(lp2756
g56
ag149
ag192
ag43
ag6
ag210
aa(lp2757
g412
ag275
ag86
ag107
ag38
ag105
aa(lp2758
g17
a(Vfloj
F0.23303632023332849
tp2759
ag97
ag43
ag5
ag73
aa(lp2760
g50
ag11
ag5
ag14
ag208
ag92
aa(lp2761
g38
ag34
ag31
ag6
ag61
ag261
aa(lp2762
g774
ag639
a(Vsquar
F0.16503724343637699
tp2763
ag6
ag55
ag504
aa(lp2764
g5
ag12
ag12
ag14
ag61
ag296
aa(lp2765
g8
ag99
ag497
ag216
ag36
ag1028
aa(lp2766
g5
ag12
ag519
ag6
ag38
ag296
aa(lp2767
g38
ag12
ag5
ag17
ag118
ag261
aa(lp2768
g36
ag40
ag31
ag13
ag38
ag174
aa(lp2769
g8
ag71
ag5
ag117
ag118
ag181
aa(lp2770
g56
ag78
ag932
ag933
ag815
ag20
aa(lp2771
g55
ag12
ag163
ag35
ag480
ag504
aa(lp2772
g24
ag12
ag519
ag17
ag61
ag25
aa(lp2773
g8
ag12
ag29
ag330
ag10
ag8
aa(lp2774
g50
ag243
ag31
ag6
ag61
ag92
aa(lp2775
g126
ag11
ag5
ag6
ag11
ag56
aa(lp2776
g3
ag11
ag31
ag14
ag96
ag8
aa(lp2777
g38
ag34
ag5
ag17
ag61
ag261
aa(lp2778
g13
ag179
ag31
ag14
ag38
ag312
aa(lp2779
g8
ag34
ag31
ag14
ag71
ag181
aa(lp2780
g239
ag240
ag1157
ag382
ag208
ag20
aa(lp2781
g78
ag46
ag44
ag564
ag65
ag29
aa(lp2782
g1018
ag163
ag330
ag28
ag1831
ag192
aa(lp2783
g50
ag28
ag5
ag17
ag61
ag92
aa(lp2784
g239
ag168
ag1246
ag185
ag397
ag20
aa(lp2785
g259
ag34
ag78
ag66
ag11
ag71
aa(lp2786
g36
ag1592
ag69
ag294
ag698
ag17
aa(lp2787
g27
ag28
ag270
ag20
ag38
ag29
aa(lp2788
g259
ag12
ag5
ag17
ag35
ag71
aa(lp2789
g17
ag12
ag35
ag264
ag71
ag8
aa(lp2790
(Vmicr
F0.085588031801262399
tp2791
ag12
ag116
ag117
ag257
ag192
aa(lp2792
g13
ag34
ag31
ag104
ag10
ag312
aa(lp2793
g55
ag1830
ag78
ag36
ag44
ag20
aa(lp2794
g8
ag1966
ag5
ag311
ag10
ag8
aa(lp2795
g34
ag12
ag5
ag17
ag38
ag75
aa(lp2796
g3
ag11
ag12
ag20
ag61
ag8
aa(lp2797
g97
ag4
ag330
ag28
ag1831
ag192
aa(lp2798
g5
ag28
ag31
ag28
ag36
ag296
aa(lp2799
g976
ag168
ag328
a(Vdejem
F0.08683844161774941
tp2800
ag69
ag29
aa(lp2801
g8
ag179
ag386
ag1306
ag477
ag6
aa(lp2802
g38
ag12
ag144
ag36
ag38
ag261
aa(lp2803
g8
ag71
ag144
ag69
ag6
ag17
aa(lp2804
g8
ag12
ag1388
ag36
ag10
ag8
aa(lp2805
g8
ag12
ag65
ag210
ag10
ag8
aa(lp2806
g8
ag12
ag5
ag210
ag44
ag8
aa(lp2807
g24
ag243
ag52
ag69
ag38
ag25
aa(lp2808
g88
ag40
ag50
ag14
ag118
ag6
aa(lp2809
g269
ag13
ag5
ag14
ag6
ag50
aa(lp2810
(Vcoulombi
F0.12923171546205539
tp2811
ag170
ag69
ag424
ag65
ag22
aa(lp2812
g17
ag355
ag5
ag243
ag10
ag8
aa(lp2813
g24
ag34
a(Vcantor
F0.32974611697254907
tp2814
ag14
ag6
ag25
aa(lp2815
g24
ag12
ag5
ag66
ag118
ag25
aa(lp2816
g163
ag171
ag163
ag264
ag6
ag923
aa(lp2817
g34
ag40
ag63
ag6
ag6
ag75
aa(lp2818
g269
ag35
ag31
ag20
ag29
ag50
aa(lp2819
g126
ag28
ag5
ag14
ag11
ag56
aa(lp2820
g24
ag243
ag69
ag36
ag38
ag25
aa(lp2821
g1275
ag28
ag5
ag36
ag38
ag311
aa(lp2822
g56
ag137
ag164
ag165
ag61
ag448
aa(lp2823
g269
ag78
ag5
ag36
ag11
ag50
aa(lp2824
g24
ag34
ag5
ag14
ag11
ag25
aa(lp2825
g88
ag12
ag86
ag14
ag118
ag6
aa(lp2826
g56
ag149
ag1024
ag476
ag55
ag8
aa(lp2827
g78
ag46
ag500
ag501
ag14
ag22
aa(lp2828
g13
ag12
ag5
ag36
ag163
ag312
aa(lp2829
g333
ag28
ag31
ag6
ag11
ag334
aa(lp2830
g8
ag12
ag65
ag267
ag71
ag8
aa(lp2831
g8
ag12
ag31
ag14
ag11
ag181
aa(lp2832
g24
ag46
ag621
ag123
ag11
ag237
aa(lp2833
g8
ag12
ag65
ag96
ag10
ag17
aa(lp2834
g38
ag11
ag31
ag36
ag71
ag261
aa(lp2835
g274
ag157
ag2278
ag35
ag498
ag50
aa(lp2836
g96
ag11
ag31
ag17
ag29
ag645
aa(lp2837
g38
ag40
ag12
ag14
ag6
ag261
aa(lp2838
g11
ag4
ag507
ag6
ag38
ag536
aa(lp2839
g2541
ag78
ag1375
ag56
ag55
ag22
aa(lp2840
g8
ag12
ag12
ag66
ag61
ag8
aa(lp2841
g34
ag11
ag5
ag6
ag10
ag75
aa(lp2842
g24
ag12
ag163
ag14
ag11
ag25
aa(lp2843
g83
ag919
ag5
ag920
ag29
ag156
aa(lp2844
g8
ag12
ag78
ag14
ag38
ag181
aa(lp2845
g38
ag144
ag29
ag96
ag10
ag8
aa(lp2846
g34
ag34
ag31
ag6
ag38
ag75
aa(lp2847
g33
ag34
ag5
ag20
ag10
ag5
aa(lp2848
g269
ag34
ag31
ag6
ag11
ag50
aa(lp2849
g96
ag12
ag31
ag138
ag38
ag645
aa(lp2850
g8
ag78
ag5
ag311
ag71
ag181
aa(lp2851
g17
ag46
ag5
ag28
ag118
ag110
aa(lp2852
g8
ag4
ag31
ag6
ag7
ag181
aa(lp2853
g3
ag28
ag12
ag14
ag10
ag8
aa(lp2854
g8
ag243
ag31
ag69
ag36
ag181
aa(lp2855
g3
ag35
ag31
ag20
ag11
ag8
aa(lp2856
g467
ag4
ag462
ag78
ag38
ag1832
aa(lp2857
g8
ag13
ag63
ag78
ag5
ag181
aa(lp2858
g27
ag12
ag69
ag14
ag38
ag29
aa(lp2859
g8
ag12
ag294
ag96
ag29
ag8
aa(lp2860
g151
ag28
ag78
ag6
ag36
ag307
aa(lp2861
g8
ag1374
ag354
ag371
ag124
ag8
aa(lp2862
g38
ag34
ag5
ag36
ag29
ag261
aa(lp2863
g34
ag12
ag386
ag36
ag11
ag75
aa(lp2864
g137
ag12
ag78
ag20
ag14
ag139
aa(lp2865
g3
ag12
ag5
ag28
ag208
ag8
aa(lp2866
(Venfermed
F0.28492492097655137
tp2867
ag88
a(Vdiput
F0.25863691918411669
tp2868
ag6
ag61
ag6
aa(lp2869
g50
ag12
ag206
ag6
ag10
ag92
aa(lp2870
g8
ag71
ag294
ag96
ag10
ag8
aa(lp2871
g38
ag11
ag31
ag17
ag35
ag261
aa(lp2872
g27
ag11
ag31
ag17
ag6
ag29
aa(lp2873
g3
ag71
ag44
ag14
ag38
ag8
aa(lp2874
g11
ag137
ag497
ag35
ag267
ag108
aa(lp2875
g118
ag11
a(Vremot
F0.084828252401853335
tp2876
ag885
ag599
ag108
aa(lp2877
g5
ag11
ag31
ag36
ag36
ag296
aa(lp2878
g774
ag12
ag330
ag18
ag257
ag6
aa(lp2879
g50
ag12
ag31
ag14
ag5
ag92
aa(lp2880
g36
ag91
ag5
ag50
ag38
ag174
aa(lp2881
g50
ag91
ag78
ag6
ag14
ag92
aa(lp2882
g8
ag78
ag31
ag35
ag7
ag181
aa(lp2883
g24
ag34
ag69
ag17
ag10
ag25
aa(lp2884
g8
ag114
ag144
ag69
ag61
ag8
aa(lp2885
g97
ag18
ag1089
ag55
ag6
ag71
aa(lp2886
g3
ag2295
ag5
ag20
ag10
ag8
aa(lp2887
g36
ag355
ag5
ag2483
ag206
ag29
aa(lp2888
g269
ag11
ag31
ag14
ag11
ag50
aa(lp2889
g5
ag12
ag12
ag13
ag38
ag296
aa(lp2890
g3
ag78
ag5
ag6
ag14
ag8
aa(lp2891
g24
ag78
ag10
ag14
ag29
ag25
aa(lp2892
g55
ag71
ag31
ag63
ag61
ag504
aa(lp2893
g5
ag11
ag31
ag35
ag11
ag296
aa(lp2894
g8
ag12
ag65
ag73
ag6
ag8
aa(lp2895
g13
ag1374
ag168
ag457
ag35
ag1832
aa(lp2896
g126
ag71
ag31
ag69
ag208
ag56
aa(lp2897
g3
ag46
ag5
ag14
ag11
ag8
aa(lp2898
g55
ag78
ag1375
ag56
ag19
ag226
aa(lp2899
g34
ag34
ag5
ag35
ag38
ag75
aa(lp2900
g259
ag12
ag5
ag815
ag36
ag71
aa(lp2901
g10
ag480
ag315
ag206
ag44
ag20
aa(lp2902
g24
ag34
ag35
ag14
ag11
ag25
aa(lp2903
g8
ag240
ag168
ag457
ag206
ag226
aa(lp2904
g8
ag40
ag69
ag294
ag10
ag8
aa(lp2905
g50
ag11
ag31
ag114
ag71
ag92
aa(lp2906
g259
ag12
ag5
ag17
ag6
ag71
aa(lp2907
g55
ag11
ag5
ag6
ag38
ag504
aa(lp2908
g163
ag12
ag5
ag14
ag118
ag1152
aa(lp2909
g1404
ag78
ag86
a(Vconcej
F0.11282220783268944
tp2910
ag124
ag8
aa(lp2911
g24
ag604
ag10
ag1876
ag11
ag25
aa(lp2912
g897
ag4
ag5
ag36
ag36
ag192
aa(lp2913
g354
ag355
ag116
ag117
ag118
ag20
aa(lp2914
g259
ag11
ag31
ag20
ag71
ag71
aa(lp2915
g259
ag28
ag5
ag14
ag61
ag71
aa(lp2916
g50
ag243
ag5
ag20
ag61
ag92
aa(lp2917
g8
ag12
ag5
ag69
ag6
ag17
aa(lp2918
g2577
ag46
ag621
ag185
ag6
ag20
aa(lp2919
g24
ag34
ag163
ag36
ag11
ag25
aa(lp2920
g8
ag28
ag69
ag35
ag29
ag181
aa(lp2921
g55
ag243
ag5
ag14
ag38
ag504
aa(lp2922
(Vmirl
F0.33183788745896237
tp2923
ag697
ag78
ag518
ag519
ag73
aa(lp2924
g259
ag34
ag5
ag20
ag11
ag71
aa(lp2925
g377
ag78
ag2134
ag2135
ag1262
ag56
aa(lp2926
g8
ag149
ag192
ag224
a(Vclorur
F0.1408536172176422
tp2927
ag923
aa(lp2928
g157
ag12
ag12
ag321
ag10
ag8
aa(lp2929
g17
ag12
ag35
ag112
ag61
ag8
aa(lp2930
g8
ag12
ag144
ag69
ag61
ag8
aa(lp2931
g38
ag91
ag31
ag17
ag11
ag261
aa(lp2932
g163
ag78
ag330
ag28
ag7
ag2431
aa(lp2933
g34
ag28
ag5
ag114
ag71
ag75
aa(lp2934
g314
ag28
ag164
ag165
ag14
ag47
aa(lp2935
g8
ag12
a(Vderbi
F0.11127837286789154
tp2936
ag243
ag10
ag8
aa(lp2937
g579
ag18
ag5
ag14
ag36
ag40
aa(lp2938
g50
ag4
ag31
ag28
ag38
ag92
aa(lp2939
g248
ag28
ag10
ag36
ag14
ag20
aa(lp2940
g647
ag12
ag31
ag36
ag38
ag210
aa(lp2941
g50
ag28
ag50
ag14
ag118
ag92
aa(lp2942
g3
ag34
ag31
ag14
ag36
ag8
aa(lp2943
g38
ag11
ag170
ag36
ag671
ag261
aa(lp2944
g38
ag144
ag10
ag36
ag67
ag8
aa(lp2945
g50
ag28
ag31
ag14
ag36
ag92
aa(lp2946
g3
ag34
ag31
ag6
ag118
ag8
aa(lp2947
g38
ag102
ag35
ag36
ag5
ag261
aa(lp2948
g8
ag12
ag69
ag73
ag61
ag8
aa(lp2949
g8
ag71
ag10
ag264
ag6
ag17
aa(lp2950
g126
ag71
ag10
ag43
ag38
ag56
aa(lp2951
g34
ag480
ag315
ag73
ag61
ag71
aa(lp2952
g83
ag11
ag35
ag73
ag61
ag8
aa(lp2953
g255
a(Vconsegui
F0.16658317725970709
tp2954
ag423
ag311
ag65
ag17
aa(lp2955
g758
ag35
ag69
ag294
ag19
ag144
aa(lp2956
g77
ag170
ag5
ag6
ag10
ag20
aa(lp2957
g8
ag149
ag192
ag552
ag36
ag1028
aa(lp2958
g8
ag179
ag31
ag14
ag149
ag181
aa(lp2959
g24
ag40
ag5
ag138
ag11
ag25
aa(lp2960
g56
ag639
ag1120
ag371
ag124
a(Vdiscern
F0.09466096547451637
tp2961
aa(lp2962
g97
ag654
ag1525
ag35
ag498
ag50
aa(lp2963
g24
ag11
ag31
ag6
ag61
ag25
aa(lp2964
g255
ag144
ag294
ag96
ag65
ag22
aa(lp2965
g3
ag34
ag12
ag6
ag118
ag8
aa(lp2966
g56
ag149
ag315
ag206
ag5
ag210
aa(lp2967
g8
ag12
ag31
ag36
ag10
ag8
aa(lp2968
g56
ag137
ag1296
ag89
ag267
ag311
aa(lp2969
g77
ag71
ag35
ag17
ag38
ag20
aa(lp2970
g55
ag11
ag507
ag36
ag38
ag504
aa(lp2971
g17
ag11
ag31
ag20
ag14
ag442
aa(lp2972
g24
ag34
ag35
ag69
ag6
ag25
aa(lp2973
g91
ag171
ag1325
ag1518
ag6
ag17
aa(lp2974
g24
ag46
ag2868
ag6
ag6
ag210
aa(lp2975
g50
ag28
ag12
ag6
ag61
ag92
aa(lp2976
g8
ag760
ag78
a(Vevans
F0.094474283640272383
tp2977
a(Vchalac
F0.13139684164684906
tp2978
ag234
aa(lp2979
g24
ag34
ag5
ag17
ag208
ag25
aa(lp2980
g50
ag170
ag69
ag294
ag38
ag6
aa(lp2981
g137
ag91
ag31
ag35
ag36
ag139
aa(lp2982
g3
ag12
ag10
ag14
ag38
ag8
aa(lp2983
g96
ag34
ag31
ag14
ag208
ag645
aa(lp2984
g5
ag12
ag5
ag36
ag61
ag296
aa(lp2985
g50
ag91
ag78
ag36
ag14
ag92
aa(lp2986
g88
ag4
ag69
ag35
ag118
ag6
aa(lp2987
g56
ag274
ag462
ag871
ag11
ag119
aa(lp2988
g3
ag12
ag272
ag36
ag11
ag8
aa(lp2989
g33
ag12
ag108
ag6
ag118
ag5
aa(lp2990
g118
ag751
ag423
ag311
ag61
ag20
aa(lp2991
g34
ag205
ag1378
ag55
ag5
ag73
aa(lp2992
g792
ag11
ag31
ag14
ag118
ag192
aa(lp2993
g3
ag12
ag5
ag36
ag61
ag8
aa(lp2994
g467
ag256
ag192
ag311
ag599
ag108
aa(lp2995
g1018
ag163
ag69
ag55
ag44
ag20
aa(lp2996
g10
ag78
ag10
ag6
ag38
ag15
aa(lp2997
g27
ag28
ag31
ag14
ag38
ag29
aa(lp2998
g56
ag170
ag69
ag294
ag639
ag1918
aa(lp2999
g1275
ag12
ag5
ag36
ag6
ag311
aa(lp3000
g774
ag78
ag163
ag264
ag6
ag210
aa(lp3001
g13
ag1753
ag1371
ag73
ag61
ag152
aa(lp3002
g33
ag91
ag5
ag35
ag36
ag5
aa(lp3003
g833
ag170
ag31
ag14
ag38
ag4
aa(lp3004
g3
ag34
ag108
ag69
ag6
ag8
aa(lp3005
g38
ag34
ag12
ag17
ag36
ag261
aa(lp3006
g259
ag12
ag31
ag78
ag10
ag71
aa(lp3007
g3
ag1455
ag5
ag36
ag118
ag8
aa(lp3008
g8
ag128
ag497
ag35
ag498
ag5
aa(lp3009
(Vtorment
F0.21805064235983099
tp3010
ag392
ag294
ag96
ag35
ag8
aa(lp3011
g24
ag243
ag5
ag17
ag208
ag25
aa(lp3012
g38
ag91
ag31
ag17
ag36
ag261
aa(lp3013
g154
ag144
ag24
ag243
ag639
ag8
aa(lp3014
g24
ag46
ag29
ag424
ag71
ag55
aa(lp3015
g1404
ag205
ag330
ag28
a(Vpececill
F0.41471319540996476
tp3016
ag179
aa(lp3017
g36
ag71
ag10
ag17
ag38
ag174
aa(lp3018
g34
ag11
ag12
ag14
ag61
ag75
aa(lp3019
(Vescur
F0.10895196684010938
tp3020
ag66
ag1378
ag55
ag420
ag55
aa(lp3021
g126
ag34
ag5
ag14
ag5
ag56
aa(lp3022
g579
ag12
ag5
ag14
ag6
ag40
aa(lp3023
g63
ag137
ag303
ag1321
ag65
ag22
aa(lp3024
g38
ag11
ag507
ag412
ag11
ag261
aa(lp3025
g8
ag28
ag5
ag20
ag11
ag181
aa(lp3026
g36
ag151
ag5
ag35
ag38
ag174
aa(lp3027
g8
ag18
ag5
ag44
ag11
ag181
aa(lp3028
g8
ag907
ag5
ag28
ag29
ag296
aa(lp3029
g13
ag179
ag5
ag35
ag36
ag312
aa(lp3030
g118
ag179
ag47
ag571
ag179
ag29
aa(lp3031
g8
ag12
ag328
ag96
ag71
ag8
aa(lp3032
g8
ag34
ag163
ag69
ag61
ag181
aa(lp3033
g77
ag239
ag226
ag20
ag10
ag20
aa(lp3034
g24
ag12
ag164
ag6
ag6
ag25
aa(lp3035
g118
ag1756
ag1018
ag17
ag61
ag1652
aa(lp3036
g91
ag396
ag739
ag17
ag151
ag406
aa(lp3037
g78
ag18
ag19
ag264
ag6
ag17
aa(lp3038
g160
ag205
ag423
ag390
ag225
ag5
aa(lp3039
g24
ag11
ag31
ag63
ag61
ag25
aa(lp3040
g8
ag102
ag144
ag69
ag10
ag8
aa(lp3041
g8
ag274
ag78
ag1254
ag5
ag20
aa(lp3042
g758
ag35
ag78
ag20
ag397
ag20
aa(lp3043
g311
ag71
ag12
ag439
ag38
ag1878
aa(lp3044
g24
ag1076
ag787
ag69
ag5
ag907
aa(lp3045
g24
ag240
ag192
ag1112
ag371
ag17
aa(lp3046
g3
ag35
ag31
ag6
ag163
ag8
aa(lp3047
g13
ag4
ag12
ag14
ag6
ag312
aa(lp3048
g8
ag71
ag31
ag14
ag5
ag181
aa(lp3049
g50
ag12
ag5
ag17
ag38
ag92
aa(lp3050
g3
ag28
ag35
ag6
ag61
ag8
aa(lp3051
g34
ag12
ag31
ag63
ag6
ag75
aa(lp3052
g8
ag28
ag31
ag14
ag29
ag181
aa(lp3053
g24
ag46
ag621
ag185
ag225
ag5
aa(lp3054
g24
ag46
ag1525
ag424
ag71
ag20
aa(lp3055
g201
ag34
ag5
ag13
ag61
ag104
aa(lp3056
g3
ag46
ag12
ag17
ag71
ag8
aa(lp3057
g3
ag114
ag519
ag6
ag6
ag8
aa(lp3058
g38
ag91
ag5
ag35
ag11
ag261
aa(lp3059
g8
ag71
ag5
ag426
ag11
ag8
aa(lp3060
g78
ag46
ag168
ag95
ag24
ag1199
aa(lp3061
g8
ag28
ag31
ag35
ag61
ag181
aa(lp3062
g2369
ag99
ag5
ag1620
ag2141
ag17
aa(lp3063
g8
ag40
ag31
ag17
ag61
ag181
aa(lp3064
g3
ag28
ag31
ag14
ag208
ag8
aa(lp3065
g137
ag34
ag35
ag20
ag118
ag139
aa(lp3066
g24
ag34
ag31
ag35
ag6
ag25
aa(lp3067
g77
ag11
ag5
ag36
ag29
ag20
aa(lp3068
g8
ag12
ag12
ag107
ag10
ag8
aa(lp3069
g50
ag170
ag163
ag264
ag118
ag17
aa(lp3070
g3
ag34
ag163
ag63
ag38
ag8
aa(lp3071
g88
ag34
ag78
ag36
ag5
ag6
aa(lp3072
g8
ag11
ag31
ag1683
ag61
ag8
aa(lp3073
g34
ag35
ag12
ag17
ag61
ag75
aa(lp3074
g8
ag78
ag31
ag20
ag14
ag181
aa(lp3075
g156
ag929
ag41
ag56
ag669
ag8
aa(lp3076
g24
ag12
ag5
ag69
ag6
ag25
aa(lp3077
g137
ag28
ag5
ag14
ag118
ag139
aa(lp3078
g24
ag239
ag31
ag20
ag36
ag25
aa(lp3079
g56
ag149
ag116
ag117
ag11
ag20
aa(lp3080
g5
ag35
ag5
ag14
ag61
ag296
aa(lp3081
g8
ag12
ag144
ag69
ag10
ag8
aa(lp3082
g3
ag34
ag35
ag14
ag6
ag8
aa(lp3083
g5
ag4
ag35
ag14
ag208
ag296
aa(lp3084
g8
ag34
ag31
ag412
ag7
ag181
aa(lp3085
g24
ag12
ag423
ag28
ag118
ag25
aa(lp3086
g8
ag12
ag5
ag210
ag107
ag8
aa(lp3087
g24
ag34
ag5
ag6
ag61
ag25
aa(lp3088
g38
ag782
ag5
ag36
ag38
ag261
aa(lp3089
g13
ag179
ag31
ag14
ag118
ag312
aa(lp3090
g38
ag28
ag192
ag69
ag61
ag261
aa(lp3091
g1899
ag144
ag491
ag6
ag3016
ag179
aa(lp3092
g55
ag168
ag1451
ag112
a(Vpiados
F0.089396279823705224
tp3093
ag192
aa(lp3094
g8
ag1414
ag5
ag69
ag6
ag181
aa(lp3095
g3
ag11
ag5
ag14
ag96
ag8
aa(lp3096
g38
ag46
ag5
ag36
ag14
ag261
aa(lp3097
g38
ag34
ag5
ag44
ag61
ag261
aa(lp3098
g137
ag11
ag78
ag14
ag330
ag139
aa(lp3099
g56
a(Vdetrit
F0.088062909188953417
tp3100
ag739
ag73
ag61
ag119
aa(lp3101
g694
ag34
ag5
ag17
ag61
ag1376
aa(lp3102
g24
ag34
ag272
ag6
ag11
ag25
aa(lp3103
g8
ag12
ag294
ag96
ag6
ag17
aa(lp3104
g5
ag11
ag5
ag6
ag61
ag296
aa(lp3105
g24
ag34
ag31
ag17
ag11
ag25
aa(lp3106
g50
ag4
ag5
ag36
ag6
ag92
aa(lp3107
g10
ag46
ag787
ag69
ag191
ag144
aa(lp3108
g1402
ag149
ag192
ag43
ag44
ag20
aa(lp3109
g1845
ag2295
a(Vsangrant
F0.11974616802366229
tp3110
ag73
ag5
ag73
aa(lp3111
g423
ag751
ag423
ag311
ag159
ag160
aa(lp3112
g50
ag151
ag5
ag17
ag61
ag92
aa(lp3113
g38
ag11
ag5
ag6
ag38
ag261
aa(lp3114
g3
ag12
ag5
ag36
ag160
ag8
aa(lp3115
g88
ag179
ag31
ag35
ag14
ag6
aa(lp3116
g13
ag163
ag31
ag35
ag61
ag312
aa(lp3117
g579
ag34
ag507
ag20
ag38
ag40
aa(lp3118
g50
ag4
ag31
ag14
ag38
ag92
aa(lp3119
g8
ag11
ag12
ag36
ag118
ag181
aa(lp3120
g50
ag28
ag144
ag14
ag7
ag92
aa(lp3121
g36
ag149
ag192
ag224
ag61
ag17
aa(lp3122
g17
ag40
ag523
ag13
ag55
ag8
aa(lp3123
g126
ag12
ag12
ag6
ag38
ag56
aa(lp3124
g8
ag137
ag1375
ag56
ag19
ag29
aa(lp3125
g24
ag46
ag621
ag2072
ag61
ag467
aa(lp3126
g8
ag12
ag5
ag17
ag55
ag181
aa(lp3127
g5
ag34
ag31
ag69
ag6
ag296
aa(lp3128
g78
ag46
ag69
ag89
ag267
ag296
aa(lp3129
g34
ag78
ag1181
ag476
ag477
ag5
aa(lp3130
g17
ag12
ag294
ag96
ag10
ag8
aa(lp3131
g118
ag456
ag164
ag78
ag38
ag1498
aa(lp3132
g259
ag12
ag69
ag6
ag6
ag71
aa(lp3133
g8
ag28
ag192
ag20
ag61
ag181
aa(lp3134
g24
ag12
ag10
ag6
ag38
ag25
aa(lp3135
g8
ag12
ag144
ag96
ag10
ag8
aa(lp3136
g38
ag12
ag69
ag17
ag36
ag261
aa(lp3137
g27
ag28
ag5
ag208
ag38
ag29
aa(lp3138
g255
ag2954
ag761
ag28
ag35
ag192
aa(lp3139
g314
ag12
ag10
ag2094
ag38
ag1498
aa(lp3140
g314
ag12
ag330
ag571
ag65
ag22
aa(lp3141
g5
ag179
ag12
ag17
ag61
ag296
aa(lp3142
g154
ag4
ag29
ag17
ag61
ag8
aa(lp3143
g8
ag34
ag31
ag6
ag6
ag181
aa(lp3144
g24
ag205
ag206
ag439
ag1488
ag20
aa(lp3145
g402
ag11
ag5
ag6
ag36
ag234
aa(lp3146
g40
ag46
ag5
ag267
ag61
ag55
aa(lp3147
g10
ag179
ag47
ag208
ag118
ag492
aa(lp3148
g248
ag12
ag78
ag117
ag118
ag20
aa(lp3149
g8
ag12
ag163
ag6
ag36
ag181
aa(lp3150
g10
ag212
ag5
ag6
ag38
ag15
aa(lp3151
g833
ag170
ag31
ag6
ag38
ag4
aa(lp3152
g5
ag1414
ag5
ag14
ag36
ag296
aa(lp3153
g55
ag396
ag1188
ag134
ag61
ag20
aa(lp3154
g13
ag12
ag12
ag14
ag6
ag312
aa(lp3155
g8
ag105
ag12
ag96
ag10
ag8
aa(lp3156
g50
ag34
ag5
ag36
ag36
ag92
aa(lp3157
g55
ag12
ag170
ag6
ag61
ag504
aa(lp3158
g154
ag654
ag1525
ag35
ag669
ag212
aa(lp3159
g1952
ag91
ag31
ag14
ag118
ag179
aa(lp3160
g80
ag28
ag69
ag138
ag38
ag81
aa(lp3161
g154
ag2468
ag270
ag894
ag118
ag492
aa(lp3162
g8
ag12
ag386
ag14
ag6
ag181
aa(lp3163
g24
ag46
ag97
ag736
ag2080
ag923
aa(lp3164
g3
ag12
ag5
ag14
ag10
ag8
aa(lp3165
g17
ag893
ag12
ag1590
ag5
ag73
aa(lp3166
g13
ag46
ag206
ag36
ag29
ag312
aa(lp3167
g8
ag11
ag5
ag2284
ag6
ag181
aa(lp3168
g10
ag179
ag47
ag28
ag5
ag20
aa(lp3169
g2541
ag12
ag787
ag35
ag498
ag73
aa(lp3170
g1275
ag28
ag31
ag35
ag7
ag311
aa(lp3171
g11
ag676
ag97
ag43
a(Vcensitari
F0.091220868991615245
tp3172
a(Vola
F0.54565838168991221
tp3173
aa(lp3174
g8
ag4
ag507
ag14
ag29
ag181
aa(lp3175
g36
ag151
ag5
ag13
ag61
ag174
aa(lp3176
g78
ag1246
ag5
ag980
ag48
ag71
aa(lp3177
g579
ag28
ag31
ag17
ag36
ag40
aa(lp3178
(Vcaeir
F0.18519234485018443
tp3179
ag46
ag336
ag6
ag1313
ag56
aa(lp3180
g24
ag12
ag163
ag13
ag38
ag25
aa(lp3181
g466
ag78
ag5
ag6
ag11
ag2117
aa(lp3182
g33
ag12
ag31
ag14
ag118
ag5
aa(lp3183
g56
ag149
ag192
ag1112
ag55
ag192
aa(lp3184
g77
ag639
ag5
ag20
ag11
ag20
aa(lp3185
g118
ag755
ag330
ag165
ag65
ag22
aa(lp3186
g8
ag4
ag35
ag73
ag61
ag8
aa(lp3187
g8
ag91
ag5
ag17
ag5
ag181
aa(lp3188
g8
ag102
ag144
ag69
ag6
ag20
aa(lp3189
g88
ag34
ag31
ag36
ag14
ag6
aa(lp3190
g8
ag91
ag31
ag20
ag208
ag181
aa(lp3191
g8
ag71
ag144
ag69
ag44
ag20
aa(lp3192
g5
ag12
ag31
ag14
ag5
ag296
aa(lp3193
g5
ag28
ag31
ag6
ag118
ag296
aa(lp3194
g24
ag170
ag31
ag36
ag10
ag25
aa(lp3195
g50
ag34
ag31
ag14
ag61
ag92
aa(lp3196
g56
ag170
ag69
ag2127
ag44
ag20
aa(lp3197
g24
ag34
ag5
ag36
ag5
ag25
aa(lp3198
g417
ag18
ag19
ag264
ag6
ag17
aa(lp3199
g8
ag78
ag31
ag14
ag118
ag181
aa(lp3200
g370
ag1259
ag10
ag95
ag714
ag29
aa(lp3201
g892
ag893
ag12
ag894
ag5
ag448
aa(lp3202
g13
ag4
ag5
ag20
ag38
ag312
aa(lp3203
g154
ag102
ag29
ag330
ag10
ag8
aa(lp3204
g33
ag604
ag5
ag36
ag38
ag5
aa(lp3205
g239
ag919
ag5
ag920
ag29
ag872
aa(lp3206
g137
ag34
ag5
ag35
ag5
ag592
aa(lp3207
g38
ag28
ag5
ag35
ag61
ag261
aa(lp3208
g137
ag71
ag31
ag17
ag61
ag592
aa(lp3209
g38
ag11
ag192
ag35
ag118
ag261
aa(lp3210
g3
ag243
ag144
ag6
ag38
ag8
aa(lp3211
g24
ag34
ag31
ag17
ag6
ag25
aa(lp3212
g423
ag28
ag10
ag13
ag61
ag803
aa(lp3213
g33
ag163
ag31
ag28
ag11
ag5
aa(lp3214
g27
ag40
ag31
ag6
ag330
ag29
aa(lp3215
g8
ag34
ag31
ag36
ag38
ag181
aa(lp3216
g50
ag28
ag5
ag14
ag14
ag92
aa(lp3217
g170
ag171
ag163
ag165
ag38
ag467
aa(lp3218
g267
ag613
ag1157
ag382
ag208
ag29
aa(lp3219
g154
ag270
ag35
ag73
ag61
ag8
aa(lp3220
g36
ag28
ag315
ag206
ag5
ag73
aa(lp3221
g38
ag91
ag5
ag44
ag61
ag261
aa(lp3222
g63
a(Vmodern
F0.084780444922494466
tp3223
ag192
ag925
ag124
ag29
aa(lp3224
g38
ag12
ag31
ag78
ag10
ag261
aa(lp3225
g8
ag355
ag10
ag36
ag7
ag210
aa(lp3226
g8
ag71
ag423
ag17
ag29
ag181
aa(lp3227
g33
ag34
ag5
ag36
ag36
ag5
aa(lp3228
g8
ag149
ag192
ag17
ag276
ag25
aa(lp3229
g118
ag1242
ag5
a(Vaplaqu
F0.12386721336290116
tp3230
ag671
ag205
aa(lp3231
g423
ag28
ag5
ag6
ag61
ag803
aa(lp3232
g34
ag270
ag5
ag17
ag29
ag75
aa(lp3233
g34
ag12
ag10
ag14
ag38
ag75
aa(lp3234
g2577
ag78
ag163
ag190
ag208
ag25
aa(lp3235
g8
ag639
ag787
ag69
ag151
ag406
aa(lp3236
g24
ag13
ag739
ag17
ag276
ag108
aa(lp3237
g8
ag170
ag144
ag35
ag71
ag181
aa(lp3238
g8
ag71
ag1044
ag96
ag10
ag8
aa(lp3239
g8
ag12
ag35
ag96
ag208
ag8
aa(lp3240
g33
ag34
ag5
ag35
ag36
ag5
aa(lp3241
g17
ag12
ag35
ag69
ag6
ag8
aa(lp3242
g8
ag12
ag144
ag6
ag29
ag8
aa(lp3243
g152
ag35
ag5
ag409
ag61
ag152
aa(lp3244
g34
ag170
ag5
ag20
ag10
ag75
aa(lp3245
g50
ag163
ag31
ag69
ag6
ag92
aa(lp3246
g5
ag11
ag5
ag63
ag61
ag296
aa(lp3247
g34
ag12
ag78
ag14
ag5
ag75
aa(lp3248
g24
ag34
ag31
ag20
ag6
ag25
aa(lp3249
g8
ag91
ag5
ag6
ag671
ag181
aa(lp3250
g55
ag11
ag69
ag78
ag10
ag504
aa(lp3251
g8
ag91
ag31
ag35
ag118
ag181
aa(lp3252
g170
ag240
ag168
ag1254
ag5
ag5
aa(lp3253
g8
ag28
ag519
ag14
ag36
ag181
aa(lp3254
g239
ag240
ag164
ag165
ag160
ag55
aa(lp3255
g154
ag4
ag10
ag69
ag6
ag8
aa(lp3256
g8
ag12
ag65
ag199
ag208
ag8
aa(lp3257
g50
ag34
ag5
ag43
ag36
ag92
aa(lp3258
g50
ag34
ag206
ag117
ag118
ag92
aa(lp3259
g137
ag99
ag31
ag35
ag163
ag592
aa(lp3260
g8
ag114
ag86
ag17
ag61
ag8
aa(lp3261
g8
ag12
ag12
ag66
ag67
ag8
aa(lp3262
g137
ag12
ag5
ag14
ag38
ag139
aa(lp3263
g5
ag12
ag5
ag14
ag208
ag296
aa(lp3264
g8
ag28
ag5
ag14
ag61
ag181
aa(lp3265
g154
ag11
ag986
ag208
ag671
ag205
aa(lp3266
g833
ag170
ag31
ag13
ag38
ag4
aa(lp3267
g88
ag4
ag5
ag6
ag118
ag6
aa(lp3268
g55
ag28
ag5
ag36
ag38
ag504
aa(lp3269
g24
ag12
ag5
ag253
ag6
ag25
aa(lp3270
g118
ag1199
ag84
ag73
ag61
ag152
aa(lp3271
g13
ag11
ag5
ag17
ag36
ag312
aa(lp3272
g77
ag700
ag78
ag35
ag61
ag20
aa(lp3273
g163
ag28
ag5
ag6
ag71
ag1152
aa(lp3274
g170
ag205
ag380
ag925
ag124
ag8
aa(lp3275
g40
ag151
ag5
ag14
ag36
ag1101
aa(lp3276
g34
ag34
ag31
ag6
ag10
ag75
aa(lp3277
g8
ag12
ag328
ag1061
ag10
ag8
aa(lp3278
g33
ag240
ag5
ag6
ag29
ag5
aa(lp3279
g269
ag71
ag5
ag6
ag36
ag50
aa(lp3280
g412
ag40
ag10
ag36
ag10
ag8
aa(lp3281
g50
ag91
ag154
ag35
ag38
ag92
aa(lp3282
g354
ag12
ag35
ag69
ag61
ag8
aa(lp3283
g13
ag53
ag97
ag17
ag671
ag205
aa(lp3284
g774
ag168
ag1246
ag1247
ag5
ag73
aa(lp3285
g1501
ag256
ag106
ag117
ag61
ag25
aa(lp3286
g2094
ag137
ag900
ag89
ag5
ag73
aa(lp3287
g10
ag28
ag31
ag20
ag11
ag15
aa(lp3288
g38
ag28
ag31
ag14
ag118
ag261
aa(lp3289
g17
ag179
ag294
ag17
ag61
ag20
aa(lp3290
g8
ag613
ag144
ag208
ag6
ag8
aa(lp3291
g8
ag71
ag10
ag36
ag44
ag20
aa(lp3292
g55
ag1966
ag5
ag69
ag61
ag8
aa(lp3293
g259
ag12
ag31
ag35
ag7
ag71
aa(lp3294
g97
ag2240
a(Vvendaval
F0.16345159308509702
tp3295
ag745
ag6
ag17
aa(lp3296
g8
a(Vdoblement
F0.14761676641059157
tp3297
a(Vespan
F0.2023695056633468
tp3298
ag73
ag61
ag20
aa(lp3299
g38
ag71
ag31
ag14
ag11
ag261
aa(lp3300
g259
ag71
ag5
ag14
ag71
ag71
aa(lp3301
g63
ag205
ag65
ag561
ag5
ag6
aa(lp3302
g13
ag4
ag31
ag138
ag11
ag312
aa(lp3303
g151
ag28
ag12
ag20
ag71
ag307
aa(lp3304
g24
ag46
ag5
ag22
ag5
ag25
aa(lp3305
g154
ag4
ag29
ag96
ag10
ag8
aa(lp3306
g27
ag28
ag480
ag36
ag208
ag29
aa(lp3307
g88
ag12
ag5
ag6
ag11
ag6
aa(lp3308
g50
ag11
ag35
ag14
ag7
ag92
aa(lp3309
g8
ag214
ag2624
a(Vdesd
F0.11013984381521925
tp3310
ag866
ag71
aa(lp3311
g50
ag28
ag5
ag244
ag38
ag92
aa(lp3312
g694
ag34
ag12
ag14
ag38
ag1376
aa(lp3313
g104
ag149
ag192
ag381
ag61
ag210
aa(lp3314
g24
ag46
ag787
ag69
ag921
ag71
aa(lp3315
g3
ag34
ag5
ag36
ag71
ag8
aa(lp3316
g154
ag751
ag423
ag311
ag61
ag907
aa(lp3317
g13
ag205
ag1246
ag1247
ag6
ag210
aa(lp3318
g36
ag12
ag507
ag14
ag38
ag174
aa(lp3319
g40
ag12
ag226
ag14
ag36
ag1101
aa(lp3320
g24
ag46
ag787
ag2450
ag65
ag29
aa(lp3321
g24
ag11
ag144
ag17
ag61
ag25
aa(lp3322
g118
ag1336
ag97
ag43
ag5
ag20
aa(lp3323
g24
ag12
ag31
ag36
ag38
ag25
aa(lp3324
g55
ag34
ag163
ag14
ag118
ag504
aa(lp3325
g24
ag78
ag5
ag14
ag11
ag25
aa(lp3326
g55
ag168
ag1246
ag1247
ag6
ag22
aa(lp3327
g50
ag28
ag12
ag14
ag118
ag92
aa(lp3328
g28
ag12
ag5
ag1683
ag61
ag8
aa(lp3329
g8
ag12
ag65
ag243
ag10
ag8
aa(lp3330
(Vmunich
F0.15819490083538001
tp3331
ag78
ag5
ag28
ag1831
ag192
aa(lp3332
g24
ag34
ag31
ag20
ag14
ag25
aa(lp3333
g96
ag11
ag10
ag14
ag38
ag645
aa(lp3334
g10
ag34
ag5
ag36
ag38
ag15
aa(lp3335
g269
ag11
ag272
ag14
ag6
ag50
aa(lp3336
g56
ag2198
a(Vsubcamp
F0.12001609207268348
tp3337
ag78
ag38
ag976
aa(lp3338
g88
ag12
ag31
ag36
ag118
ag6
aa(lp3339
g105
ag319
ag491
ag73
ag61
ag25
aa(lp3340
g466
ag53
ag97
ag20
ag21
ag172
aa(lp3341
g24
ag46
ag97
ag894
ag118
ag29
aa(lp3342
g88
ag46
ag164
ag14
ag71
ag6
aa(lp3343
g423
ag13
ag105
ag14
ag5
ag803
aa(lp3344
g940
ag28
ag35
ag17
ag10
ag419
aa(lp3345
(Vtriangul
F0.22189140732188412
tp3346
ag46
ag5
ag6
ag6
ag1497
aa(lp3347
g8
ag233
ag5
ag96
ag10
ag8
aa(lp3348
g118
ag18
ag3020
ag17
ag276
ag29
aa(lp3349
g2277
ag893
ag12
ag78
ag38
ag56
aa(lp3350
g24
ag12
ag31
ag36
ag29
ag25
aa(lp3351
g11
ag28
ag35
ag36
ag7
ag536
aa(lp3352
g163
ag46
ag97
ag43
ag1038
ag105
aa(lp3353
g24
ag34
ag5
ag14
ag208
ag25
aa(lp3354
g34
ag144
ag5
ag14
ag118
ag75
aa(lp3355
g36
ag151
ag519
ag36
ag11
ag174
aa(lp3356
g126
ag71
ag10
ag6
ag11
ag56
aa(lp3357
g50
ag34
ag78
ag36
ag61
ag92
aa(lp3358
g24
ag604
ag2814
ag35
ag6
ag25
aa(lp3359
g976
ag40
ag78
ag470
ag5
ag73
aa(lp3360
g8
ag274
ag84
ag73
ag61
ag8
aa(lp3361
g36
ag472
ag354
ag6
ag61
ag20
aa(lp3362
g83
ag919
ag168
ag54
ag36
ag160
aa(lp3363
g8
ag46
ag5
ag14
ag36
ag181
aa(lp3364
g50
ag35
ag5
ag20
ag11
ag92
aa(lp3365
g8
ag12
ag65
ag28
ag10
ag5
aa(lp3366
g40
ag12
ag5
ag14
ag36
ag1101
aa(lp3367
g50
ag12
ag163
ag14
ag61
ag92
aa(lp3368
g3
ag697
ag12
ag14
ag38
ag8
aa(lp3369
g976
ag12
ag165
ag6
ag61
ag17
aa(lp3370
g27
ag28
ag31
ag36
ag14
ag29
aa(lp3371
g11
ag602
ag330
ag28
ag1924
ag20
aa(lp3372
g36
ag206
ag1181
a(Valbared
F0.12848863151818127
tp3373
ag11
ag29
aa(lp3374
g354
ag78
ag5
ag160
ag356
ag108
aa(lp3375
g104
ag78
ag498
ag983
ag65
ag20
aa(lp3376
g33
ag28
ag519
ag6
ag38
ag5
aa(lp3377
g24
ag28
ag10
ag6
ag208
ag25
aa(lp3378
g38
ag28
ag31
ag20
ag11
ag261
aa(lp3379
g3
ag12
ag78
ag14
ag5
ag8
aa(lp3380
g5
ag28
ag5
ag35
ag6
ag296
aa(lp3381
g5
ag46
ag31
ag20
ag208
ag296
aa(lp3382
g17
ag18
ag330
ag43
ag1869
ag55
aa(lp3383
g118
ag137
ag328
ag2800
ag69
ag29
aa(lp3384
g56
ag137
ag164
ag165
ag14
ag1541
aa(lp3385
g8
ag12
ag732
ag243
ag10
ag8
aa(lp3386
g3
ag91
ag5
ag14
ag36
ag8
aa(lp3387
g170
ag205
ag380
ag20
ag21
ag467
aa(lp3388
g8
ag11
ag294
ag17
ag61
ag8
aa(lp3389
(Vdiametr
F0.13102230792659733
tp3390
ag144
ag491
ag267
ag208
ag2577
aa(lp3391
g8
ag893
ag12
ag66
ag10
ag8
aa(lp3392
g163
ag243
ag35
ag14
ag118
ag1152
aa(lp3393
g24
ag1416
ag31
ag14
ag29
ag25
aa(lp3394
g8
ag58
ag480
a(Vetiquet
F0.12120186745449117
tp3395
ag2094
ag5
aa(lp3396
g24
ag40
ag31
ag44
ag11
ag25
aa(lp3397
g5
ag12
ag31
ag13
ag38
ag296
aa(lp3398
g36
ag78
ag330
ag191
ag3172
ag3173
aa(lp3399
g24
ag34
ag10
ag17
ag6
ag25
aa(lp3400
g38
ag11
ag5
ag13
ag38
ag261
aa(lp3401
g8
ag71
ag108
ag69
ag10
ag8
aa(lp3402
g8
ag34
ag5
ag14
ag38
ag181
aa(lp3403
g33
ag28
ag69
ag17
ag6
ag5
aa(lp3404
g34
ag34
ag31
ag20
ag61
ag75
aa(lp3405
g10
ag34
ag31
ag14
ag71
ag15
aa(lp3406
g80
ag34
ag163
ag6
ag6
ag81
aa(lp3407
g833
ag34
ag272
ag17
ag10
ag4
aa(lp3408
g34
ag35
ag31
ag17
ag38
ag75
aa(lp3409
g248
ag71
ag5
ag14
ag11
ag20
aa(lp3410
g976
ag40
ag330
ag28
ag14
ag1541
aa(lp3411
g24
ag12
ag31
ag6
ag11
ag25
aa(lp3412
g24
ag170
ag31
ag17
ag208
ag25
aa(lp3413
g8
ag11
ag5
ag20
ag14
ag181
aa(lp3414
g8
a(Vgeorg
F0.10713984873760102
tp3415
a(Vpimient
F0.12270158604506232
tp3416
ag73
ag11
ag164
aa(lp3417
g24
ag35
ag5
ag14
ag36
ag25
aa(lp3418
g24
ag34
ag5
ag17
ag38
ag25
aa(lp3419
g24
ag34
ag5
ag6
ag36
ag25
aa(lp3420
g8
ag71
ag10
ag96
ag10
ag8
aa(lp3421
g8
ag12
ag294
ag17
ag10
ag8
aa(lp3422
g163
ag4
ag5
ag69
ag257
ag108
aa(lp3423
g38
ag12
ag31
ag50
ag6
ag261
aa(lp3424
g118
ag179
ag294
ag96
ag61
ag8
aa(lp3425
g354
ag355
ag5
ag1009
ag208
ag20
aa(lp3426
g24
ag34
ag5
ag20
ag36
ag25
aa(lp3427
g8
ag102
ag144
ag69
ag6
ag8
aa(lp3428
g38
ag34
ag35
ag17
ag36
ag261
aa(lp3429
g24
ag12
ag50
ag36
ag208
ag25
aa(lp3430
g38
ag144
ag168
ag35
ag669
ag212
aa(lp3431
g163
ag34
ag31
ag13
ag38
ag1152
aa(lp3432
g56
ag28
ag35
ag13
ag5
ag555
aa(lp3433
g833
ag12
ag5
ag36
ag61
ag4
aa(lp3434
g38
ag28
ag206
ag69
ag14
ag261
aa(lp3435
g38
ag11
ag31
ag36
ag6
ag261
aa(lp3436
g122
ag114
ag12
ag206
ag61
ag25
aa(lp3437
g2277
ag893
ag12
ag78
ag38
ag22
aa(lp3438
g88
ag35
ag5
ag63
ag38
ag6
aa(lp3439
g579
ag144
ag5
ag17
ag61
ag40
aa(lp3440
g38
ag1024
ag47
ag28
ag21
ag17
aa(lp3441
g55
ag28
ag330
ag17
ag38
ag504
aa(lp3442
g24
ag12
ag5
ag17
ag61
ag25
aa(lp3443
g8
ag1087
ag270
ag885
ag2141
ag17
aa(lp3444
g5
ag163
ag10
ag36
ag61
ag296
aa(lp3445
g50
ag11
ag12
ag6
ag208
ag92
aa(lp3446
g77
ag28
ag31
ag20
ag38
ag20
aa(lp3447
g163
ag4
ag462
ag463
ag11
ag56
aa(lp3448
g24
ag28
ag69
ag6
ag6
ag25
aa(lp3449
g38
ag11
ag507
ag17
ag36
ag261
aa(lp3450
g24
ag34
ag5
ag13
ag11
ag25
aa(lp3451
g122
ag114
ag12
ag206
ag38
ag22
aa(lp3452
g126
ag12
ag5
ag35
ag6
ag56
aa(lp3453
g24
ag34
ag5
ag36
ag10
ag25
aa(lp3454
g50
ag11
ag31
ag6
ag6
ag92
aa(lp3455
g77
ag28
ag5
ag6
ag61
ag20
aa(lp3456
g3
ag12
ag170
ag14
ag35
ag8
aa(lp3457
g259
ag12
ag31
ag36
ag11
ag71
aa(lp3458
g8
ag1541
ag31
ag69
ag61
ag181
aa(lp3459
g97
ag4
ag462
ag871
ag118
ag20
aa(lp3460
g8
ag12
ag65
ag210
ag61
ag164
aa(lp3461
g8
ag40
ag69
ag294
ag61
ag8
aa(lp3462
g154
ag355
ag206
ag439
ag737
ag108
aa(lp3463
g34
ag28
ag31
ag14
ag38
ag75
aa(lp3464
g233
ag11
ag31
ag17
ag29
ag234
aa(lp3465
g38
ag12
ag31
ag17
ag38
ag261
aa(lp3466
g34
ag239
ag86
ag190
ag35
ag29
aa(lp3467
g170
ag171
ag1890
ag36
ag29
ag108
aa(lp3468
g50
ag12
ag12
ag20
ag6
ag92
aa(lp3469
g52
a(Vlombardi
F0.15554775188906414
tp3470
ag206
ag146
ag2533
ag20
aa(lp3471
g50
ag78
ag31
ag17
ag14
ag92
aa(lp3472
g3
ag34
ag5
ag69
ag6
ag8
aa(lp3473
g118
ag755
ag330
ag28
ag208
ag25
aa(lp3474
g50
ag12
ag69
ag17
ag38
ag92
aa(lp3475
g8
ag12
ag35
ag73
ag61
ag20
aa(lp3476
g88
ag12
ag78
ag6
ag61
ag6
aa(lp3477
g159
ag205
ag44
ag78
ag65
ag22
aa(lp3478
g239
ag858
ag144
ag1496
ag1497
ag20
aa(lp3479
g8
ag179
ag507
ag50
ag61
ag8
aa(lp3480
g239
ag1199
ag84
ag73
ag61
ag135
aa(lp3481
g24
ag34
ag31
ag117
ag118
ag25
aa(lp3482
g38
ag34
ag5
ag17
ag5
ag261
aa(lp3483
g24
ag34
ag31
ag17
ag38
ag25
aa(lp3484
g8
ag12
ag35
ag17
ag10
ag8
aa(lp3485
g10
ag46
ag86
ag17
ag35
ag15
aa(lp3486
g8
ag454
ag1296
ag89
ag6
ag179
aa(lp3487
g83
ag198
ag97
ag208
ag118
ag47
aa(lp3488
g248
ag34
ag5
ag13
ag38
ag20
aa(lp3489
g38
ag71
ag31
ag17
ag61
ag261
aa(lp3490
g239
ag240
ag168
ag185
ag6
ag20
aa(lp3491
g56
ag137
ag303
ag2072
ag118
ag97
aa(lp3492
g3
ag28
ag519
ag17
ag208
ag8
aa(lp3493
g259
ag12
ag5
ag28
ag6
ag71
aa(lp3494
g792
ag11
ag31
ag36
ag7
ag192
aa(lp3495
g8
ag12
ag12
ag112
ag71
ag17
aa(lp3496
g11
ag602
ag330
ag28
ag149
ag71
aa(lp3497
g2580
ag1561
ag206
ag160
ag671
ag22
aa(lp3498
g8
ag114
ag35
ag73
ag10
ag8
aa(lp3499
g24
ag46
ag206
ag20
ag866
ag97
aa(lp3500
g55
ag893
ag12
ag73
ag61
ag8
aa(lp3501
g5
ag71
ag78
ag66
ag5
ag296
aa(lp3502
g88
ag28
ag31
ag14
ag38
ag6
aa(lp3503
g13
ag198
ag97
ag208
ag118
ag492
aa(lp3504
g50
ag11
ag164
ag69
ag61
ag92
aa(lp3505
g24
ag28
ag5
ag17
ag11
ag25
aa(lp3506
g923
ag13
ag192
ag381
ag61
ag907
aa(lp3507
g38
ag11
ag5
ag14
ag29
ag261
aa(lp3508
g10
ag212
ag5
ag14
ag38
ag15
aa(lp3509
g24
ag170
ag386
ag14
ag61
ag25
aa(lp3510
g36
ag760
ag761
ag412
ag61
ag1142
aa(lp3511
g8
ag34
ag272
ag17
ag36
ag181
aa(lp3512
g8
ag12
ag35
ag311
ag10
ag8
aa(lp3513
g3
ag71
ag12
ag20
ag38
ag8
aa(lp3514
g34
ag12
ag5
ag14
ag61
ag75
aa(lp3515
g50
ag494
ag31
ag20
ag10
ag92
aa(lp3516
g8
ag1561
ag5
ag311
ag10
ag8
aa(lp3517
g248
ag71
ag78
ag1135
ag11
ag20
aa(lp3518
g50
ag12
ag86
ag36
ag6
ag92
aa(lp3519
g118
ag53
ag97
ag63
ag36
ag226
aa(lp3520
g8
ag243
ag5
ag66
ag61
ag181
aa(lp3521
g259
ag28
ag31
ag14
ag71
ag71
aa(lp3522
g154
ag12
ag5
ag210
ag118
ag8
aa(lp3523
g38
ag78
ag31
ag22
a(Vposibil
F0.10944047164234721
tp3524
ag20
aa(lp3525
g259
ag11
ag10
ag20
ag38
ag71
aa(lp3526
g36
ag78
ag483
ag484
ag61
ag135
aa(lp3527
g50
ag11
ag170
ag20
ag118
ag92
aa(lp3528
g55
ag66
ag12
ag54
ag36
ag105
aa(lp3529
g36
ag78
ag65
ag138
ag10
ag1738
aa(lp3530
g38
ag12
ag65
ag311
ag10
ag8
aa(lp3531
g24
ag34
ag423
ag253
ag118
ag25
aa(lp3532
g3
ag1246
ag5
ag14
ag5
ag8
aa(lp3533
g33
ag78
ag5
ag6
ag5
ag5
aa(lp3534
g5
ag34
ag31
ag14
ag10
ag296
aa(lp3535
g8
ag12
ag397
ag267
ag10
ag8
aa(lp3536
g34
ag12
ag507
ag69
ag11
ag75
aa(lp3537
g496
ag205
ag206
ag160
ag356
ag8
aa(lp3538
g380
ag168
ag206
ag160
ag356
ag8
aa(lp3539
g3
ag34
ag31
ag6
ag671
ag8
aa(lp3540
g40
ag12
ag31
ag36
ag71
ag1101
aa(lp3541
g40
ag12
ag1296
ag294
ag65
ag22
aa(lp3542
g36
ag34
ag5
ag35
ag163
ag174
aa(lp3543
g3
ag11
ag31
ag6
ag199
ag8
aa(lp3544
g118
ag11
ag2876
ag73
ag61
ag2440
aa(lp3545
g24
ag28
ag12
ag6
ag38
ag25
aa(lp3546
g8
ag12
ag31
ag1683
ag10
ag8
aa(lp3547
g8
ag12
ag10
ag36
ag10
ag8
aa(lp3548
g8
ag12
ag5
ag14
ag5
ag181
aa(lp3549
g8
ag858
ag78
ag18
ag2199
ag29
aa(lp3550
g137
ag71
ag519
ag28
ag61
ag139
aa(lp3551
g88
ag11
ag31
ag36
ag71
ag6
aa(lp3552
g24
ag34
ag5
ag6
ag11
ag25
aa(lp3553
g50
ag170
ag31
ag17
ag61
ag92
aa(lp3554
g36
ag12
ag330
ag17
ag61
ag174
aa(lp3555
g496
ag205
ag206
ag476
ag55
ag20
aa(lp3556
g34
ag34
ag86
ag17
ag6
ag75
aa(lp3557
g8
ag46
ag122
ag208
ag10
ag8
aa(lp3558
g163
ag205
ag1378
ag55
ag151
ag29
aa(lp3559
g163
ag78
ag2449
ag6
ag151
ag406
aa(lp3560
g24
ag12
ag519
ag14
ag5
ag25
aa(lp3561
g38
ag12
ag31
ag20
ag10
ag261
aa(lp3562
g8
ag11
ag35
ag73
ag61
ag8
aa(lp3563
g36
ag149
ag192
ag224
ag257
ag192
aa(lp3564
g52
ag179
ag483
ag865
ag124
ag8
aa(lp3565
g33
ag78
ag5
ag35
ag11
ag5
aa(lp3566
g774
ag179
ag330
ag264
ag6
ag210
aa(lp3567
g423
ag205
ag1296
ag1297
ag1659
ag8
aa(lp3568
g3
ag35
ag5
ag14
ag199
ag8
aa(lp3569
g11
ag128
ag1375
ag89
ag5
ag73
aa(lp3570
g8
ag46
ag10
ag36
ag44
ag20
aa(lp3571
g24
ag34
ag5
ag17
ag61
ag25
aa(lp3572
g56
ag12
ag35
ag69
ag10
ag8
aa(lp3573
g24
ag12
ag5
ag78
ag10
ag25
aa(lp3574
g17
ag893
ag12
a(Vcomprobacion
F0.1357096840322698
tp3575
ag65
ag22
aa(lp3576
g3
ag12
ag86
ag14
ag118
ag8
aa(lp3577
g56
ag12
ag29
ag330
ag6
ag8
aa(lp3578
g34
ag144
ag31
ag36
ag118
ag75
aa(lp3579
g8
ag128
ag1375
ag78
ag29
ag872
aa(lp3580
g34
ag170
ag5
ag6
ag38
ag75
aa(lp3581
g96
ag34
ag5
ag14
ag208
ag645
aa(lp3582
g24
ag28
ag69
ag36
ag11
ag25
aa(lp3583
g24
ag34
ag31
ag50
ag61
ag25
aa(lp3584
g96
ag12
ag5
ag138
ag38
ag645
aa(lp3585
g8
ag480
ag315
ag206
ag5
ag1097
aa(lp3586
g11
ag34
ag31
ag36
ag38
ag536
aa(lp3587
g38
ag12
ag170
ag6
ag35
ag261
aa(lp3588
g126
ag11
ag386
ag35
ag38
ag56
aa(lp3589
g88
ag91
ag5
ag17
ag29
ag6
aa(lp3590
g342
ag71
ag35
ag20
ag11
ag17
aa(lp3591
g34
ag34
ag5
ag14
ag61
ag75
aa(lp3592
g5
ag34
ag31
ag14
ag38
ag296
aa(lp3593
(Vdendrologi
F0.13528739079343755
tp3594
ag28
ag168
ag160
ag419
ag210
aa(lp3595
g55
ag46
ag97
ag43
ag44
ag55
aa(lp3596
g50
ag12
ag31
ag20
ag36
ag92
aa(lp3597
g163
ag12
ag5
ag17
ag118
ag1152
aa(lp3598
g8
ag71
ag65
ag112
ag71
ag8
aa(lp3599
g5
ag28
ag35
ag69
ag118
ag296
aa(lp3600
g56
ag11
ag170
ag6
ag118
a(Vdendrocronologi
F0.11321799726379395
tp3601
aa(lp3602
g38
ag34
ag35
ag14
ag208
ag261
aa(lp3603
g50
ag35
ag12
ag36
ag14
ag92
aa(lp3604
g423
ag34
ag192
ag14
ag29
ag803
aa(lp3605
g833
ag170
ag31
ag69
ag38
ag4
aa(lp3606
g24
ag34
ag31
ag69
ag208
ag25
aa(lp3607
g13
ag28
ag5
ag14
ag149
ag312
aa(lp3608
g55
ag12
ag5
ag28
ag118
ag504
aa(lp3609
g3
ag28
ag5
ag13
ag14
ag8
aa(lp3610
g3
ag35
ag31
ag14
ag163
ag8
aa(lp3611
g118
ag480
ag86
ag190
ag671
ag22
aa(lp3612
g50
ag12
ag31
ag35
ag38
ag92
aa(lp3613
g163
ag78
ag695
ag999
ag124
ag8
aa(lp3614
g55
ag1830
ag78
ag36
ag35
ag192
aa(lp3615
g38
ag12
ag5
ag301
ag61
ag8
aa(lp3616
g3
ag34
ag5
ag14
ag208
ag8
aa(lp3617
g88
ag12
ag63
ag35
ag14
ag6
aa(lp3618
g34
ag12
ag50
ag815
ag61
ag75
aa(lp3619
g17
ag12
ag1574
ag44
ag61
ag442
aa(lp3620
g27
ag28
ag5
ag14
ag14
ag29
aa(lp3621
g694
ag12
ag168
ag35
ag1659
ag8
aa(lp3622
g10
ag179
ag670
ag117
ag118
ag20
aa(lp3623
g758
ag35
ag29
ag925
ag61
ag20
aa(lp3624
g126
ag11
ag31
ag36
ag11
ag56
aa(lp3625
g163
ag4
ag192
ag484
ag179
ag25
aa(lp3626
g24
ag550
ag31
ag35
ag6
ag25
aa(lp3627
g77
ag13
ag5
ag6
ag38
ag20
aa(lp3628
g33
ag34
ag5
ag20
ag71
ag5
aa(lp3629
g56
ag2240
ag1058
ag69
ag267
ag311
aa(lp3630
g24
ag12
ag31
ag28
ag5
ag25
aa(lp3631
g77
ag78
ag5
ag20
ag11
ag20
aa(lp3632
g248
ag28
ag5
ag117
ag118
ag20
aa(lp3633
g77
ag12
ag63
ag35
ag38
ag20
aa(lp3634
g83
ag669
ag69
ag920
ag29
ag872
aa(lp3635
g8
ag71
ag10
ag36
ag44
ag8
aa(lp3636
g163
ag149
ag192
ag1518
ag118
ag108
aa(lp3637
g402
ag11
ag31
ag14
ag36
ag234
aa(lp3638
g96
ag11
ag5
ag35
ag11
ag645
aa(lp3639
g118
ag1336
ag1296
ag146
ag55
ag22
aa(lp3640
g13
ag456
ag164
ag264
ag6
ag8
aa(lp3641
g118
ag11
ag2876
ag885
ag44
ag22
aa(lp3642
g8
ag494
ag31
ag14
ag29
ag181
aa(lp3643
g8
ag71
ag5
ag253
ag6
ag181
aa(lp3644
g8
ag144
ag5
ag36
ag163
ag181
aa(lp3645
g3
ag151
ag5
ag14
ag11
ag8
aa(lp3646
g423
ag91
ag31
ag14
ag38
ag803
aa(lp3647
g24
ag11
ag31
ag14
ag71
ag25
aa(lp3648
g63
ag370
ag78
ag2749
ag377
ag73
aa(lp3649
g259
ag28
ag31
ag14
ag11
ag71
aa(lp3650
g56
ag94
ag10
ag2094
ag38
ag17
aa(lp3651
g24
ag12
ag5
ag36
ag118
ag25
aa(lp3652
g17
ag179
ag12
ag6
ag38
ag442
aa(lp3653
g8
ag34
ag31
ag14
ag61
ag181
aa(lp3654
g8
ag114
ag1067
ag78
ag10
ag8
aa(lp3655
g50
ag28
ag35
ag14
ag11
ag92
aa(lp3656
g50
ag99
ag12
ag6
ag6
ag92
aa(lp3657
g137
ag11
ag206
ag20
ag14
ag139
aa(lp3658
g88
ag12
ag192
ag6
ag14
ag6
aa(lp3659
g118
ag1199
ag84
ag13
ag1397
ag179
aa(lp3660
g13
ag456
ag164
ag264
ag6
ag20
aa(lp3661
g56
ag456
ag86
ag2910
ag44
ag976
aa(lp3662
g11
ag782
ag5
ag73
ag61
ag536
aa(lp3663
g8
ag433
ag523
ag13
ag208
ag156
aa(lp3664
g8
ag102
ag144
ag69
ag71
ag8
aa(lp3665
g8
ag489
ag5
ag639
ag61
ag8
aa(lp3666
g3
ag34
ag12
ag14
ag38
ag8
aa(lp3667
g8
ag4
ag5
ag73
ag61
ag181
aa(lp3668
g1258
a(Vdesciend
F0.10003549489978918
tp3669
ag192
ag871
ag11
ag17
aa(lp3670
g24
ag34
ag31
ag14
ag29
ag25
aa(lp3671
g8
ag12
ag65
ag69
ag6
ag837
aa(lp3672
g24
ag46
ag31
ag14
ag5
ag25
aa(lp3673
g8
ag240
ag168
ag243
ag639
a(Vshield
F0.098427140241801714
tp3674
aa(lp3675
g24
ag78
ag69
ag6
ag11
ag25
aa(lp3676
g342
ag71
ag35
ag50
ag38
ag17
aa(lp3677
g17
ag34
ag31
ag20
ag118
ag110
aa(lp3678
g36
ag78
ag303
ag959
ag960
ag5
aa(lp3679
g38
ag34
ag5
ag36
ag11
ag261
aa(lp3680
g11
ag12
ag35
ag69
ag10
ag8
aa(lp3681
g269
ag28
ag31
ag20
ag10
ag50
aa(lp3682
g3
ag151
ag5
ag17
ag38
ag8
aa(lp3683
g38
ag34
ag12
ag36
ag6
ag261
aa(lp3684
g3
ag12
ag31
ag17
ag38
ag8
aa(lp3685
g8
ag34
ag5
ag6
ag118
ag181
aa(lp3686
g126
ag34
ag697
ag17
ag118
ag56
aa(lp3687
g3
ag28
ag31
ag36
ag36
ag8
aa(lp3688
g1166
ag34
ag5
ag14
ag6
ag118
aa(lp3689
g8
ag240
ag5
ag6
ag10
ag181
aa(lp3690
g17
ag205
ag206
ag160
ag356
ag22
aa(lp3691
g156
ag157
ag423
ag117
ag118
ag2577
aa(lp3692
g5
ag46
ag5
ag14
ag199
ag296
aa(lp3693
(Vcesc
F0.46339211014614373
tp3694
ag775
ag158
ag36
ag11
ag1376
aa(lp3695
g24
ag1374
ag5
ag14
ag6
ag25
aa(lp3696
g96
ag28
ag5
ag17
ag29
ag645
aa(lp3697
g38
ag40
ag69
ag17
ag61
ag8
aa(lp3698
g24
ag170
ag78
ag14
ag5
ag25
aa(lp3699
g8
ag58
ag480
ag3395
ag49
ag50
aa(lp3700
g3
ag12
ag5
ag6
ag10
ag8
aa(lp3701
g8
ag12
ag732
ag311
ag61
ag8
aa(lp3702
g118
ag163
ag1223
ag1224
ag35
ag108
aa(lp3703
g50
ag28
ag10
ag20
ag38
ag92
aa(lp3704
g1720
ag34
ag5
ag63
ag6
ag267
aa(lp3705
g13
ag99
ag5
ag69
ag118
ag312
aa(lp3706
g126
ag11
ag5
ag20
ag11
ag56
aa(lp3707
g126
ag170
ag5
ag6
ag38
ag56
aa(lp3708
g8
ag12
ag5
ag13
ag10
ag8
aa(lp3709
g118
ag12
ag206
ag96
ag10
ag8
aa(lp3710
g8
ag214
ag2624
ag3310
ag210
ag923
aa(lp3711
g11
ag275
ag86
ag69
ag65
ag29
aa(lp3712
g1275
ag34
ag78
ag20
ag61
ag311
aa(lp3713
g8
ag907
ag3337
ag78
ag38
ag1498
aa(lp3714
g36
ag28
ag31
ag35
ag38
ag174
aa(lp3715
g17
ag12
ag328
ag1620
ag29
ag8
aa(lp3716
g5
ag12
ag5
ag78
ag10
ag296
aa(lp3717
g154
ag4
ag10
ag36
ag6
ag8
aa(lp3718
g8
ag12
ag1044
ag301
ag61
ag8
aa(lp3719
g259
ag12
ag31
ag36
ag29
ag71
aa(lp3720
g56
ag12
ag35
ag96
ag10
ag8
aa(lp3721
g88
ag34
ag31
ag14
ag14
ag6
aa(lp3722
g17
ag46
ag5
ag13
ag118
ag110
aa(lp3723
g34
ag34
ag330
ag17
ag10
ag75
aa(lp3724
g3
ag11
ag50
ag17
ag208
ag8
aa(lp3725
g38
ag28
ag5
ag14
ag61
ag261
aa(lp3726
g3
ag550
ag10
ag14
ag61
ag8
aa(lp3727
g2811
ag170
ag500
ag501
ag770
ag71
aa(lp3728
g56
ag137
ag65
ag561
ag562
ag156
aa(lp3729
g13
ag99
ag12
ag54
ag6
ag17
aa(lp3730
g8
ag676
ag184
ag393
ag5
ag73
aa(lp3731
g8
ag12
ag31
ag191
ag61
ag8
aa(lp3732
g126
ag71
ag31
ag815
ag38
ag56
aa(lp3733
g24
ag12
ag5
ag210
ag61
ag5
aa(lp3734
g133
ag149
ag192
ag73
ag61
ag25
aa(lp3735
g55
ag34
ag5
ag6
ag10
ag504
aa(lp3736
g118
ag1199
ag2648
ag107
ag61
ag135
aa(lp3737
g56
ag12
ag108
ag6
ag61
ag17
aa(lp3738
g88
ag12
ag31
ag36
ag71
ag6
aa(lp3739
g8
ag12
ag5
ag1683
ag7
ag8
aa(lp3740
g8
ag12
ag12
ag66
ag10
ag8
aa(lp3741
g38
ag12
ag65
ag112
ag6
ag8
aa(lp3742
g3
ag4
ag31
ag36
ag11
ag8
aa(lp3743
g269
ag34
ag12
ag14
ag118
ag50
aa(lp3744
g80
ag34
ag163
ag17
ag10
ag81
aa(lp3745
g33
ag12
ag78
ag14
ag61
ag5
aa(lp3746
g24
ag46
ag670
ag56
ag11
ag20
aa(lp3747
g8
ag12
ag63
ag210
ag61
ag8
aa(lp3748
g8
ag12
ag5
ag311
ag6
ag837
aa(lp3749
g88
ag71
ag5
ag17
ag10
ag6
aa(lp3750
g50
ag28
ag5
ag14
ag55
ag92
aa(lp3751
g5
ag46
ag192
ag20
ag11
ag296
aa(lp3752
g833
ag170
ag5
ag17
ag36
ag4
aa(lp3753
g24
ag34
ag35
ag36
ag118
ag25
aa(lp3754
g83
ag35
ag29
ag925
ag61
ag907
aa(lp3755
g56
ag137
ag206
ag845
ag330
ag105
aa(lp3756
g8
ag12
ag5
ag36
ag61
ag8
aa(lp3757
g17
ag12
ag163
ag6
ag36
ag110
aa(lp3758
g34
ag34
ag31
ag14
ag671
ag75
aa(lp3759
g36
ag78
ag65
ag50
ag594
ag25
aa(lp3760
g122
ag114
ag97
ag69
ag267
ag311
aa(lp3761
g8
ag12
ag165
ag6
ag10
ag8
aa(lp3762
g56
ag179
ag12
ag6
ag151
ag406
aa(lp3763
g36
ag243
ag10
ag35
ag36
ag174
aa(lp3764
g333
ag11
ag163
ag17
ag11
ag334
aa(lp3765
g24
ag205
ag206
ag50
ag594
ag25
aa(lp3766
g24
ag12
ag31
ag50
ag11
ag25
aa(lp3767
g3346
ag46
ag5
ag20
ag71
ag1497
aa(lp3768
g8
ag12
ag226
ag35
ag163
ag181
aa(lp3769
g423
ag34
ag5
ag17
ag5
ag803
aa(lp3770
g50
ag11
ag31
ag14
ag61
ag92
aa(lp3771
g38
ag144
ag5
ag69
ag6
ag8
aa(lp3772
g8
ag91
ag5
ag36
ag29
ag181
aa(lp3773
g5
ag34
ag5
ag17
ag61
ag296
aa(lp3774
g8
ag58
ag402
ag69
ag6
ag1314
aa(lp3775
g5
ag28
ag5
ag14
ag36
ag296
aa(lp3776
g88
ag34
ag31
ag815
ag14
ag6
aa(lp3777
g259
ag12
ag163
ag36
ag6
ag71
aa(lp3778
g118
ag105
ag106
ag73
ag61
ag635
aa(lp3779
g8
ag4
ag5
ag35
ag36
ag181
aa(lp3780
g3
ag4
ag5
ag13
ag71
ag8
aa(lp3781
g1166
ag163
ag31
ag14
ag11
ag118
aa(lp3782
g5
ag28
ag12
ag36
ag61
ag296
aa(lp3783
g24
ag28
ag31
ag244
ag208
ag25
aa(lp3784
g314
ag28
ag116
ag871
ag11
ag119
aa(lp3785
g126
ag71
ag5
ag63
ag6
ag56
aa(lp3786
g24
ag34
ag31
ag35
ag29
ag25
aa(lp3787
g50
ag35
ag5
ag17
ag5
ag92
aa(lp3788
g8
ag28
ag31
ag36
ag36
ag181
aa(lp3789
g38
ag4
ag31
ag14
ag11
ag261
aa(lp3790
g40
ag12
ag31
ag35
ag7
ag1101
aa(lp3791
g8
ag137
ag97
ag865
ag3172
ag108
aa(lp3792
g17
ag71
ag31
ag20
ag61
ag110
aa(lp3793
g274
ag275
ag163
ag264
ag44
ag20
aa(lp3794
g88
ag35
ag31
ag14
ag6
ag6
aa(lp3795
g24
ag46
ag462
ag871
ag61
ag976
aa(lp3796
g24
ag144
ag519
ag35
ag36
ag25
aa(lp3797
g24
ag4
ag163
ag419
ag11
ag25
aa(lp3798
g13
ag46
ag31
ag50
ag10
ag312
aa(lp3799
g38
ag78
ag31
ag69
ag61
ag261
aa(lp3800
g24
ag179
ag5
ag28
ag14
ag25
aa(lp3801
g38
ag12
ag5
ag311
ag38
ag261
aa(lp3802
g3
ag12
ag272
ag17
ag10
ag8
aa(lp3803
g8
ag91
ag5
ag20
ag5
ag181
aa(lp3804
g36
ag35
ag5
ag476
ag38
ag174
aa(lp3805
g34
ag243
ag5
ag20
ag36
ag75
aa(lp3806
g56
ag149
ag192
ag1112
ag44
ag482
aa(lp3807
g3
ag78
ag5
ag69
ag6
ag8
aa(lp3808
g240
ag12
ag144
ag69
ag6
ag8
aa(lp3809
g24
ag12
ag35
ag6
ag38
ag25
aa(lp3810
g354
ag137
ag69
ag69
ag141
ag8
aa(lp3811
g792
ag28
ag5
ag36
ag7
ag192
aa(lp3812
g5
ag46
ag5
ag14
ag36
ag296
aa(lp3813
g24
ag639
ag5
ag390
ag225
ag5
aa(lp3814
g259
ag71
ag12
ag6
ag38
ag71
aa(lp3815
g97
ag163
ag2218
ag871
ag11
ag20
aa(lp3816
g10
ag270
ag44
ag405
ag815
ag97
aa(lp3817
g8
ag639
ag5
ag6
ag61
ag181
aa(lp3818
g55
ag18
ag19
ag20
ag21
ag1832
aa(lp3819
g34
ag102
ag5
ag36
ag61
ag75
aa(lp3820
g24
ag40
ag154
ag1876
ag208
ag25
aa(lp3821
g240
ag12
ag144
ag69
ag10
ag8
aa(lp3822
g36
ag240
ag84
ag73
ag61
ag50
aa(lp3823
g50
ag11
ag78
ag20
ag61
ag92
aa(lp3824
g8
ag12
ag163
ag20
ag10
ag8
aa(lp3825
g412
ag2217
ag1437
ag1518
ag1659
ag8
aa(lp3826
g8
ag11
ag31
ag14
ag6
ag181
aa(lp3827
g8
ag71
ag10
ag294
ag10
ag8
aa(lp3828
(Velevacion
F0.2296389444512841
tp3829
ag198
ag97
ag28
ag6
a(Vpatat
F0.12270158604506232
tp3830
aa(lp3831
g38
ag12
ag206
ag17
ag11
ag261
aa(lp3832
g17
ag114
ag10
ag17
ag118
ag110
aa(lp3833
g24
ag46
ag2102
ag925
ag108
ag8
aa(lp3834
g11
ag456
ag328
ag43
ag44
ag20
aa(lp3835
g40
ag602
ag330
ag28
ag919
a(Vgunn
F0.11584802753653593
tp3836
aa(lp3837
g137
ag71
ag5
ag20
ag14
ag592
aa(lp3838
g17
ag11
ag2876
ag63
ag397
ag20
aa(lp3839
g118
ag12
ag69
ag294
ag10
ag8
aa(lp3840
g8
ag28
ag31
ag73
ag61
ag8
aa(lp3841
g33
ag494
ag5
ag6
ag38
ag5
aa(lp3842
g269
ag34
ag31
ag63
ag61
ag50
aa(lp3843
g50
ag28
ag35
ag66
ag38
ag92
aa(lp3844
g8
ag355
ag5
ag73
ag61
ag8
aa(lp3845
g8
ag11
ag35
ag73
ag29
ag8
aa(lp3846
g8
ag12
ag5
ag35
ag38
ag181
aa(lp3847
g151
ag243
ag31
ag14
ag36
ag307
aa(lp3848
g88
ag12
ag5
ag17
ag14
ag6
aa(lp3849
g63
ag12
ag1325
ag1518
ag1659
ag8
aa(lp3850
g13
ag12
ag5
ag50
ag10
ag312
aa(lp3851
g36
ag1592
ag69
ag959
ag61
ag923
aa(lp3852
g78
ag46
ag955
ag123
ag124
ag20
aa(lp3853
g56
ag149
ag192
ag28
ag61
ag1142
aa(lp3854
g36
ag46
ag670
ag6
ag1313
ag29
aa(lp3855
g24
a(Vespectrometri
F0.09466096547451637
tp3856
a(Vbasur
F0.11826833726365243
tp3857
ag2094
ag61
ag8
aa(lp3858
g8
ag28
ag5
ag14
ag208
ag181
aa(lp3859
g3
ag1246
ag12
ag14
ag149
ag8
aa(lp3860
g24
ag243
ag5
ag6
ag38
ag25
aa(lp3861
g579
ag28
ag163
ag208
ag38
ag40
aa(lp3862
g2277
ag78
ag163
ag13
ag36
ag29
aa(lp3863
g8
ag4
ag5
ag14
ag11
ag181
aa(lp3864
g24
ag35
ag78
ag14
ag6
ag25
aa(lp3865
g24
ag12
ag480
ag17
ag118
ag25
aa(lp3866
g80
ag88
ag2868
ag6
ag61
ag406
aa(lp3867
g24
ag163
ag1890
ag36
ag61
ag135
aa(lp3868
g833
ag12
ag31
ag36
ag6
ag4
aa(lp3869
g5
ag139
ag330
ag28
ag36
ag172
aa(lp3870
g50
ag71
ag5
ag35
ag61
ag92
aa(lp3871
g50
ag2468
ag270
ag894
ag118
ag50
aa(lp3872
g1501
ag256
ag63
ag393
ag118
ag774
aa(lp3873
g83
a(Vconoceri
F0.12114971224558313
tp3874
ag1277
ag885
ag96
ag164
aa(lp3875
g8
ag34
ag31
ag35
ag14
ag181
aa(lp3876
g5
ag28
ag5
ag20
ag61
ag296
aa(lp3877
g27
ag53
ag97
ag160
ag6
ag17
aa(lp3878
g8
ag12
ag65
ag107
ag10
ag8
aa(lp3879
g33
ag28
ag31
ag69
ag36
ag5
aa(lp3880
g83
ag454
ag328
ag73
ag61
ag8
aa(lp3881
g8
ag78
ag5
ag17
ag208
ag181
aa(lp3882
g11
ag12
ag5
ag112
ag10
ag8
aa(lp3883
g50
ag35
ag31
ag14
ag61
ag92
aa(lp3884
g55
ag11
ag31
ag14
ag29
ag504
aa(lp3885
g50
ag35
ag5
ag13
ag71
ag92
aa(lp3886
g5
ag163
ag69
ag14
ag7
ag296
aa(lp3887
g38
ag28
ag31
ag17
ag61
ag261
aa(lp3888
g17
ag114
ag5
ag311
ag10
ag8
aa(lp3889
g10
ag28
ag206
ag14
ag11
ag15
aa(lp3890
g80
ag11
ag5
ag36
ag29
ag81
aa(lp3891
(Vmart
F0.10423171835654435
tp3892
ag149
ag192
ag1518
ag118
ag17
aa(lp3893
g170
ag171
ag84
ag73
ag61
ag234
aa(lp3894
g8
ag12
ag1759
ag96
ag10
ag8
aa(lp3895
g36
ag639
ag5
ag552
ag36
ag97
aa(lp3896
g33
ag240
ag5
ag14
ag208
ag5
aa(lp3897
g8
ag12
ag144
ag69
ag61
ag20
aa(lp3898
g88
ag12
ag31
ag14
ag11
ag6
aa(lp3899
g8
ag12
ag65
ag17
ag61
ag8
aa(lp3900
g24
ag34
ag31
ag13
ag38
ag25
aa(lp3901
g24
ag12
ag31
ag35
ag7
ag25
aa(lp3902
g56
ag669
ag497
ag267
ag49
ag907
aa(lp3903
g38
ag12
ag35
ag117
ag61
ag8
aa(lp3904
g24
ag46
ag206
ag160
ag356
ag192
aa(lp3905
g3
ag11
ag5
ag13
ag61
ag8
aa(lp3906
g56
ag149
ag1890
ag36
ag61
ag135
aa(lp3907
g38
ag34
ag5
ag6
ag38
ag261
aa(lp3908
g56
ag12
ag108
ag69
ag61
ag192
aa(lp3909
g8
ag11
ag5
ag14
ag36
ag181
aa(lp3910
g83
ag275
ag86
ag476
ag671
ag22
aa(lp3911
g163
ag78
ag184
ag20
ag21
ag6
aa(lp3912
g27
ag28
ag31
ag14
ag163
ag29
aa(lp3913
g8
ag274
ag462
ag1112
ag5
ag179
aa(lp3914
g8
ag105
ag5
ag17
ag61
ag8
aa(lp3915
g24
ag46
ag5
ag6
ag38
ag25
aa(lp3916
g259
ag179
ag31
ag20
ag199
ag71
aa(lp3917
g24
ag71
ag5
ag20
ag36
ag25
aa(lp3918
g8
ag454
ag423
ag2672
ag61
ag20
aa(lp3919
g36
ag179
ag338
ag1306
ag477
ag6
aa(lp3920
g5
ag71
ag5
ag36
ag38
ag296
aa(lp3921
g8
ag12
ag65
ag112
ag29
ag8
aa(lp3922
g38
ag11
ag31
ag14
ag61
ag261
aa(lp3923
g255
ag205
ag154
ag736
ag61
ag164
aa(lp3924
g24
ag46
ag2868
ag96
ag29
ag296
aa(lp3925
g8
ag144
ag31
ag69
ag6
ag17
aa(lp3926
g342
ag71
ag10
ag6
ag671
ag17
aa(lp3927
g5
ag12
ag10
ag6
ag208
ag296
aa(lp3928
g5
ag170
ag5
ag14
ag61
ag296
aa(lp3929
g248
ag12
ag519
ag35
ag29
ag20
aa(lp3930
g24
ag12
ag386
ag17
ag11
ag25
aa(lp3931
g255
ag28
ag695
ag35
ag498
ag5
aa(lp3932
g38
ag12
ag69
ag14
ag61
ag261
aa(lp3933
g2231
ag28
ag695
ag382
ag208
ag25
aa(lp3934
g33
ag34
ag31
ag14
ag163
ag5
aa(lp3935
g8
ag71
ag69
ag294
ag61
ag8
aa(lp3936
g1018
ag163
ag192
ag17
ag276
ag299
aa(lp3937
g137
ag91
ag78
ag14
ag118
ag139
aa(lp3938
g91
ag144
ag364
ag2672
ag340
ag25
aa(lp3939
g163
ag78
ag5
ag18
ag29
ag108
aa(lp3940
g8
ag34
ag5
ag63
ag118
ag181
aa(lp3941
g5
ag12
ag10
ag14
ag208
ag296
aa(lp3942
g11
ag275
ag86
ag190
ag208
ag1498
aa(lp3943
g27
ag270
ag44
ag206
ag14
ag179
aa(lp3944
g52
ag170
ag986
ag56
ag160
ag1924
aa(lp3945
g8
ag114
ag144
ag69
ag6
ag8
aa(lp3946
g314
ag12
ag330
ag264
ag3016
ag152
aa(lp3947
g38
ag2413
ag2012
ag2013
ag65
ag8
aa(lp3948
g34
ag78
ag12
ag14
ag61
ag75
aa(lp3949
g8
ag71
ag29
ag330
ag10
ag8
aa(lp3950
g8
ag114
ag206
ag96
ag10
ag8
aa(lp3951
g269
ag11
ag5
ag14
ag6
ag50
aa(lp3952
g269
ag34
ag12
ag104
ag118
ag50
aa(lp3953
g126
ag12
ag5
ag13
ag11
ag56
aa(lp3954
g423
ag12
ag78
ag17
ag6
ag803
aa(lp3955
g24
ag34
ag192
ag17
ag38
ag25
aa(lp3956
g24
ag12
ag108
ag20
ag14
ag25
aa(lp3957
g38
ag91
ag31
ag36
ag14
ag261
aa(lp3958
g118
ag179
ag1525
ag576
ag179
ag1159
aa(lp3959
g342
ag179
ag69
ag35
ag7
ag17
aa(lp3960
g3
ag12
ag31
ag6
ag118
ag8
aa(lp3961
g36
ag40
ag163
ag36
ag7
ag174
aa(lp3962
g8
ag34
ag5
ag14
ag11
ag181
aa(lp3963
g24
ag34
ag31
ag69
ag38
ag25
aa(lp3964
g259
ag28
ag330
ag14
ag160
ag71
aa(lp3965
g255
ag35
ag29
ag123
ag65
ag20
aa(lp3966
g496
ag13
ag330
ag28
ag36
ag172
aa(lp3967
g239
ag602
ag44
ag123
ag160
ag55
aa(lp3968
g77
ag13
ag5
ag20
ag38
ag20
aa(lp3969
(Velimin
F0.096049861879090773
tp3970
ag78
ag163
ag264
ag6
ag8
aa(lp3971
g91
ag144
ag947
ag2483
ag11
ag210
aa(lp3972
g24
ag40
ag5
ag50
ag61
ag25
aa(lp3973
g83
ag46
ag97
ag43
ag44
ag20
aa(lp3974
g13
ag12
ag5
ag17
ag118
ag312
aa(lp3975
g24
ag12
ag31
ag36
ag36
ag25
aa(lp3976
g13
ag151
ag5
ag14
ag61
ag312
aa(lp3977
g55
ag13
ag315
ag206
ag5
ag1097
aa(lp3978
g8
ag170
ag31
ag14
ag38
ag181
aa(lp3979
g17
ag604
ag86
ag6
ag14
ag442
aa(lp3980
g8
ag456
ag31
ag6
ag199
ag181
aa(lp3981
g10
ag28
ag5
ag14
ag6
ag15
aa(lp3982
g8
ag149
ag168
ag457
ag810
ag156
aa(lp3983
g38
ag12
ag12
ag14
ag6
ag261
aa(lp3984
g24
ag12
ag50
ag69
ag208
ag25
aa(lp3985
g8
ag34
ag31
ag63
ag38
ag181
aa(lp3986
g8
ag102
ag144
ag311
ag10
ag8
aa(lp3987
g40
ag12
ag31
ag117
ag11
ag1101
aa(lp3988
g34
ag12
ag31
ag20
ag71
ag75
aa(lp3989
g8
ag1241
ag69
ag17
ag61
ag8
aa(lp3990
g10
ag78
ag31
ag6
ag7
ag15
aa(lp3991
g342
ag28
ag5
ag14
ag330
ag17
aa(lp3992
g163
ag78
ag47
ag69
ag6
ag1314
aa(lp3993
g8
ag4
ag31
ag191
ag61
ag8
aa(lp3994
g154
ag1753
ag330
ag112
ag6
ag164
aa(lp3995
g38
ag34
ag5
ag63
ag14
ag261
aa(lp3996
g233
ag46
ag86
ag14
ag29
ag234
aa(lp3997
g8
ag454
ag1296
ag89
ag6
ag192
aa(lp3998
g269
ag11
ag31
ag35
ag118
ag50
aa(lp3999
g17
ag12
ag144
ag17
ag61
ag8
aa(lp4000
g24
ag35
ag66
ag6
ag61
ag25
aa(lp4001
g17
ag71
ag31
ag6
ag61
ag110
aa(lp4002
g33
ag34
ag31
ag815
ag14
ag5
aa(lp4003
g248
ag28
ag31
ag14
ag14
ag20
aa(lp4004
g24
ag34
ag31
ag114
ag208
ag25
aa(lp4005
g88
ag28
ag5
ag36
ag61
ag6
aa(lp4006
g56
ag46
ag170
ag36
ag6
ag3601
aa(lp4007
g5
ag604
ag10
ag35
ag6
ag296
aa(lp4008
g55
ag1830
ag330
ag885
ag24
ag1199
aa(lp4009
g50
ag28
ag31
ag35
ag36
ag92
aa(lp4010
g34
ag34
ag480
ag6
ag38
ag75
aa(lp4011
g38
ag34
ag5
ag35
ag11
ag261
aa(lp4012
g5
ag34
ag206
ag69
ag61
ag296
aa(lp4013
g17
ag12
ag35
ag20
ag61
ag8
aa(lp4014
g55
ag168
ag328
ag409
a(Vcascabele
F0.17728176884863797
tp4015
ag50
aa(lp4016
g17
ag12
ag480
ag20
ag71
ag110
aa(lp4017
g24
ag46
ag336
ag736
ag208
ag25
aa(lp4018
g38
ag71
ag31
ag36
ag6
ag261
aa(lp4019
g8
ag12
ag294
ag311
ag6
ag837
aa(lp4020
g24
ag1374
ag5
ag6
ag6
ag25
aa(lp4021
g189
ag613
ag244
ag2013
ag65
ag8
aa(lp4022
g8
ag1005
ag303
ag999
ag44
ag20
aa(lp4023
g8
ag12
ag65
ag294
ag10
ag8
aa(lp4024
g3
ag170
ag5
ag117
ag118
ag8
aa(lp4025
g17
ag18
ag986
ag208
ag61
ag135
aa(lp4026
g24
ag243
ag5
ag14
ag118
ag25
aa(lp4027
g56
ag28
ag35
ag14
ag5
ag555
aa(lp4028
g8
ag4
ag5
ag20
ag38
ag181
aa(lp4029
g774
ag179
ag69
ag2672
a(Vpobrecit
F0.082511087901446206
tp4030
ag354
aa(lp4031
g5
ag28
ag35
ag6
ag118
ag296
aa(lp4032
g154
ag613
ag192
ag165
ag65
ag29
aa(lp4033
g56
ag137
ag1830
ag191
ag208
ag1803
aa(lp4034
g24
ag34
ag163
ag13
ag11
ag25
aa(lp4035
g133
ag602
ag330
ag28
ag44
ag20
aa(lp4036
g8
ag71
ag480
ag14
ag160
ag181
aa(lp4037
g24
ag4
ag31
ag35
ag36
ag25
aa(lp4038
g24
ag71
ag5
ag20
ag38
ag25
aa(lp4039
g34
ag46
ag50
ag14
ag61
ag75
aa(lp4040
g38
ag71
ag5
ag35
ag61
ag261
aa(lp4041
g34
ag12
ag86
ag35
ag61
ag75
aa(lp4042
g13
ag270
ag44
ag191
ag772
ag144
aa(lp4043
g83
a(Vambient
F0.088355185325160443
tp4044
ag19
ag20
ag397
ag152
aa(lp4045
g3
ag12
ag5
ag20
ag38
ag8
aa(lp4046
g10
ag392
ag184
ag28
ag44
ag22
aa(lp4047
g33
ag34
ag507
ag6
ag38
ag5
aa(lp4048
g13
ag46
ag10
ag412
ag6
ag312
aa(lp4049
g3
ag35
ag31
ag17
ag208
ag8
aa(lp4050
g8
ag12
ag5
ag20
ag149
ag181
aa(lp4051
g11
ag46
ag5
ag267
ag2094
ag71
aa(lp4052
g33
ag34
ag31
ag17
ag5
ag5
aa(lp4053
g1658
ag149
ag47
ag48
ag36
ag20
aa(lp4054
g8
ag11
a(Vinciert
F0.11321799726379395
tp4055
ag73
ag61
ag8
aa(lp4056
g833
ag34
ag31
ag6
ag61
ag4
aa(lp4057
g50
ag71
ag50
ag6
ag71
ag92
aa(lp4058
g50
ag11
ag31
ag14
ag38
ag92
aa(lp4059
g342
ag28
ag507
ag66
ag208
ag17
aa(lp4060
g24
ag46
ag5
ag552
ag61
ag406
aa(lp4061
g126
ag91
ag5
ag35
ag11
ag56
aa(lp4062
g8
ag12
ag65
ag267
ag61
ag8
aa.