(lp1
(lp2
(S'pues'
I445
tp3
a(S'dij'
I491
tp4
ag4
a(S'pued'
I490
tp5
ag5
a(S'hombr'
I303
tp6
aa(lp7
g3
a(S'banc'
I13
tp8
a(S'aqui'
I176
tp9
a(S'air'
I96
tp10
a(Vbum
I12
tp11
ag4
aa(lp12
(S'viej'
I308
tp13
a(S'ceram'
I9
tp14
ag4
ag5
a(S'azuc'
I10
tp15
a(Vrap
I25
tp16
aa(lp17
g4
ag4
ag5
ag5
a(S'tiemp'
I296
tp18
ag3
aa(lp19
(S'golondrin'
I17
tp20
ag4
a(S'bien'
I291
tp21
a(S'arbol'
I301
tp22
a(S'vez'
I277
tp23
ag4
aa(lp24
g3
ag4
ag4
a(S'gran'
I287
tp25
a(S'nin'
I318
tp26
a(S'plaz'
I13
tp27
aa(lp28
g4
ag18
a(Vgener
I49
tp29
ag5
a(S'juni'
I9
tp30
ag26
aa(lp31
(S'madr'
I230
tp32
a(Vequivalent
I11
tp33
ag5
a(S'eh'
I13
tp34
ag18
a(S'habitual'
I11
tp35
aa(lp36
g4
ag4
a(S'dia'
I295
tp37
ag5
ag32
ag26
aa(lp38
(S'dos'
I354
tp39
ag37
ag9
a(S'mejill'
I27
tp40
a(S'buen'
I320
tp41
a(S'design'
I11
tp42
aa(lp43
(S'nuev'
I218
tp44
ag4
ag44
ag5
ag5
a(S'mientr'
I179
tp45
aa(lp46
g3
ag4
ag5
ag25
ag5
ag3
aa(lp47
g32
a(S'bosqu'
I208
tp48
a(S'consider'
I95
tp49
a(S'medi'
I134
tp50
ag5
a(S'ley'
I32
tp51
aa(lp52
g4
ag4
ag4
ag37
ag5
ag6
aa(lp53
g39
a(S'mund'
I307
tp54
a(Vactitud
I9
tp55
ag37
ag41
a(S'fech'
I9
tp56
aa(lp57
(S'respir'
I16
tp58
a(S'relacion'
I61
tp59
ag29
ag5
a(S'pared'
I37
tp60
a(S'model'
I50
tp61
aa(lp62
(S'pud'
I118
tp63
a(S'inclus'
I67
tp64
ag29
a(S'aquell'
I254
tp65
a(S'ahor'
I154
tp66
ag37
aa(lp67
g3
ag4
ag4
ag25
ag23
ag4
aa(lp68
g18
ag4
ag4
ag5
ag18
ag3
aa(lp69
g4
ag4
a(S'blanc'
I118
tp70
a(S'quebr'
I17
tp71
ag5
a(S'tech'
I16
tp72
aa(lp73
g26
ag4
ag4
ag5
a(S'obra'
I32
tp74
a(S'hoj'
I162
tp75
aa(lp76
g54
ag4
ag4
ag5
ag5
a(S'pobr'
I125
tp77
aa(lp78
(Vtuk
I12
tp79
ag4
ag18
ag5
ag11
ag4
aa(lp80
(S'sabi'
I149
tp81
a(Vlei
I20
tp82
a(S'mariner'
I9
tp83
ag5
a(S'frot'
I11
tp84
ag37
aa(lp85
g20
a(S'dios'
I280
tp86
ag5
ag5
ag18
ag4
aa(lp87
g3
a(S'exclam'
I152
tp88
ag5
ag5
ag5
ag3
aa(lp89
g4
ag4
ag4
a(S'lueg'
I187
tp90
ag54
ag72
aa(lp91
g3
a(S'marz'
I15
tp92
ag5
a(S'lad'
I99
tp93
ag41
ag3
aa(lp94
g4
a(S'ingles'
I50
tp95
ag15
ag5
ag41
ag3
aa(lp96
g41
a(S'cuent'
I131
tp97
a(S'cuerp'
I102
tp98
a(Vcompart
I31
tp99
a(Velis
I58
tp100
ag4
aa(lp101
g13
a(S'delanter'
I9
tp102
ag4
a(S'posit'
I9
tp103
a(S'notici'
I14
tp104
ag21
aa(lp105
g3
ag4
ag4
ag5
ag26
ag27
aa(lp106
(S'cad'
I265
tp107
a(S'pais'
I87
tp108
ag5
a(S'anos'
I208
tp109
ag5
a(S'troz'
I19
tp110
aa(lp111
g3
ag4
ag18
ag5
ag39
ag3
aa(lp112
g4
ag37
ag5
ag5
ag5
ag75
aa(lp113
g45
ag4
ag44
ag5
ag5
ag4
aa(lp114
g3
ag3
a(Vmineri
I15
tp115
ag5
ag84
a(S'trist'
I35
tp116
aa(lp117
(S'tal'
I163
tp118
a(S'ancian'
I61
tp119
ag4
ag5
ag26
a(S'flor'
I262
tp120
aa(lp121
g18
ag3
ag55
ag37
a(S'caball'
I73
tp122
ag3
aa(lp123
g32
ag48
ag49
a(S'pesc'
I22
tp124
a(S'maner'
I84
tp125
ag4
aa(lp126
g79
ag4
ag18
ag5
ag18
a(S'embarg'
I120
tp127
aa(lp128
g18
ag39
ag55
a(S'acer'
I13
tp129
ag32
ag42
aa(lp130
g3
ag54
ag5
ag5
ag5
ag4
aa(lp131
g18
ag97
ag86
a(S'tod'
I390
tp132
ag20
a(S'exhal'
I10
tp133
aa(lp134
g4
ag4
a(Vbarry
I12
tp135
ag10
ag11
ag37
aa(lp136
g41
ag92
ag5
a(S'imag'
I32
tp137
ag39
ag3
aa(lp138
g41
ag4
ag5
ag5
ag18
ag4
aa(lp139
g4
ag9
ag4
ag5
ag5
ag48
aa(lp140
g44
ag4
ag4
ag39
a(S'maravill'
I69
tp141
ag45
aa(lp142
g54
a(S'asom'
I35
tp143
a(S'angusti'
I14
tp144
a(S'manzan'
I58
tp145
a(S'fas'
I12
tp146
ag107
aa(lp147
g4
ag86
ag4
ag5
ag13
ag4
aa(lp148
(S'terrestr'
I33
tp149
ag4
ag4
ag5
ag41
ag3
aa(lp150
(Vcientif
I20
tp151
ag4
ag115
a(S'dot'
I13
tp152
a(S'plant'
I116
tp153
ag3
aa(lp154
g3
a(S'sauc'
I26
tp155
ag5
ag5
ag60
ag35
aa(lp156
g26
ag66
ag4
ag5
ag26
ag75
aa(lp157
(S'bes'
I92
tp158
a(Vlenguaj
I52
tp159
a(Vbillboard
I14
tp160
a(S'asi'
I270
tp161
ag75
ag61
aa(lp162
g4
ag39
ag4
ag5
ag18
ag37
aa(lp163
g4
ag4
ag5
ag5
ag75
ag3
aa(lp164
(S'muj'
I133
tp165
ag95
ag15
ag5
ag29
ag26
aa(lp166
g37
a(S'apret'
I18
tp167
a(S'cun'
I15
tp168
a(S'oficial'
I35
tp169
ag122
ag3
aa(lp170
g4
ag33
ag5
ag34
ag18
ag37
aa(lp171
g4
ag4
ag5
ag5
ag5
ag18
aa(lp172
(Vcreador
I13
tp173
ag4
ag5
ag23
ag18
ag3
aa(lp174
g4
a(S'navid'
I10
tp175
ag119
ag161
ag122
a(S'servici'
I20
tp176
aa(lp177
(S'hijit'
I15
tp178
ag54
ag29
ag5
ag15
a(S'mal'
I108
tp179
aa(lp180
g54
a(S'asombr'
I15
tp181
a(S'fif'
I28
tp182
a(S'oro'
I113
tp183
a(S'ardient'
I12
tp184
ag23
aa(lp185
g149
ag4
ag5
ag5
a(S'puebl'
I61
tp186
ag3
aa(lp187
(S'person'
I144
tp188
ag21
a(Vpison
I18
tp189
a(S'suel'
I142
tp190
ag153
ag3
aa(lp191
(S'podri'
I70
tp192
a(S'inviern'
I42
tp193
ag29
ag5
a(S'sastr'
I9
tp194
a(S'ventan'
I95
tp195
aa(lp196
g20
ag161
ag5
ag6
ag5
ag4
aa(lp197
g41
ag159
ag4
ag25
a(Vmecan
I15
tp198
ag4
aa(lp199
(S'particip'
I28
tp200
a(S'sid'
I150
tp201
a(S'tierr'
I257
tp202
a(S'relucient'
I10
tp203
a(S'grand'
I231
tp204
ag51
aa(lp205
(Vduend
I31
tp206
a(Vpececill
I10
tp207
ag29
ag5
ag75
ag18
aa(lp208
g4
ag18
ag124
a(Vsigui
I38
tp209
a(Vdefinit
I10
tp210
ag37
aa(lp211
g151
a(S'alrededor'
I65
tp212
ag144
ag8
a(S'polv'
I25
tp213
ag21
aa(lp214
g23
a(S'aun'
I163
tp215
ag4
a(S'patit'
I16
tp216
a(S'distincion'
I12
tp217
ag23
aa(lp218
g151
ag4
a(S'human'
I102
tp219
ag5
ag18
ag37
aa(lp220
g3
a(S'grafic'
I17
tp221
ag49
ag5
ag18
a(S'enter'
I81
tp222
aa(lp223
g4
ag4
ag18
ag5
ag75
ag3
aa(lp224
g41
ag124
ag37
a(S'puert'
I111
tp225
ag5
ag51
aa(lp226
g54
ag4
ag4
ag5
ag161
ag4
aa(lp227
g4
ag9
ag4
ag25
ag198
ag37
aa(lp228
g4
ag4
ag4
ag5
a(S'imagin'
I32
tp229
ag72
aa(lp230
(S'cabez'
I197
tp231
ag4
ag120
ag5
ag5
ag107
aa(lp232
(S'aunqu'
I186
tp233
ag48
a(Vpuest
I74
tp234
a(S'respons'
I12
tp235
a(S'sig'
I39
tp236
ag231
aa(lp237
g118
ag4
ag4
ag5
a(S'ros'
I162
tp238
ag120
aa(lp239
g173
ag4
ag5
ag5
a(S'ray'
I70
tp240
ag3
aa(lp241
g3
ag4
ag4
ag90
ag5
ag27
aa(lp242
g3
ag4
ag4
ag39
ag5
ag120
aa(lp243
g4
ag4
ag5
ag6
a(S'hermos'
I139
tp244
ag4
aa(lp245
g149
ag4
ag4
ag5
ag238
ag3
aa(lp246
g18
ag4
ag4
ag5
ag39
ag25
aa(lp247
g4
ag39
ag4
ag5
ag5
a(S'padr'
I216
tp248
aa(lp249
g3
ag4
ag4
ag5
a(S'pequen'
I215
tp250
ag3
aa(lp251
g41
ag4
ag4
ag5
ag32
ag3
aa(lp252
g109
ag92
ag5
ag10
ag18
ag37
aa(lp253
g4
ag250
ag4
ag5
ag5
ag248
aa(lp254
g3
ag82
ag120
ag5
ag18
ag3
aa(lp255
g3
a(S'entonc'
I210
tp256
ag4
ag25
ag18
ag27
aa(lp257
g4
ag21
ag4
ag5
ag5
ag4
aa(lp258
g79
a(S'vid'
I201
tp259
ag26
ag39
ag84
a(S'alli'
I194
tp260
aa(lp261
g188
ag4
ag4
ag5
ag5
a(S'despu'
I131
tp262
aa(lp263
g202
ag25
ag23
a(Vhues
I18
tp264
ag204
ag4
aa(lp265
g192
ag4
ag18
ag203
ag84
ag37
aa(lp266
g13
a(S'atmosfer'
I45
tp267
ag5
a(S'joven'
I24
tp268
a(Velectron
I32
tp269
ag75
aa(lp270
(S'guitarr'
I30
tp271
a(S'trai'
I13
tp272
ag234
a(S'libr'
I141
tp273
ag5
ag51
aa(lp274
g44
ag48
a(Vperfect
I17
tp275
ag5
ag84
ag56
aa(lp276
g4
a(S'hij'
I228
tp277
ag4
ag5
ag5
ag26
aa(lp278
g58
a(S'respuest'
I14
tp279
ag161
ag5
ag15
ag18
aa(lp280
g44
ag4
ag5
ag39
ag5
ag41
aa(lp281
(Vactuacion
I12
tp282
ag4
ag4
ag5
ag5
ag6
aa(lp283
g4
ag39
ag55
ag5
a(S'alegri'
I46
tp284
ag3
aa(lp285
g39
a(S'perfum'
I12
tp286
a(S'algun'
I107
tp287
a(Vcomod
I16
tp288
ag215
ag4
aa(lp289
g39
a(S'dieron'
I27
tp290
ag86
ag132
a(S'futbol'
I163
tp291
ag4
aa(lp292
g18
ag92
a(S'quereis'
I10
tp293
a(Vmuev
I20
tp294
ag18
ag37
aa(lp295
g173
ag4
ag4
ag39
ag23
ag3
aa(lp296
g18
ag92
ag4
a(Vsimil
I13
tp297
ag29
a(S'rey'
I170
tp298
aa(lp299
g3
ag4
ag4
ag93
ag5
ag4
aa(lp300
g41
ag86
ag4
ag5
ag39
ag3
aa(lp301
g173
ag4
ag4
ag5
a(S'semej'
I31
tp302
ag3
aa(lp303
g3
ag3
ag115
ag161
ag75
ag161
aa(lp304
g3
ag48
ag4
ag5
a(S'cos'
I222
tp305
ag3
aa(lp306
g4
ag4
ag4
ag5
ag39
ag3
aa(lp307
g4
ag4
ag4
ag39
ag54
ag3
aa(lp308
g4
ag4
ag5
ag5
ag39
ag3
aa(lp309
g3
ag4
ag4
ag22
ag54
a(Vacces
I19
tp310
aa(lp311
g4
ag18
ag5
ag5
ag54
ag3
aa(lp312
(Vayunt
I9
tp313
ag97
ag86
ag132
ag20
a(S'herman'
I134
tp314
aa(lp315
g4
ag4
ag120
ag5
ag161
ag41
aa(lp316
g4
ag9
ag4
ag5
ag5
ag3
aa(lp317
g173
ag4
ag81
ag6
ag5
ag3
aa(lp318
g4
ag4
ag18
ag5
ag18
ag72
aa(lp319
g4
ag4
ag4
ag5
ag39
ag4
aa(lp320
g4
ag4
ag4
ag5
ag204
ag4
aa(lp321
g37
a(Vdiabl
I20
tp322
ag144
a(S'valor'
I60
tp323
ag39
ag3
aa(lp324
g4
a(S'comprendi'
I13
tp325
ag119
ag161
ag11
ag37
aa(lp326
g26
a(S'confi'
I12
tp327
ag115
a(S'histori'
I119
tp328
ag204
ag3
aa(lp329
g39
a(S'ensegu'
I28
tp330
a(S'moment'
I106
tp331
ag137
ag122
ag3
aa(lp332
g4
ag18
ag124
ag5
ag11
ag3
aa(lp333
g20
a(S'primer'
I181
tp334
ag4
ag5
a(S'larg'
I163
tp335
ag4
aa(lp336
g32
ag33
ag4
ag5
ag202
ag97
aa(lp337
g3
ag215
ag4
ag216
ag217
ag61
aa(lp338
(S'tampoc'
I33
tp339
ag3
a(Vafect
I18
tp340
ag39
ag84
ag45
aa(lp341
(S'mism'
I279
tp342
ag124
a(Vtyler
I13
tp343
ag5
ag84
ag3
aa(lp344
g4
ag4
ag160
ag9
ag104
ag21
aa(lp345
g39
ag4
ag18
ag203
ag291
ag21
aa(lp346
g4
ag4
ag5
a(S'oscur'
I73
tp347
ag5
ag4
aa(lp348
g3
ag4
ag4
ag5
ag18
ag27
aa(lp349
g3
ag4
ag4
ag37
ag5
ag3
aa(lp350
g4
ag14
ag4
a(S'posei'
I13
tp351
ag104
ag37
aa(lp352
g3
ag39
ag107
ag5
ag5
ag27
aa(lp353
g20
ag3
ag4
ag5
ag39
ag4
aa(lp354
g118
ag4
ag120
ag5
ag5
ag120
aa(lp355
g4
ag4
ag22
ag22
ag90
a(S'produccion'
I9
tp356
aa(lp357
(S'uso'
I30
tp358
ag4
ag4
ag161
ag75
ag222
aa(lp359
g54
ag4
ag5
ag5
ag5
ag4
aa(lp360
g4
ag4
ag335
ag5
a(S'siempr'
I170
tp361
ag72
aa(lp362
g298
ag286
ag287
ag34
ag18
ag4
aa(lp363
g4
ag92
ag5
ag268
a(S'mantequill'
I9
tp364
a(S'sient'
I28
tp365
aa(lp366
g4
ag4
ag277
ag5
ag86
ag3
aa(lp367
(S'formacion'
I19
tp368
a(S'remont'
I16
tp369
ag18
ag5
ag18
ag37
aa(lp370
g4
ag3
a(S'nucle'
I16
tp371
ag5
ag361
ag72
aa(lp372
g3
ag4
ag5
ag5
ag39
ag41
aa(lp373
g32
ag190
a(S'cerd'
I24
tp374
ag5
ag84
ag3
aa(lp375
(S'siguient'
I74
tp376
ag256
ag182
ag10
ag11
ag4
aa(lp377
g215
ag4
ag5
ag5
ag23
ag4
aa(lp378
g4
ag3
ag5
ag161
ag39
ag356
aa(lp379
g4
ag4
ag202
ag39
ag5
ag4
aa(lp380
g4
ag3
ag5
ag5
ag54
ag72
aa(lp381
g151
ag193
ag29
a(S'especi'
I78
tp382
ag49
ag18
aa(lp383
(S'cesp'
I13
tp384
ag48
ag5
ag225
ag122
ag3
aa(lp385
(S'coc'
I14
tp386
a(S'mayordom'
I10
tp387
ag4
ag384
a(S'cuatr'
I58
tp388
ag291
aa(lp389
g32
a(S'ubic'
I15
tp390
ag32
a(Vraic
I17
tp391
ag122
a(S'eur'
I12
tp392
aa(lp393
g4
ag9
ag5
ag22
ag122
ag4
aa(lp394
g54
ag4
ag65
ag6
ag202
a(S'solitari'
I15
tp395
aa(lp396
g26
ag4
ag4
ag6
ag26
ag75
aa(lp397
g3
ag4
ag4
ag5
a(S'muert'
I167
tp398
ag27
aa(lp399
g4
ag260
ag4
ag5
ag5
ag4
aa(lp400
g20
ag4
ag4
ag5
ag23
ag4
aa(lp401
g384
ag127
a(Vdescend
I9
tp402
a(S'diri'
I12
tp403
ag41
ag42
aa(lp404
g4
ag256
ag4
ag5
ag23
ag4
aa(lp405
g4
ag4
ag4
ag5
ag5
ag6
aa(lp406
g54
ag92
ag32
ag398
ag334
a(S'hiz'
I80
tp407
aa(lp408
g267
ag259
ag26
ag39
ag75
ag26
aa(lp409
g39
ag221
ag29
ag5
ag41
a(S'gracios'
I13
tp410
aa(lp411
(S'nunc'
I135
tp412
ag387
ag86
ag132
ag20
ag133
aa(lp413
g4
ag4
ag5
ag132
ag5
ag4
aa(lp414
g44
ag48
ag48
ag92
ag5
ag51
aa(lp415
g3
ag4
ag5
ag5
ag5
ag6
aa(lp416
g20
ag25
ag4
ag22
ag335
ag4
aa(lp417
g4
ag18
a(S'cer'
I15
tp418
a(S'mang'
I9
tp419
ag74
ag41
aa(lp420
g4
ag277
ag5
ag5
ag86
ag3
aa(lp421
(S'reci'
I20
tp422
ag39
ag248
ag5
ag5
ag161
aa(lp423
g4
ag221
ag29
ag5
ag229
ag3
aa(lp424
g4
ag3
ag115
ag161
ag75
ag161
aa(lp425
g44
ag290
ag9
ag382
ag18
ag37
aa(lp426
g4
ag4
ag4
ag5
ag66
ag4
aa(lp427
g4
ag4
ag4
ag5
ag398
ag4
aa(lp428
g4
ag18
ag124
ag5
ag11
ag4
aa(lp429
g271
ag272
ag107
a(S'apart'
I31
tp430
a(S'dad'
I58
tp431
ag4
aa(lp432
g4
ag39
ag4
ag5
ag32
ag3
aa(lp433
g20
ag3
ag70
ag5
ag39
ag4
aa(lp434
(S'echab'
I13
tp435
a(S'pus'
I136
tp436
ag5
ag225
ag5
ag23
aa(lp437
g233
ag167
ag44
ag351
ag11
ag4
aa(lp438
g4
ag4
ag4
ag5
ag60
ag4
aa(lp439
(S'elabor'
I9
tp440
ag25
ag5
ag93
ag229
ag45
aa(lp441
g54
ag39
ag4
ag132
ag5
ag3
aa(lp442
g256
ag4
ag4
ag5
ag39
a(Vlun
I76
tp443
aa(lp444
g41
ag4
ag5
ag5
ag5
ag4
aa(lp445
g37
ag93
ag119
ag161
ag18
ag97
aa(lp446
g3
ag4
ag5
ag5
ag5
ag23
aa(lp447
g39
ag290
ag9
ag37
a(Vchiquill
I57
tp448
ag4
aa(lp449
g79
a(S'todavi'
I47
tp450
ag219
ag5
ag18
ag37
aa(lp451
g13
ag48
ag234
ag273
ag54
ag4
aa(lp452
g3
ag4
ag4
ag5
ag39
ag4
aa(lp453
g79
ag4
ag18
a(S'ardi'
I14
tp454
ag5
ag37
aa(lp455
g4
ag39
ag4
ag25
ag13
ag3
aa(lp456
g4
ag48
ag5
ag5
ag60
ag72
aa(lp457
g4
ag4
ag4
ag5
a(S'planet'
I107
tp458
ag356
aa(lp459
g235
ag4
ag107
ag5
ag5
ag32
aa(lp460
g54
ag155
ag5
ag5
ag60
ag61
aa(lp461
g3
ag4
ag4
ag5
ag13
ag3
aa(lp462
g3
ag277
ag4
ag5
ag5
ag27
aa(lp463
g4
ag18
ag4
ag5
ag39
ag3
aa(lp464
g13
ag3
ag115
ag99
a(Vsemill
I19
tp465
ag42
aa(lp466
g41
ag4
ag5
ag132
ag5
ag3
aa(lp467
g244
ag59
ag29
ag5
ag60
ag61
aa(lp468
g173
ag259
ag4
ag5
ag26
ag3
aa(lp469
g41
ag3
ag37
ag347
ag74
ag48
aa(lp470
g4
ag3
a(S'agu'
I242
tp471
ag5
ag5
ag356
aa(lp472
g84
ag25
a(S'queri'
I58
tp473
a(S'tej'
I51
tp474
ag18
ag37
aa(lp475
(S'unic'
I126
tp476
ag33
ag44
ag384
ag215
ag3
aa(lp477
g41
ag4
a(Vzorr
I14
tp478
ag22
a(S'subi'
I20
tp479
ag3
aa(lp480
(Vinocent
I12
tp481
ag23
ag48
ag5
ag84
ag26
aa(lp482
(S'bailarin'
I19
tp483
ag14
ag4
a(S'lob'
I49
tp484
ag260
ag97
aa(lp485
g149
a(Vflot
I30
tp486
ag5
ag5
ag5
ag3
aa(lp487
g173
ag3
ag5
ag5
ag5
ag3
aa(lp488
g79
ag33
ag4
ag5
ag41
ag37
aa(lp489
g4
ag37
ag4
ag5
ag335
ag4
aa(lp490
g4
ag207
ag29
ag5
ag18
ag18
aa(lp491
g4
ag221
a(Vsistem
I115
tp492
ag5
ag75
ag107
aa(lp493
g3
ag277
ag4
ag5
ag5
ag4
aa(lp494
g235
ag4
ag5
ag5
ag204
ag32
aa(lp495
g178
ag290
ag293
a(S'unas'
I58
tp496
ag18
ag75
aa(lp497
g3
ag39
ag4
ag5
ag5
ag310
aa(lp498
g4
ag18
ag4
ag5
a(S'dem'
I103
tp499
ag37
aa(lp500
g18
ag4
ag5
ag5
ag5
ag37
aa(lp501
g151
ag290
ag9
ag77
ag210
ag3
aa(lp502
g4
ag250
ag5
ag5
ag161
ag37
aa(lp503
(S'noch'
I209
tp504
ag4
a(S'gat'
I35
tp505
ag10
ag11
ag4
aa(lp506
g6
ag4
ag4
ag5
ag39
ag3
aa(lp507
g347
ag4
ag277
ag5
ag5
ag231
aa(lp508
g4
ag221
a(Vmader
I37
tp509
ag298
ag75
ag222
aa(lp510
g4
ag260
ag4
ag5
ag388
ag18
aa(lp511
g200
ag201
ag4
ag5
ag15
ag18
aa(lp512
g118
ag4
a(Vsiend
I59
tp513
ag5
ag5
ag120
aa(lp514
g4
ag92
ag44
ag384
a(S'voc'
I13
tp515
ag3
aa(lp516
g81
ag48
ag4
ag225
ag145
ag231
aa(lp517
g3
ag8
a(S'religi'
I16
tp518
ag391
ag100
ag4
aa(lp519
g26
ag327
ag374
ag5
ag11
ag4
aa(lp520
g4
ag256
ag5
ag39
ag39
ag3
aa(lp521
g342
ag102
a(S'pedaz'
I29
tp522
ag273
ag54
ag107
aa(lp523
g44
ag97
ag473
ag474
ag18
ag37
aa(lp524
g41
ag18
ag5
ag39
ag5
ag4
aa(lp525
g4
ag59
ag518
ag34
ag18
ag37
aa(lp526
g41
ag4
ag277
ag5
ag13
ag3
aa(lp527
g3
ag277
ag5
ag5
ag39
ag3
aa(lp528
(S'precios'
I34
tp529
ag18
ag293
ag294
ag18
ag37
aa(lp530
g118
ag4
ag4
ag5
ag335
ag120
aa(lp531
g342
ag4
ag65
ag5
ag5
a(S'sustanci'
I15
tp532
aa(lp533
g41
ag95
ag15
ag5
ag41
ag18
aa(lp534
g215
ag4
ag5
ag5
ag5
ag4
aa(lp535
g200
ag48
ag29
ag268
ag29
ag41
aa(lp536
g200
ag259
ag26
ag39
ag5
ag51
aa(lp537
g412
ag39
ag55
ag216
ag388
ag45
aa(lp538
g81
a(S'fragant'
I9
tp539
ag234
ag65
ag66
ag97
aa(lp540
(Vusuari
I13
tp541
ag330
ag374
ag391
ag122
ag51
aa(lp542
g173
ag4
ag4
a(S'rubi'
I10
tp543
ag5
ag3
aa(lp544
g118
ag4
ag4
ag132
a(Vcantant
I10
tp545
ag120
aa(lp546
g3
ag8
ag183
ag5
ag18
ag37
aa(lp547
g233
ag4
ag335
ag132
ag5
a(S'oid'
I56
tp548
aa(lp549
g4
ag4
ag5
ag5
ag90
ag3
aa(lp550
g4
ag54
ag4
ag65
ag5
ag3
aa(lp551
g4
ag45
ag4
ag5
ag5
ag25
aa(lp552
g4
ag39
ag4
ag5
ag60
ag4
aa(lp553
g4
ag18
ag124
ag161
ag75
ag26
aa(lp554
g4
ag92
ag15
ag5
ag41
ag3
aa(lp555
g3
ag18
ag5
ag39
ag5
ag4
aa(lp556
g20
ag3
ag4
ag5
a(S'general'
I64
tp557
ag4
aa(lp558
g4
ag18
ag4
ag5
ag5
ag3
aa(lp559
(Vverd
I189
tp560
a(Vnod
I51
tp561
ag86
ag5
ag60
ag21
aa(lp562
g4
ag436
ag4
ag5
ag5
ag4
aa(lp563
g4
ag4
ag4
ag5
a(Vproces
I85
tp564
ag356
aa(lp565
g41
a(Vorbit
I26
tp566
ag471
ag391
ag122
ag3
aa(lp567
g41
ag97
ag473
ag474
ag5
ag3
aa(lp568
g13
ag39
ag55
ag5
ag5
ag51
aa(lp569
g4
ag260
ag4
ag5
ag32
ag4
aa(lp570
g275
ag37
a(S'amer'
I15
tp571
ag22
ag479
ag347
aa(lp572
g200
ag48
ag4
ag161
ag5
a(S'bander'
I14
tp573
aa(lp574
g20
ag4
ag4
ag5
ag26
ag4
aa(lp575
g3
ag361
ag4
ag5
ag5
ag3
aa(lp576
g26
ag4
ag5
ag132
ag5
ag3
aa(lp577
g4
ag4
ag160
a(S'vuelv'
I39
tp578
ag145
a(S'jardin'
I83
tp579
aa(lp580
g358
ag39
ag55
ag5
ag229
ag3
aa(lp581
g368
ag369
ag18
ag5
a(S'ido'
I19
tp582
ag231
aa(lp583
g4
ag97
ag347
ag169
ag18
ag37
aa(lp584
g95
ag4
ag160
ag5
ag204
ag18
aa(lp585
g3
ag4
ag18
ag5
ag84
ag4
aa(lp586
g4
ag4
ag120
ag5
ag161
ag3
aa(lp587
g23
ag215
ag37
ag347
ag15
ag37
aa(lp588
g149
ag4
ag248
ag231
ag5
ag3
aa(lp589
g65
ag4
ag4
ag5
ag161
ag4
aa(lp590
g18
ag4
ag4
ag5
ag388
ag3
aa(lp591
g4
ag54
ag5
ag132
ag39
ag256
aa(lp592
(S'camis'
I10
tp593
ag14
ag4
ag216
ag388
ag51
aa(lp594
g313
ag97
ag331
a(S'mar'
I188
tp595
a(S'afric'
I11
tp596
ag45
aa(lp597
g3
ag4
ag4
ag75
ag41
ag310
aa(lp598
g4
ag161
a(S'prader'
I15
tp599
ag65
ag60
ag61
aa(lp600
g158
ag25
a(S'digital'
I25
tp601
ag454
ag5
ag51
aa(lp602
g3
a(S'pel'
I23
tp603
ag144
ag323
ag5
ag45
aa(lp604
g386
a(S'usted'
I50
tp605
a(S'segun'
I89
tp606
ag34
ag18
ag37
aa(lp607
g3
ag4
ag4
ag5
ag161
ag41
aa(lp608
g4
ag3
ag4
ag25
ag5
ag356
aa(lp609
g26
ag3
ag4
ag5
ag5
ag75
aa(lp610
g4
ag3
ag4
ag5
ag5
ag72
aa(lp611
g3
ag3
ag26
ag132
ag26
ag27
aa(lp612
g6
ag450
ag202
ag430
ag5
ag4
aa(lp613
g4
ag39
ag26
ag5
a(S'enemig'
I10
tp614
ag356
aa(lp615
g158
ag159
ag4
ag391
ag122
ag3
aa(lp616
g81
a(S'suav'
I17
tp617
ag4
ag5
ag11
ag4
aa(lp618
(S'lag'
I48
tp619
ag3
ag4
ag132
ag5
ag161
aa(lp620
g358
ag267
ag335
ag25
ag5
ag4
aa(lp621
g79
ag4
ag9
ag40
ag202
ag51
aa(lp622
g20
ag39
ag4
ag5
ag5
ag4
aa(lp623
g3
ag8
a(S'desiert'
I30
tp624
ag65
ag122
ag3
aa(lp625
g20
ag3
ag5
ag5
ag5
ag4
aa(lp626
g54
ag45
ag5
a(S'edad'
I41
tp627
ag153
ag3
aa(lp628
g149
ag21
ag4
ag6
ag26
ag3
aa(lp629
g44
ag4
ag4
ag5
ag39
ag45
aa(lp630
g84
ag25
ag18
ag203
a(S'hil'
I16
tp631
ag291
aa(lp632
g215
ag4
ag5
ag5
ag5
ag3
aa(lp633
g215
ag4
ag4
ag5
ag5
ag3
aa(lp634
g4
ag4
ag4
a(Vtorr
I19
tp635
ag5
ag4
aa(lp636
g4
ag39
ag5
ag5
ag256
ag3
aa(lp637
g3
ag18
ag4
ag5
ag39
ag3
aa(lp638
g6
a(Vlos
I10
tp639
ag473
ag5
ag18
ag6
aa(lp640
g3
ag4
ag5
ag5
ag54
ag310
aa(lp641
g39
ag215
a(S'vec'
I102
tp642
ag496
ag18
ag37
aa(lp643
g4
a(S'galletit'
I11
tp644
a(Vcaract
I24
tp645
ag288
ag215
ag3
aa(lp646
g4
ag4
ag37
ag5
ag5
ag37
aa(lp647
g118
ag4
ag4
ag5
ag39
ag120
aa(lp648
g4
ag277
ag5
ag5
ag5
ag4
aa(lp649
g4
ag4
ag5
ag25
ag13
ag3
aa(lp650
g3
ag59
ag5
ag5
ag18
ag37
aa(lp651
g4
ag48
ag402
ag294
ag5
ag51
aa(lp652
(S'program'
I46
tp653
ag436
ag5
ag225
ag122
ag3
aa(lp654
g4
ag4
ag65
ag161
ag5
ag356
aa(lp655
g37
ag159
ag202
ag264
ag204
ag3
aa(lp656
g39
ag48
ag5
ag216
ag515
ag3
aa(lp657
g256
ag4
ag4
ag5
ag5
ag443
aa(lp658
g3
ag290
ag23
ag264
ag84
ag298
aa(lp659
g54
ag436
ag26
ag39
ag582
ag4
aa(lp660
g4
ag39
ag4
ag5
ag314
ag48
aa(lp661
g3
ag48
ag4
ag5
ag39
ag48
aa(lp662
g158
ag159
ag4
ag5
a(S'color'
I103
tp663
ag75
aa(lp664
(Vestructur
I69
tp665
ag277
ag219
ag403
ag41
ag4
aa(lp666
g194
ag118
ag18
ag5
a(Venfrent
I23
tp667
ag3
aa(lp668
g334
ag54
ag5
ag5
ag5
ag18
aa(lp669
g3
a(Vclasic
I17
tp670
ag4
ag5
ag54
ag3
aa(lp671
g342
ag102
ag18
a(Vemprend
I17
tp672
ag5
ag51
aa(lp673
g256
ag4
ag4
ag161
ag54
ag443
aa(lp674
g267
ag39
ag55
ag5
ag18
ag37
aa(lp675
g37
ag159
ag9
ag5
ag5
ag51
aa(lp676
g81
ag48
ag5
ag268
ag122
ag3
aa(lp677
g358
ag330
ag374
ag5
ag204
ag3
aa(lp678
g13
ag54
ag4
ag5
ag5
ag3
aa(lp679
(S'escap'
I33
tp680
a(S'alma'
I61
tp681
ag374
ag132
ag215
ag298
aa(lp682
g3
ag4
ag4
ag118
ag54
ag3
aa(lp683
g41
a(Vinterpret
I27
tp684
ag219
ag264
ag204
ag18
aa(lp685
g376
ag256
ag4
ag216
ag60
ag3
aa(lp686
g37
ag159
ag4
ag268
ag364
ag37
aa(lp687
g3
ag88
ag5
ag5
ag5
ag107
aa(lp688
g4
ag4
ag5
ag37
ag256
ag3
aa(lp689
g20
ag66
ag4
ag5
ag314
ag4
aa(lp690
g18
ag3
ag37
ag347
ag54
ag56
aa(lp691
g4
ag4
ag18
ag5
a(S'individu'
I14
tp692
ag4
aa(lp693
(S'espect'
I12
tp694
ag4
ag160
ag351
ag145
ag231
aa(lp695
g4
ag4
ag4
ag132
ag54
ag356
aa(lp696
(Videntific
I11
tp697
ag3
ag37
ag347
ag5
ag51
aa(lp698
g54
ag39
ag5
ag5
ag5
ag120
aa(lp699
g13
ag33
ag4
ag347
ag202
ag291
aa(lp700
g81
ag92
ag5
ag161
ag75
ag107
aa(lp701
g173
ag4
ag4
ag132
ag302
ag3
aa(lp702
g18
ag4
ag4
ag5
ag204
ag3
aa(lp703
g41
ag639
ag119
ag8
ag213
ag18
aa(lp704
g697
ag3
ag15
ag5
ag5
ag37
aa(lp705
g151
ag4
ag219
ag5
ag41
ag18
aa(lp706
g4
ag39
ag4
ag161
ag5
ag356
aa(lp707
g41
ag97
ag473
ag25
ag198
ag176
aa(lp708
g3
ag54
ag4
ag25
ag54
ag4
aa(lp709
g54
ag181
ag77
ag137
ag5
ag26
aa(lp710
g26
a(S'caj'
I29
tp711
ag4
ag5
ag5
ag75
aa(lp712
g173
ag4
ag4
ag132
ag5
ag3
aa(lp713
g41
ag4
ag5
ag5
ag5
ag3
aa(lp714
g4
ag4
ag5
ag5
ag18
ag356
aa(lp715
g4
ag4
ag4
ag39
ag5
ag248
aa(lp716
(S'consejer'
I57
tp717
ag21
ag29
ag5
ag60
ag61
aa(lp718
g13
ag267
ag4
ag5
ag84
ag298
aa(lp719
g440
ag201
ag202
ag264
ag204
ag107
aa(lp720
g41
ag256
ag4
ag39
a(S'comun'
I72
tp721
a(S'final'
I91
tp722
aa(lp723
g233
ag82
ag4
ag75
ag32
ag35
aa(lp724
(S'cristal'
I36
tp725
ag221
ag287
ag34
ag18
ag4
aa(lp726
g3
ag54
ag4
ag5
ag23
ag75
aa(lp727
g358
ag45
a(S'personal'
I25
tp728
ag5
ag13
ag3
aa(lp729
g37
ag159
ag115
ag264
ag204
ag18
aa(lp730
g13
ag277
ag4
ag5
a(S'division'
I42
tp731
ag23
aa(lp732
g149
ag37
ag4
ag5
ag26
ag3
aa(lp733
g4
ag4
ag5
ag5
ag5
ag41
aa(lp734
g44
ag48
ag234
ag65
ag66
ag97
aa(lp735
g4
ag82
a(S'coral'
I24
tp736
ag323
ag39
ag35
aa(lp737
g81
ag4
ag135
ag5
ag145
ag56
aa(lp738
g3
ag14
ag4
ag5
ag215
ag120
aa(lp739
g20
ag4
a(S'dias'
I91
tp740
ag5
ag23
ag4
aa(lp741
g41
ag221
ag77
ag137
ag18
ag56
aa(lp742
g20
ag86
ag65
ag5
ag5
ag4
aa(lp743
g41
ag310
ag23
ag264
ag204
ag116
aa(lp744
g358
ag175
ag119
ag161
ag75
ag161
aa(lp745
g26
ag201
ag471
ag391
ag122
ag3
aa(lp746
g44
ag48
ag4
ag5
ag215
ag120
aa(lp747
g37
ag159
ag4
ag216
ag5
ag75
aa(lp748
g4
ag4
ag4
ag39
ag54
ag72
aa(lp749
g3
ag37
ag44
ag5
ag5
ag4
aa(lp750
g44
ag33
ag4
ag5
ag322
ag61
aa(lp751
g41
ag639
ag234
ag65
ag66
ag97
aa(lp752
g4
ag54
a(Vadapt
I9
tp753
ag323
ag39
ag107
aa(lp754
g65
ag23
ag5
ag5
ag5
ag3
aa(lp755
g26
ag4
ag21
ag6
ag5
ag75
aa(lp756
g54
ag181
ag219
ag268
a(Vbiolog
I18
tp757
a(S'fuent'
I32
tp758
aa(lp759
g44
ag4
ag4
ag65
ag39
ag45
aa(lp760
g149
ag3
ag44
ag132
ag5
ag3
aa(lp761
g358
ag277
ag275
ag10
ag11
ag722
aa(lp762
g173
ag4
ag4
ag5
ag395
ag3
aa(lp763
g18
ag3
ag599
ag65
ag66
ag18
aa(lp764
g13
ag54
ag4
ag5
ag23
ag4
aa(lp765
g26
ag4
ag48
ag5
ag361
ag75
aa(lp766
g3
ag86
ag5
ag5
ag5
ag18
aa(lp767
g149
ag4
ag4
ag132
ag5
ag3
aa(lp768
(S'man'
I190
tp769
ag151
ag4
ag216
a(Vjuventus
I15
tp770
ag37
aa(lp771
g149
ag48
ag4
ag5
ag5
ag3
aa(lp772
g4
ag48
ag5
ag22
ag5
ag3
aa(lp773
(Vmosquit
I10
tp774
a(S'orill'
I31
tp775
ag120
ag22
ag18
ag37
aa(lp776
g3
ag603
ag287
ag34
ag41
ag410
aa(lp777
g3
ag82
ag4
ag39
ag5
ag3
aa(lp778
g4
ag37
ag5
ag39
ag5
ag18
aa(lp779
g41
ag159
ag4
ag5
ag66
ag6
aa(lp780
g231
ag4
ag4
ag5
ag5
ag3
aa(lp781
g41
ag4
ag160
ag161
ag75
ag18
aa(lp782
g4
ag4
ag5
ag5
ag54
ag3
aa(lp783
g619
ag3
ag5
ag5
ag5
ag161
aa(lp784
g4
ag221
ag202
ag161
ag75
ag37
aa(lp785
g725
ag92
ag5
ag10
ag11
ag4
aa(lp786
g4
ag39
ag81
ag5
ag5
ag4
aa(lp787
g271
ag3
ag340
ag5
ag15
ag4
aa(lp788
g109
ag92
ag5
ag403
ag41
ag3
aa(lp789
g26
ag4
ag4
ag132
ag5
ag3
aa(lp790
g81
ag4
ag135
ag65
ag66
ag4
aa(lp791
g39
ag290
ag645
a(S'tant'
I69
tp792
ag18
ag3
aa(lp793
g483
ag387
ag347
ag225
ag145
ag4
aa(lp794
g684
ag161
a(S'felic'
I36
tp795
a(S'caudal'
I9
tp796
ag11
ag4
aa(lp797
g44
ag4
ag4
ag5
ag663
ag45
aa(lp798
g4
ag250
ag4
ag5
ag5
ag3
aa(lp799
g173
ag3
ag120
ag5
ag5
ag3
aa(lp800
g20
ag4
ag5
ag6
ag202
ag4
aa(lp801
g202
ag387
ag4
ag216
ag5
ag51
aa(lp802
g41
ag97
ag4
ag103
a(S'nacional'
I35
tp803
ag51
aa(lp804
g41
ag387
ag4
ag5
ag18
ag51
aa(lp805
g4
ag4
ag5
ag5
ag803
ag4
aa(lp806
g109
ag4
ag65
a(Vfranc
I23
tp807
ag5
a(S'band'
I89
tp808
aa(lp809
g4
ag39
ag4
ag5
ag5
ag37
aa(lp810
g54
ag4
ag49
ag323
ag39
a(Vimpos
I23
tp811
aa(lp812
g173
ag4
ag5
ag5
ag39
ag3
aa(lp813
g178
ag4
ag160
ag103
ag803
a(Vultim
I117
tp814
aa(lp815
g4
ag277
ag4
ag37
ag39
ag25
aa(lp816
g95
ag4
a(S'igual'
I55
tp817
ag90
ag5
ag4
aa(lp818
(S'cest'
I19
tp819
ag37
ag4
ag132
ag39
ag26
aa(lp820
(S'infinit'
I25
tp821
a(Vparticul
I57
tp822
ag374
ag5
ag84
ag35
aa(lp823
g26
ag3
ag4
ag5
ag86
ag75
aa(lp824
g54
ag181
ag215
ag10
ag75
ag107
aa(lp825
g4
ag4
ag120
ag5
ag5
ag18
aa(lp826
g4
ag175
ag473
ag728
ag18
ag37
aa(lp827
g4
ag4
ag5
ag5
ag335
ag3
aa(lp828
g118
ag4
ag22
ag132
ag5
ag120
aa(lp829
g3
ag4
ag5
ag5
ag499
ag4
aa(lp830
g173
ag4
ag179
ag6
ag479
ag3
aa(lp831
g298
ag97
ag331
a(S'redond'
I13
tp832
ag269
ag37
aa(lp833
g26
ag4
ag4
ag39
a(Vclub
I154
tp834
ag3
aa(lp835
g81
ag92
ag5
ag268
ag222
ag37
aa(lp836
g339
ag3
a(Vcuart
I51
tp837
ag474
ag202
ag3
aa(lp838
g4
ag4
ag5
ag5
ag93
ag4
aa(lp839
g118
ag3
ag4
ag39
ag5
ag120
aa(lp840
g23
ag215
ag86
ag132
ag60
ag61
aa(lp841
g376
ag256
ag81
ag25
ag75
ag18
aa(lp842
g26
ag201
ag202
ag132
ag75
ag222
aa(lp843
g81
ag4
a(Volas
I19
tp844
a(Vfc
I34
tp845
a(S'eras'
I19
tp846
ag75
aa(lp847
g4
ag18
ag4
ag5
ag32
ag4
aa(lp848
g4
ag23
ag202
a(Vsoci
I9
tp849
ag731
ag41
aa(lp850
g4
ag4
ag4
ag118
ag54
ag3
aa(lp851
g4
ag436
ag4
ag5
ag18
ag3
aa(lp852
g4
ag277
ag5
ag5
ag5
ag3
aa(lp853
g3
ag86
ag4
ag5
ag39
ag41
aa(lp854
g4
ag4
ag4
ag5
ag5
ag4
aa(lp855
(Vsigl
I60
tp856
ag95
ag4
ag216
ag846
ag26
aa(lp857
g151
ag369
ag18
ag5
ag66
ag3
aa(lp858
g20
ag4
ag4
ag23
ag23
ag4
aa(lp859
g37
ag159
ag473
ag474
ag398
ag18
aa(lp860
g481
ag23
ag48
ag92
a(S'porqueriz'
I13
tp861
ag32
aa(lp862
g4
ag4
ag4
ag5
ag32
ag3
aa(lp863
g32
a(S'vais'
I9
tp864
ag119
ag161
ag5
ag18
aa(lp865
g118
ag4
ag48
ag39
ag5
ag120
aa(lp866
g13
ag4
ag4
ag5
ag161
ag3
aa(lp867
g4
ag3
ag5
ag5
ag240
ag356
aa(lp868
g4
ag45
ag5
ag5
ag5
ag4
aa(lp869
g18
ag4
ag4
ag132
ag5
ag4
aa(lp870
g13
ag4
ag135
ag5
ag60
a(Vcortez
I13
tp871
aa(lp872
g4
ag4
ag107
ag5
a(Vfactor
I18
tp873
ag72
aa(lp874
g41
ag4
ag4
ag39
ag5
ag37
aa(lp875
g476
ag277
ag55
ag5
ag15
ag37
aa(lp876
g4
ag18
ag4
ag5
a(S'problem'
I81
tp877
ag4
aa(lp878
g149
ag39
ag4
ag132
ag18
ag3
aa(lp879
g4
ag4
ag4
ag5
ag5
ag75
aa(lp880
g151
ag4
ag4
ag5
ag20
ag133
aa(lp881
(Vbibli
I16
tp882
ag48
ag234
ag77
ag210
ag4
aa(lp883
g4
a(Vguard
I55
tp884
a(S'cabell'
I34
tp885
ag217
ag41
ag298
aa(lp886
g3
a(S'campeonat'
I15
tp887
ag4
ag5
ag5
ag3
aa(lp888
g4
ag361
ag4
ag5
ag5
ag4
aa(lp889
g188
ag277
ag275
a(Vaquel
I163
tp890
ag122
ag133
aa(lp891
g20
ag4
ag4
ag5
a(S'cerdit'
I9
tp892
ag4
aa(lp893
g4
ag260
ag4
ag5
ag5
ag3
aa(lp894
g54
ag23
ag29
ag5
ag18
ag37
aa(lp895
g188
ag277
ag18
ag672
ag18
ag37
aa(lp896
g3
ag54
ag4
ag5
ag5
ag4
aa(lp897
g13
ag267
ag37
ag347
ag5
ag3
aa(lp898
(S'estil'
I15
tp899
a(Vcentenar
I10
tp900
ag86
a(S'muchach'
I86
tp901
ag210
ag250
aa(lp902
g41
a(Vexcelent
I23
tp903
ag48
ag92
ag5
ag51
aa(lp904
g653
ag25
a(S'frecuenci'
I30
tp905
ag10
ag11
ag4
aa(lp906
g3
ag4
ag4
ag39
ag204
ag4
aa(lp907
g4
ag48
ag5
ag132
ag5
ag4
aa(lp908
g4
ag4
ag4
ag5
ag23
ag3
aa(lp909
g4
ag3
ag4
ag5
ag21
ag356
aa(lp910
g44
ag436
ag5
ag225
ag11
ag4
aa(lp911
g54
ag54
ag5
ag5
ag5
ag18
aa(lp912
g13
ag267
ag5
ag268
ag18
ag97
aa(lp913
g3
ag48
ag5
ag5
ag18
ag37
aa(lp914
g44
ag4
ag4
a(S'tulipan'
I12
tp915
ag5
ag45
aa(lp916
g4
a(S'podi'
I164
tp917
ag4
ag5
ag23
ag4
aa(lp918
g39
ag290
ag374
ag5
ag84
ag41
aa(lp919
g79
a(S'proton'
I18
tp920
ag119
ag5
ag11
ag4
aa(lp921
g26
ag4
ag4
ag132
ag18
ag75
aa(lp922
(Vcarrer
I37
tp923
ag21
ag120
a(S'pelot'
I15
tp924
ag29
ag3
aa(lp925
g358
ag4
ag4
ag264
ag39
ag811
aa(lp926
g58
ag14
ag4
ag93
ag54
ag56
aa(lp927
g173
ag4
ag5
ag25
a(S'encim'
I65
tp928
ag3
aa(lp929
g560
ag775
ag23
ag264
ag5
ag3
aa(lp930
g593
ag603
ag144
ag323
ag39
ag4
aa(lp931
g41
ag159
ag4
ag25
ag198
ag26
aa(lp932
g118
ag4
ag248
ag5
ag5
ag120
aa(lp933
g4
ag92
ag5
ag10
ag11
ag4
aa(lp934
g4
ag4
ag5
ag25
ag13
ag4
aa(lp935
g79
ag82
ag885
ag5
ag15
ag4
aa(lp936
g774
ag48
a(Vdand
I18
tp937
ag132
ag215
ag120
aa(lp938
g298
ag212
ag77
ag137
ag18
ag61
aa(lp939
g4
ag4
ag18
ag5
ag84
ag3
aa(lp940
(Vtender
I17
tp941
ag4
ag5
ag5
ag5
ag37
aa(lp942
g200
ag201
ag77
ag137
ag5
ag37
aa(lp943
g3
ag4
ag5
ag5
ag37
ag310
aa(lp944
g481
ag4
ag18
ag203
ag663
ag18
aa(lp945
g79
ag4
ag18
ag5
ag204
ag18
aa(lp946
g3
ag4
ag37
ag5
ag39
ag3
aa(lp947
g4
ag290
ag4
ag5
ag18
ag51
aa(lp948
g178
ag4
ag160
ag5
ag84
ag4
aa(lp949
g149
ag4
ag4
ag5
ag5
ag3
aa(lp950
g18
a(Vmunec
I11
tp951
ag135
ag264
ag5
ag51
aa(lp952
(S'casi'
I82
tp953
a(S'album'
I46
tp954
ag215
ag10
ag29
ag26
aa(lp955
g149
ag4
ag5
ag5
ag361
ag3
aa(lp956
g4
ag4
ag4
ag5
ag122
ag4
aa(lp957
g3
ag155
a(Vdisc
I22
tp958
ag10
ag229
ag3
aa(lp959
g529
ag207
ag29
ag5
ag322
ag37
aa(lp960
g44
ag48
ag234
ag474
ag11
ag4
aa(lp961
g41
ag4
a(S'negr'
I87
tp962
ag5
ag86
ag3
aa(lp963
g54
ag54
ag5
ag5
ag5
ag41
aa(lp964
g368
ag369
ag18
ag5
ag39
ag331
aa(lp965
g23
ag59
ag518
ag298
ag41
ag3
aa(lp966
g4
ag4
ag65
ag5
ag5
ag3
aa(lp967
g3
ag4
ag5
ag5
ag39
ag3
aa(lp968
g3
ag86
ag4
ag37
ag5
ag4
aa(lp969
g3
ag4
ag18
ag5
ag250
ag3
aa(lp970
g215
ag4
ag4
ag39
ag5
ag4
aa(lp971
g3
ag48
ag9
ag40
ag210
ag6
aa(lp972
g3
ag796
ag120
ag924
ag60
ag61
aa(lp973
g4
ag221
ag18
ag132
ag11
ag4
aa(lp974
g58
ag14
a(S'cien'
I26
tp975
ag77
ag202
ag41
aa(lp976
g4
ag4
ag248
ag5
ag18
ag3
aa(lp977
g13
ag221
ag29
ag5
ag60
ag4
aa(lp978
g4
ag277
ag5
ag5
ag161
ag4
aa(lp979
g282
ag4
ag4
ag5
ag39
ag6
aa(lp980
g3
ag37
ag83
a(S'cint'
I11
tp981
ag18
ag3
aa(lp982
g4
ag39
ag5
ag5
ag23
ag4
aa(lp983
g3
ag256
ag4
ag5
ag5
ag310
aa(lp984
(S'manan'
I72
tp985
ag88
ag361
ag56
a(Vcrist
I9
tp986
ag26
aa(lp987
g4
ag39
ag5
ag5
ag39
ag4
aa(lp988
g158
ag159
ag4
ag132
ag5
ag133
aa(lp989
g694
ag310
ag23
ag5
ag5
ag51
aa(lp990
g3
ag4
ag18
ag5
ag5
ag4
aa(lp991
g20
ag4
ag4
ag5
ag5
ag4
aa(lp992
g41
ag8
a(S'anton'
I15
tp993
ag5
ag5
ag3
aa(lp994
g4
ag221
ag5
ag152
ag398
ag4
aa(lp995
g769
ag151
a(S'aficion'
I17
tp996
ag39
ag11
ag231
aa(lp997
g481
ag143
a(S'piedr'
I51
tp998
ag302
ag204
ag4
aa(lp999
g118
ag4
ag23
ag5
ag5
ag120
aa(lp1000
g233
ag900
ag86
ag132
ag11
ag3
aa(lp1001
g3
ag4
ag962
ag5
ag39
ag4
aa(lp1002
g4
ag4
ag4
ag5
ag5
ag18
aa(lp1003
g151
a(S'pur'
I34
tp1004
ag275
ag22
ag5
ag51
aa(lp1005
g41
ag97
ag37
ag264
ag11
ag4
aa(lp1006
g3
ag88
ag361
a(S'terribl'
I24
tp1007
ag39
ag42
aa(lp1008
g54
ag181
ag215
ag10
ag18
ag37
aa(lp1009
g267
ag259
ag26
a(S'nort'
I34
tp1010
ag515
ag3
aa(lp1011
g6
ag4
ag5
ag5
ag5
ag3
aa(lp1012
g4
ag4
ag5
ag5
ag803
ag3
aa(lp1013
g233
ag48
ag234
ag235
ag236
ag222
aa(lp1014
g3
ag4
ag5
ag5
ag161
ag41
aa(lp1015
g44
ag48
ag21
ag161
ag75
a(S'signific'
I30
tp1016
aa(lp1017
g358
ag39
ag55
ag5
ag60
ag75
aa(lp1018
g18
ag3
ag202
ag901
ag515
ag3
aa(lp1019
g81
ag617
ag4
ag183
ag32
ag61
aa(lp1020
(S'ciud'
I131
tp1021
ag4
ag905
ag323
ag5
ag51
aa(lp1022
g4
ag3
ag4
ag5
ag45
ag72
aa(lp1023
g173
ag4
ag26
ag132
ag5
ag3
aa(lp1024
g41
ag4
ag135
ag5
ag75
ag222
aa(lp1025
g3
ag4
ag4
ag132
ag5
ag3
aa(lp1026
g4
ag4
ag18
ag203
ag663
ag37
aa(lp1027
g41
ag97
ag34
ag5
ag5
ag4
aa(lp1028
g684
ag201
ag202
ag901
ag215
ag120
aa(lp1029
g4
ag4
ag4
ag5
ag334
ag356
aa(lp1030
g4
ag82
ag22
ag273
ag229
ag45
aa(lp1031
g504
ag566
ag4
ag103
ag30
a(S'senor'
I142
tp1032
aa(lp1033
g3
ag4
ag86
ag5
ag26
ag310
aa(lp1034
g54
ag4
ag219
ag5
ag11
ag4
aa(lp1035
g856
ag221
ag29
ag161
ag75
ag26
aa(lp1036
g20
ag48
ag4
ag5
a(S'vam'
I45
tp1037
ag4
aa(lp1038
g4
ag4
ag4
ag23
ag5
ag72
aa(lp1039
(S'suert'
I35
tp1040
ag97
ag34
ag273
ag54
ag4
aa(lp1041
g206
ag207
ag374
ag5
ag18
ag37
aa(lp1042
g79
ag4
ag18
ag203
ag663
ag51
aa(lp1043
g120
ag4
ag23
ag323
ag5
ag924
aa(lp1044
g44
ag277
ag18
ag5
ag18
ag4
aa(lp1045
g54
ag92
ag5
ag403
ag41
ag3
aa(lp1046
g4
ag4
ag277
ag39
ag256
ag3
aa(lp1047
g233
ag221
ag29
ag5
ag60
a(Vstev
I9
tp1048
aa(lp1049
g4
ag39
ag4
ag5
ag23
ag3
aa(lp1050
g3
ag4
ag4
ag5
ag5
ag37
aa(lp1051
(Vhar
I27
tp1052
ag159
ag4
ag79
a(S'gustari'
I20
tp1053
ag4
aa(lp1054
g4
ag4
ag26
ag203
ag284
ag3
aa(lp1055
g178
ag54
ag29
ag190
ag84
ag298
aa(lp1056
g4
ag4
ag5
ag5
ag250
ag3
aa(lp1057
g41
ag97
a(S'fragment'
I9
tp1058
ag137
ag60
a(S'volvi'
I97
tp1059
aa(lp1060
g4
ag277
ag4
ag5
ag84
ag4
aa(lp1061
(S'not'
I27
tp1062
ag4
a(S'luci'
I13
tp1063
ag5
ag5
ag41
aa(lp1064
g4
ag3
ag4
ag5
a(S'ric'
I48
tp1065
ag356
aa(lp1066
g4
ag48
ag22
ag132
ag5
ag72
aa(lp1067
g37
ag159
ag4
ag103
ag803
ag18
aa(lp1068
g4
ag4
ag5
ag39
ag5
ag41
aa(lp1069
g4
ag49
ag478
ag22
ag145
ag262
aa(lp1070
g4
ag4
ag4
ag5
ag18
ag25
aa(lp1071
g26
ag18
ag4
ag39
ag5
ag4
aa(lp1072
g4
ag39
a(Vestacion
I19
tp1073
ag5
ag5
ag3
aa(lp1074
g4
ag86
ag4
ag5
ag5
ag4
aa(lp1075
g3
ag18
ag4
ag5
ag5
ag248
aa(lp1076
g4
ag3
ag65
ag132
ag41
ag72
aa(lp1077
g39
ag290
ag4
ag845
a(S'camp'
I100
tp1078
ag18
aa(lp1079
g4
ag3
ag4
ag132
ag5
ag356
aa(lp1080
g26
ag4
ag4
ag39
ag202
ag75
aa(lp1081
g3
ag4
ag48
ag22
ag5
ag310
aa(lp1082
g37
ag159
ag4
ag75
ag66
ag1059
aa(lp1083
g41
ag124
ag37
ag347
ag145
ag159
aa(lp1084
g3
ag54
ag18
ag5
ag32
ag4
aa(lp1085
g81
ag221
ag49
ag5
ag204
ag18
aa(lp1086
g41
ag97
ag4
ag161
ag75
ag37
aa(lp1087
g376
ag95
ag347
ag288
ag215
ag4
aa(lp1088
g173
ag3
ag5
ag5
ag458
ag3
aa(lp1089
g202
ag277
ag5
ag65
ag5
ag3
aa(lp1090
g882
ag436
ag5
ag225
ag18
ag37
aa(lp1091
g4
ag37
ag4
ag5
ag5
ag72
aa(lp1092
g41
ag277
ag478
ag22
ag66
ag97
aa(lp1093
g953
ag151
ag234
ag235
ag236
ag37
aa(lp1094
g41
ag37
ag837
ag627
ag37
ag4
aa(lp1095
g9
ag118
ag86
ag5
ag18
ag37
aa(lp1096
g26
ag9
ag4
ag6
ag5
ag75
aa(lp1097
g1021
ag45
ag5
ag5
ag41
ag75
aa(lp1098
g4
ag3
ag5
ag5
ag26
ag72
aa(lp1099
g18
ag86
ag4
ag5
ag39
ag3
aa(lp1100
g54
ag4
ag5
ag5
ag5
ag18
aa(lp1101
g165
ag127
a(S'punt'
I90
tp1102
ag39
ag582
ag4
aa(lp1103
g4
ag161
ag599
ag65
ag204
a(S'perr'
I39
tp1104
aa(lp1105
g54
ag286
ag4
ag5
ag15
ag18
aa(lp1106
g368
ag369
ag18
ag578
ag122
ag3
aa(lp1107
(Vtempor
I59
tp1108
ag54
ag4
ag5
ag361
ag6
aa(lp1109
g4
ag277
ag5
ag22
ag161
ag37
aa(lp1110
g4
ag4
ag4
ag5
ag5
ag37
aa(lp1111
g37
ag159
ag4
ag216
ag5
ag51
aa(lp1112
g4
ag4
ag5
ag5
ag23
ag6
aa(lp1113
g26
ag361
ag4
ag132
ag5
ag3
aa(lp1114
g3
ag4
ag5
ag5
ag5
ag25
aa(lp1115
g593
ag14
ag4
ag5
ag215
ag18
aa(lp1116
g4
ag175
ag473
ag5
ag18
ag4
aa(lp1117
g3
ag4
ag5
ag5
ag39
ag77
aa(lp1118
g13
ag330
ag374
ag5
ag18
ag37
aa(lp1119
g44
ag4
ag135
ag5
ag84
ag45
aa(lp1120
g4
ag82
ag144
ag323
ag74
ag75
aa(lp1121
g173
ag4
ag4
ag5
ag60
ag3
aa(lp1122
g26
ag25
ag4
ag203
ag663
ag3
aa(lp1123
g192
ag390
ag5
ag9
ag41
ag410
aa(lp1124
g26
ag48
ag5
ag5
ag23
ag75
aa(lp1125
g856
ag221
ag29
ag5
ag11
ag4
aa(lp1126
g440
ag25
ag5
ag65
ag66
ag97
aa(lp1127
g95
ag4
ag119
ag161
ag846
ag41
aa(lp1128
g39
ag269
ag817
ag90
a(S'caus'
I40
tp1129
ag37
aa(lp1130
g560
ag49
ag478
ag22
ag18
ag37
aa(lp1131
g79
a(S'celul'
I11
tp1132
ag182
ag161
ag75
ag222
aa(lp1133
g342
ag124
ag343
ag5
ag1129
ag26
aa(lp1134
g4
ag4
ag5
ag5
ag13
ag3
aa(lp1135
g697
ag37
ag571
ag137
ag5
ag6
aa(lp1136
g151
ag49
ag478
ag161
ag75
ag61
aa(lp1137
g1021
ag181
ag9
ag10
ag11
ag4
aa(lp1138
g41
ag1004
ag275
ag22
ag5
ag51
aa(lp1139
g4
ag4
ag4
ag323
ag5
ag4
aa(lp1140
g3
ag4
ag5
ag5
ag39
ag4
aa(lp1141
g4
ag221
ag975
ag77
ag122
ag3
aa(lp1142
g41
ag97
ag115
ag264
ag5
ag41
aa(lp1143
g342
ag3
ag4
a(S'tromp'
I17
tp1144
ag39
ag532
aa(lp1145
g4
ag82
ag48
ag5
ag60
ag61
aa(lp1146
g79
ag4
ag18
ag5
ag202
ag97
aa(lp1147
g684
ag161
ag115
ag161
ag11
ag4
aa(lp1148
g435
ag290
ag29
ag5
ag731
ag18
aa(lp1149
g4
ag48
ag402
ag403
ag41
ag26
aa(lp1150
g560
ag561
ag86
ag403
ag15
ag18
aa(lp1151
g3
ag4
ag4
ag5
ag5
ag277
aa(lp1152
g90
ag48
ag5
ag93
ag229
ag45
aa(lp1153
g39
ag23
ag202
ag849
ag731
ag20
aa(lp1154
g79
ag4
ag347
ag169
ag18
ag37
aa(lp1155
g769
ag4
ag5
ag5
ag5
ag4
aa(lp1156
g4
ag4
ag5
ag22
ag5
ag72
aa(lp1157
g37
ag159
ag4
ag209
ag229
ag21
aa(lp1158
g593
ag14
ag4
ag5
ag322
ag37
aa(lp1159
g13
ag267
ag34
ag403
ag41
ag4
aa(lp1160
g3
ag4
ag34
ag5
ag5
ag3
aa(lp1161
g20
ag4
ag4
ag132
ag39
ag4
aa(lp1162
g13
ag277
ag18
ag672
ag5
ag21
aa(lp1163
g4
ag86
ag5
ag5
ag256
ag3
aa(lp1164
g593
ag14
ag81
ag25
ag75
ag18
aa(lp1165
g358
ag39
ag160
ag5
ag20
ag133
aa(lp1166
g54
ag39
ag4
ag5
ag305
ag4
aa(lp1167
g4
ag4
ag37
ag5
ag5
ag4
aa(lp1168
g4
ag259
ag277
ag132
ag5
ag4
aa(lp1169
g20
ag4
ag44
ag22
ag458
ag4
aa(lp1170
g4
ag4
ag5
ag5
ag60
ag4
aa(lp1171
g13
ag54
ag22
ag5
ag5
a(S'defens'
I12
tp1172
aa(lp1173
g18
ag3
ag37
ag347
ag18
ag1059
aa(lp1174
g3
ag4
ag4
ag5
ag1053
ag310
aa(lp1175
g3
ag8
ag234
ag137
ag5
ag51
aa(lp1176
g3
ag4
ag5
ag5
ag250
ag3
aa(lp1177
g41
ag48
ag29
ag137
ag5
ag518
aa(lp1178
g65
ag23
ag5
ag5
ag5
ag37
aa(lp1179
g3
ag8
ag5
ag5
ag5
ag4
aa(lp1180
g4
ag221
ag331
ag137
ag5
ag51
aa(lp1181
g422
ag4
ag4
ag5
ag458
ag161
aa(lp1182
g41
ag25
ag168
ag37
ag74
ag41
aa(lp1183
g4
ag37
ag44
ag5
ag5
ag356
aa(lp1184
g118
ag3
ag4
ag5
ag44
ag120
aa(lp1185
g4
ag4
ag4
ag93
ag5
ag4
aa(lp1186
g1021
ag18
ag9
ag37
ag684
ag392
aa(lp1187
g3
ag39
ag4
ag5
ag5
ag4
aa(lp1188
g4
ag4
ag160
ag5
ag84
ag260
aa(lp1189
g6
ag97
ag18
ag454
ag5
ag4
aa(lp1190
g39
ag4
ag5
ag5
ag21
ag293
aa(lp1191
g39
ag290
ag29
ag5
a(S'super'
I27
tp1192
ag260
aa(lp1193
g23
ag215
ag4
ag103
ag663
ag75
aa(lp1194
g4
ag4
ag4
ag5
ag5
ag277
aa(lp1195
g200
ag48
ag29
ag5
ag202
ag41
aa(lp1196
g4
ag54
ag5
ag347
ag5
ag4
aa(lp1197
(S'rein'
I104
tp1198
ag4
ag5
ag5
ag5
ag347
aa(lp1199
g109
ag272
ag107
ag225
ag145
ag4
aa(lp1200
g41
ag260
ag4
ag5
ag75
ag3
aa(lp1201
g3
ag18
ag4
ag5
ag5
ag310
aa(lp1202
g231
ag39
ag5
ag5
ag84
ag4
aa(lp1203
g3
a(S'oracion'
I9
tp1204
ag22
ag474
ag5
ag51
aa(lp1205
g194
ag118
ag86
ag132
ag153
ag4
aa(lp1206
g44
ag259
ag23
ag5
ag515
ag3
aa(lp1207
g39
ag97
ag18
ag5
ag84
ag51
aa(lp1208
g941
ag86
ag4
ag22
ag5
ag37
aa(lp1209
g358
ag39
ag15
ag5
ag11
ag4
aa(lp1210
g4
ag18
ag124
ag209
ag398
ag18
aa(lp1211
g3
ag54
ag18
ag5
ag54
ag3
aa(lp1212
g4
ag4
ag4
ag25
ag5
ag356
aa(lp1213
g3
ag18
ag5
ag5
ag5
ag25
aa(lp1214
g481
ag23
ag5
ag161
ag18
ag37
aa(lp1215
g37
ag3
ag22
ag5
ag5
a(S'entren'
I10
tp1216
aa(lp1217
g173
ag4
ag21
ag5
ag26
ag3
aa(lp1218
g3
ag4
ag1073
ag5
ag86
ag3
aa(lp1219
g39
ag23
ag119
ag5
ag84
ag20
aa(lp1220
g26
ag32
ag4
ag5
ag222
ag75
aa(lp1221
g41
ag159
ag4
ag216
ag39
ag37
aa(lp1222
g118
ag4
ag4
ag65
ag5
ag120
aa(lp1223
g4
ag4
ag4
ag5
ag431
ag4
aa(lp1224
g4
ag221
ag5
ag268
ag18
ag37
aa(lp1225
g4
a(S'vist'
I135
tp1226
ag5
ag132
ag5
ag26
aa(lp1227
g109
ag97
a(S'sombr'
I35
tp1228
ag273
ag54
ag298
aa(lp1229
g4
ag59
ag518
ag5
ag84
ag61
aa(lp1230
g560
ag4
ag234
ag273
ag5
ag51
aa(lp1231
g3
ag3
ag4
ag5
ag18
ag27
aa(lp1232
g339
ag272
ag107
ag5
ag18
ag4
aa(lp1233
g26
ag3
ag4
ag5
ag291
ag75
aa(lp1234
g560
ag49
ag478
ag22
ag5
ag51
aa(lp1235
g3
ag4
ag5
ag5
ag32
ag26
aa(lp1236
g412
ag39
ag55
ag5
ag41
ag3
aa(lp1237
g26
ag4
ag202
ag39
ag5
ag3
aa(lp1238
g560
ag49
ag478
ag22
ag5
ag1104
aa(lp1239
g4
ag917
ag4
ag5
ag5
ag23
aa(lp1240
g339
ag82
ag4
ag8
ag153
ag3
aa(lp1241
g95
ag4
ag160
ag627
ag153
ag3
aa(lp1242
g4
ag37
ag4
ag5
ag54
ag3
aa(lp1243
g267
ag215
ag5
ag39
ag582
a(S'robl'
I29
tp1244
aa(lp1245
(Vcercan
I19
tp1246
ag64
ag29
ag264
ag204
ag4
aa(lp1247
g81
ag92
ag5
ag22
ag29
ag26
aa(lp1248
g4
ag59
ag15
ag391
ag122
ag3
aa(lp1249
g3
ag4
ag5
ag39
ag39
ag3
aa(lp1250
g4
ag39
ag4
ag5
ag834
ag3
aa(lp1251
g23
ag4
ag135
ag37
ag448
ag3
aa(lp1252
g4
ag617
ag37
ag99
ag100
ag35
aa(lp1253
g44
ag48
ag37
a(S'salon'
I21
tp1254
a(S'ident'
I10
tp1255
ag4
aa(lp1256
g4
ag3
ag23
ag5
ag198
ag72
aa(lp1257
g54
ag181
ag5
ag268
ag222
ag61
aa(lp1258
g3
ag920
ag119
ag161
ag75
ag26
aa(lp1259
g20
ag4
ag4
ag543
ag204
ag4
aa(lp1260
g4
ag290
ag37
ag347
ag74
ag21
aa(lp1261
g642
ag39
ag55
ag273
ag54
ag107
aa(lp1262
g4
ag4
ag115
ag5
ag29
ag356
aa(lp1263
g20
ag334
ag4
ag5
ag54
ag4
aa(lp1264
g41
ag387
ag4
ag33
a(S'content'
I47
tp1265
ag4
aa(lp1266
g3
ag215
ag4
ag137
ag18
ag37
aa(lp1267
g26
ag327
ag202
ag323
ag39
ag573
aa(lp1268
g3
ag436
ag645
ag264
ag204
ag18
aa(lp1269
g165
ag3
ag49
ag145
ag146
ag4
aa(lp1270
g41
ag4
ag4
ag5
ag23
a(S'lat'
I13
tp1271
aa(lp1272
g20
ag3
ag107
ag5
ag361
ag4
aa(lp1273
g41
ag566
ag998
ag430
ag515
ag107
aa(lp1274
g4
ag39
ag5
ag5
ag54
ag3
aa(lp1275
g697
ag48
ag335
ag430
ag15
ag231
aa(lp1276
g81
ag617
ag21
ag294
ag18
ag37
aa(lp1277
g298
ag539
ag4
ag103
ag861
ag32
aa(lp1278
g4
ag4
ag4
ag5
ag39
ag23
aa(lp1279
g4
ag3
ag4
ag5
ag5
ag356
aa(lp1280
g4
ag4
ag277
ag132
ag5
ag26
aa(lp1281
g4
ag4
ag120
ag5
ag5
ag72
aa(lp1282
g4
ag18
ag4
ag22
ag39
ag3
aa(lp1283
g39
ag215
ag642
ag161
ag75
ag107
aa(lp1284
g41
ag97
ag1073
a(S'cub'
I17
tp1285
ag846
ag45
aa(lp1286
g3
ag277
ag4
ag37
ag54
ag4
aa(lp1287
g13
ag267
ag215
ag10
ag11
ag18
aa(lp1288
g41
ag215
ag642
ag5
ag122
ag3
aa(lp1289
g194
ag118
ag86
ag132
ag335
a(Vcarbon
I19
tp1290
aa(lp1291
g39
ag290
ag473
ag264
ag18
ag4
aa(lp1292
g4
ag221
a(Varte
I22
tp1293
ag5
ag15
ag26
aa(lp1294
g3
ag4
ag4
ag5
ag161
ag4
aa(lp1295
g20
ag4
ag4
ag161
ag5
ag4
aa(lp1296
g41
ag14
ag161
ag5
ag75
ag107
aa(lp1297
g890
ag390
ag86
ag132
ag515
ag3
aa(lp1298
g819
ag3
ag4
ag5
ag5
ag26
aa(lp1299
g44
ag39
ag4
ag5
ag5
ag45
aa(lp1300
g13
ag775
ag522
ag5
ag334
ag407
aa(lp1301
g41
ag14
ag4
ag5
ag215
ag97
aa(lp1302
(Vinfluenci
I12
tp1303
ag259
ag29
ag5
ag18
ag26
aa(lp1304
g481
ag23
ag29
ag5
ag75
ag222
aa(lp1305
g4
ag917
ag4
ag5
ag5
ag4
aa(lp1306
g593
ag14
ag4
ag10
ag11
ag18
aa(lp1307
g13
ag54
ag44
ag5
ag5
ag1172
aa(lp1308
g151
ag4
ag86
ag137
ag5
ag51
aa(lp1309
g4
ag39
ag160
ag578
ag122
ag3
aa(lp1310
g81
ag92
ag905
ag10
ag122
ag3
aa(lp1311
g3
ag4
a(S'deci'
I126
tp1312
ag132
ag18
ag27
aa(lp1313
g313
ag39
ag55
ag37
ag41
ag51
aa(lp1314
g3
ag277
ag5
ag65
ag5
ag3
aa(lp1315
g3
ag39
ag5
ag5
ag39
ag3
aa(lp1316
g4
ag221
ag347
ag225
ag322
ag18
aa(lp1317
g6
ag97
ag347
ag161
ag213
ag291
aa(lp1318
g39
ag4
ag4
ag5
ag54
ag293
aa(lp1319
g26
ag39
ag5
ag39
ag5
ag4
aa(lp1320
g20
ag3
ag4
ag161
ag41
ag4
aa(lp1321
g4
ag221
ag49
ag124
ag5
ag51
aa(lp1322
g26
ag25
ag5
ag5
ag5
ag75
aa(lp1323
g4
ag4
ag160
ag578
ag5
ag4
aa(lp1324
g178
ag54
ag29
ag454
ag5
ag18
aa(lp1325
g79
ag4
ag505
ag10
ag11
ag18
aa(lp1326
g1303
ag259
ag374
ag5
ag5
ag26
aa(lp1327
g3
ag277
ag5
ag5
ag5
ag41
aa(lp1328
g41
ag4
ag4
ag5
ag499
ag37
aa(lp1329
g173
ag4
ag371
ag5
ag41
ag3
aa(lp1330
g41
ag272
ag107
ag5
ag11
ag3
aa(lp1331
g149
ag4
ag21
ag595
ag5
ag3
aa(lp1332
(S'jaul'
I16
tp1333
ag256
ag219
ag403
ag11
ag4
aa(lp1334
g13
ag4
ag4
ag5
ag5
ag3
aa(lp1335
g41
ag330
ag374
ag5
ag145
ag4
aa(lp1336
g4
ag59
ag518
ag5
a(S'nub'
I49
tp1337
a(Vtransform
I31
tp1338
aa(lp1339
g3
ag4
ag4
ag5
ag5
ag27
aa(lp1340
g4
ag54
ag4
ag5
ag23
ag4
aa(lp1341
g4
ag18
ag124
ag5
ag84
ag4
aa(lp1342
g4
ag361
ag4
ag5
ag5
ag41
aa(lp1343
g4
ag143
ag998
ag302
ag204
ag37
aa(lp1344
g3
ag4
ag5
ag22
ag5
ag3
aa(lp1345
g23
ag215
ag642
ag137
ag5
ag51
aa(lp1346
g54
ag181
ag9
ag268
ag222
ag161
aa(lp1347
g4
ag8
ag34
ag5
ag15
ag56
aa(lp1348
g386
ag387
ag4
a(Vtemperatur
I24
tp1349
ag431
ag4
aa(lp1350
g3
ag18
ag5
ag5
ag5
ag4
aa(lp1351
g20
ag4
ag107
ag5
ag45
ag4
aa(lp1352
g233
ag25
ag115
ag99
ag100
ag18
aa(lp1353
g3
ag18
ag5
ag5
ag5
ag41
aa(lp1354
g54
ag181
ag4
ag137
ag5
ag3
aa(lp1355
g41
ag387
ag4
ag39
ag721
ag21
aa(lp1356
g118
ag3
ag4
ag65
ag5
ag120
aa(lp1357
g3
ag4
ag4
ag5
ag84
ag4
aa(lp1358
g41
ag566
ag4
ag50
ag238
ag37
aa(lp1359
g39
ag37
ag837
ag474
ag291
ag3
aa(lp1360
g3
ag39
ag9
ag10
ag75
a(S'jueg'
I73
tp1361
aa(lp1362
g3
ag277
ag5
ag132
ag5
ag4
aa(lp1363
g149
ag4
ag4
ag5
ag18
ag3
aa(lp1364
g151
ag215
ag4
ag216
ag217
ag37
aa(lp1365
g3
ag49
ag5
ag5
ag5
ag3
aa(lp1366
g941
ag3
ag5
ag5
ag5
ag37
aa(lp1367
g4
ag277
ag275
ag37
ag18
ag37
aa(lp1368
g54
ag4
ag4
ag5
ag39
ag48
aa(lp1369
g54
ag181
ag182
ag161
ag11
ag4
aa(lp1370
g953
ag151
ag4
a(Vmt
I17
tp1371
ag284
ag45
aa(lp1372
g3
ag8
ag624
ag9
ag5
ag42
aa(lp1373
g4
ag48
ag234
ag474
ag202
a(S'cf'
I13
tp1374
aa(lp1375
g41
ag97
ag44
ag384
ag215
ag1059
aa(lp1376
g192
ag390
ag32
ag398
ag41
ag3
aa(lp1377
g6
ag450
ag202
ag398
ag334
ag26
aa(lp1378
g3
ag4
ag4
ag132
ag23
ag310
aa(lp1379
g1021
ag3
ag168
ag37
ag74
ag21
aa(lp1380
g3
ag267
ag335
a(S'entiend'
I21
tp1381
ag184
ag1016
aa(lp1382
g65
ag4
ag4
ag5
ag250
ag3
aa(lp1383
g44
ag14
ag374
ag5
ag13
a(Vcinc
I49
tp1384
aa(lp1385
g188
ag124
ag343
ag5
ag18
ag37
aa(lp1386
g149
ag4
ag23
ag5
ag5
ag3
aa(lp1387
g188
ag4
ag18
ag203
ag663
ag75
aa(lp1388
g54
ag39
ag5
ag5
ag5
ag48
aa(lp1389
g358
ag39
ag275
ag37
ag448
ag4
aa(lp1390
g3
ag49
ag18
ag5
ag5
ag3
aa(lp1391
g4
ag4
ag5
ag5
ag23
ag3
aa(lp1392
g4
ag917
ag4
ag5
ag5
ag18
aa(lp1393
g39
ag4
ag135
ag65
ag66
ag4
aa(lp1394
g3
ag39
ag4
ag5
ag5
ag29
aa(lp1395
g44
ag3
ag4
ag5
ag873
ag45
aa(lp1396
g3
ag267
ag335
ag25
ag18
ag795
aa(lp1397
g41
ag4
ag4
ag5
ag5
ag3
aa(lp1398
g3
ag3
ag4
ag5
ag39
ag310
aa(lp1399
g4
ag4
ag202
ag5
ag334
ag356
aa(lp1400
g4
ag37
ag4
ag5
ag32
ag4
aa(lp1401
g192
ag4
ag4
ag382
ag49
ag18
aa(lp1402
g4
ag4
ag29
ag5
ag5
ag3
aa(lp1403
g54
ag143
ag642
ag161
ag54
ag179
aa(lp1404
g271
ag272
ag107
ag5
ag663
ag560
aa(lp1405
g18
ag3
ag115
ag504
ag5
ag45
aa(lp1406
g4
ag277
ag4
ag5
ag5
ag3
aa(lp1407
g4
ag4
ag5
ag233
ag5
ag41
aa(lp1408
g20
ag86
ag4
ag5
ag18
ag4
aa(lp1409
g44
ag4
ag4
ag5
ag5
ag45
aa(lp1410
g44
ag54
ag202
ag5
ag5
ag45
aa(lp1411
g233
ag900
ag86
ag203
ag663
ag4
aa(lp1412
g4
ag250
ag5
ag5
ag90
ag4
aa(lp1413
g3
ag4
ag5
ag5
ag5
ag41
aa(lp1414
g20
ag3
ag4
ag5
ag834
ag4
aa(lp1415
g4
ag4
ag4
ag22
ag23
ag4
aa(lp1416
g4
ag4
ag4
ag39
ag5
ag4
aa(lp1417
g37
ag159
ag202
ag403
ag41
ag37
aa(lp1418
g653
ag436
ag5
ag161
ag204
ag18
aa(lp1419
g4
ag4
ag4
ag39
ag13
ag6
aa(lp1420
g619
ag4
ag248
ag5
ag5
ag161
aa(lp1421
g4
ag250
ag4
ag132
ag5
ag4
aa(lp1422
g4
ag221
ag119
ag5
ag84
ag20
aa(lp1423
g23
ag215
ag29
ag5
ag18
ag454
aa(lp1424
g54
ag108
ag369
a(S'organ'
I39
tp1425
ag204
ag18
aa(lp1426
g4
ag21
ag23
ag132
ag5
ag72
aa(lp1427
g4
ag4
ag160
ag161
ag18
ag75
aa(lp1428
g358
ag310
ag18
ag672
ag5
ag51
aa(lp1429
g41
ag97
ag4
ag297
ag41
ag42
aa(lp1430
g165
ag127
ag4
ag288
ag215
ag3
aa(lp1431
g173
ag4
ag202
ag5
ag23
ag3
aa(lp1432
g3
ag4
ag4
ag39
ag361
ag310
aa(lp1433
g194
ag118
ag86
ag132
ag515
ag3
aa(lp1434
g4
ag4
ag4
ag39
ag13
ag3
aa(lp1435
g3
ag277
ag4
ag5
ag5
ag310
aa(lp1436
g440
ag25
ag29
ag5
ag15
ag56
aa(lp1437
g41
ag124
ag792
ag190
ag18
ag37
aa(lp1438
g20
ag4
ag4
ag90
ag5
ag4
aa(lp1439
g4
ag39
ag5
ag39
ag5
ag4
aa(lp1440
g386
ag97
ag49
a(Vinca
I14
tp1441
a(S'azul'
I61
tp1442
ag4
aa(lp1443
g4
ag33
ag4
ag145
ag146
ag3
aa(lp1444
g37
ag39
ag115
ag99
ag5
ag51
aa(lp1445
g37
ag39
a(S'voy'
I60
tp1446
ag792
ag18
ag4
aa(lp1447
g54
ag143
ag115
ag99
ag100
ag18
aa(lp1448
g188
ag277
ag275
ag10
ag11
ag120
aa(lp1449
g41
ag277
ag183
ag124
ag125
ag107
aa(lp1450
g4
ag4
ag18
ag6
ag5
ag356
aa(lp1451
g54
ag4
ag4
ag5
ag5
ag4
aa(lp1452
g4
ag143
a(S'sali'
I99
tp1453
ag496
ag210
ag37
aa(lp1454
g3
ag37
ag4
ag5
ag5
ag27
aa(lp1455
g54
ag181
ag5
ag93
ag229
ag41
aa(lp1456
g697
ag3
a(Vcuac
I12
tp1457
ag890
ag18
ag37
aa(lp1458
g4
ag4
ag5
ag5
ag834
ag3
aa(lp1459
g20
ag4
ag107
ag132
ag5
ag4
aa(lp1460
g4
ag4
ag4
ag39
ag5
ag18
aa(lp1461
g386
ag215
ag5
ag39
ag582
ag1244
aa(lp1462
g65
a(S'lugar'
I19
tp1463
ag18
ag203
ag18
ag4
aa(lp1464
g39
ag330
ag374
ag5
ag663
ag4
aa(lp1465
g4
ag82
ag144
ag264
ag204
ag18
aa(lp1466
g4
ag23
ag1337
ag5
ag15
ag37
aa(lp1467
g3
ag155
ag4
ag5
ag515
ag3
aa(lp1468
g44
ag4
ag5
ag5
ag256
ag3
aa(lp1469
g697
ag3
a(S'palill'
I22
tp1470
ag273
ag5
ag573
aa(lp1471
g4
ag4
ag37
ag5
ag39
ag356
aa(lp1472
g3
ag277
ag275
ag10
ag5
ag4
aa(lp1473
g4
ag221
ag1293
ag137
ag5
ag3
aa(lp1474
g4
ag49
ag29
ag5
ag32
ag61
aa(lp1475
g26
ag4
a(S'femenin'
I12
tp1476
ag5
ag5
ag75
aa(lp1477
g3
ag4
ag4
ag5
ag204
ag18
aa(lp1478
g26
ag151
ag18
ag5
ag18
ag37
aa(lp1479
g1108
ag3
ag81
ag37
ag5
ag6
aa(lp1480
g4
ag221
ag202
ag190
ag84
ag298
aa(lp1481
g4
ag3
ag120
ag5
ag54
ag72
aa(lp1482
g6
ag18
ag5
ag5
ag32
ag4
aa(lp1483
g173
ag4
ag4
ag5
ag545
ag3
aa(lp1484
g54
ag54
ag4
ag5
ag5
ag3
aa(lp1485
g39
ag4
ag5
ag5
ag244
ag3
aa(lp1486
g4
ag82
ag5
ag5
ag93
ag3
aa(lp1487
g6
ag450
ag219
ag216
ag269
ag75
aa(lp1488
g54
ag92
ag5
ag203
ag663
ag37
aa(lp1489
g3
ag4
ag4
ag39
ag13
ag6
aa(lp1490
g39
ag23
ag119
ag161
ag75
ag107
aa(lp1491
g4
ag4
ag4
ag22
ag161
ag4
aa(lp1492
g13
ag272
ag107
ag5
ag11
ag4
aa(lp1493
g4
ag59
ag5
ag5
ag11
ag4
aa(lp1494
g202
ag387
ag4
ag216
ag846
ag41
aa(lp1495
g4
ag4
ag65
ag5
ag5
ag356
aa(lp1496
g298
ag14
ag4
ag5
ag731
ag23
aa(lp1497
g3
ag670
ag135
ag5
ag11
ag4
aa(lp1498
g3
ag4
ag692
ag5
ag5
ag4
aa(lp1499
g81
ag92
ag606
ag34
ag18
ag37
aa(lp1500
g20
ag4
ag4
ag132
a(S'rapid'
I12
tp1501
ag4
aa(lp1502
g23
ag97
ag1228
ag273
ag54
ag37
aa(lp1503
g39
ag259
ag15
ag5
ag41
ag407
aa(lp1504
g54
ag181
ag4
ag5
ag18
ag41
aa(lp1505
g3
ag3
ag4
ag6
ag314
ag27
aa(lp1506
g4
ag82
ag144
ag328
ag631
ag1016
aa(lp1507
g151
ag4
ag135
ag90
ag1129
ag37
aa(lp1508
g20
ag4
ag23
ag5
a(S'ciel'
I95
tp1509
ag4
aa(lp1510
(S'cai'
I23
tp1511
ag290
ag473
ag264
ag18
ag37
aa(lp1512
g41
ag39
ag5
ag5
ag5
ag4
aa(lp1513
g4
ag39
ag4
ag5
ag23
ag4
aa(lp1514
g54
ag23
ag119
ag5
ag84
ag20
aa(lp1515
g358
ag39
ag55
ag273
ag5
ag37
aa(lp1516
g20
ag21
ag120
ag5
ag39
ag4
aa(lp1517
g151
ag4
ag135
ag37
ag448
ag410
aa(lp1518
g298
ag14
ag4
ag5
a(Vescuel
I29
tp1519
ag3
aa(lp1520
g178
ag54
ag44
ag351
ag5
ag4
aa(lp1521
g665
ag286
ag4
ag5
ag15
ag37
aa(lp1522
g282
ag3
ag4
ag5
ag21
ag6
aa(lp1523
g41
ag18
ag5
ag5
ag54
ag3
aa(lp1524
g4
ag54
ag5
ag132
ag5
ag4
aa(lp1525
g215
ag4
ag4
ag5
ag5
ag41
aa(lp1526
g65
ag4
ag90
ag5
ag5
ag3
aa(lp1527
g440
ag4
ag160
ag161
ag32
ag37
aa(lp1528
g149
ag18
ag44
ag22
ag5
ag3
aa(lp1529
g3
ag39
ag21
ag6
ag5
ag310
aa(lp1530
g4
ag4
ag37
ag5
ag23
ag356
aa(lp1531
g4
ag221
a(S'pun'
I14
tp1532
ag849
ag18
ag37
aa(lp1533
g697
ag3
ag120
ag924
ag11
ag4
aa(lp1534
g173
ag4
ag21
ag5
ag202
ag3
aa(lp1535
g120
a(S'vient'
I121
tp1536
ag4
ag5
ag23
ag4
aa(lp1537
g3
ag4
ag4
ag39
ag5
ag77
aa(lp1538
g697
ag3
ag37
ag10
ag153
ag3
aa(lp1539
g39
ag181
ag5
ag93
ag229
ag45
aa(lp1540
g44
ag48
ag335
ag216
ag5
ag573
aa(lp1541
g58
ag14
ag9
ag77
ag210
ag23
aa(lp1542
g3
ag4
ag120
ag5
ag5
ag248
aa(lp1543
g4
ag143
ag1453
ag496
ag11
ag18
aa(lp1544
g39
ag290
ag9
ag5
ag60
ag3
aa(lp1545
g4
ag884
ag885
ag5
ag15
a(S'aceit'
I9
tp1546
aa(lp1547
g41
ag3
ag65
ag5
ag5
ag1271
aa(lp1548
g3
ag361
ag4
ag5
ag39
ag3
aa(lp1549
g3
ag4
ag256
ag5
ag18
ag27
aa(lp1550
g4
ag277
ag4
ag39
ag5
ag248
aa(lp1551
g20
ag37
ag5
ag22
ag45
ag4
aa(lp1552
g3
ag18
ag5
ag5
ag161
ag3
aa(lp1553
g3
ag48
ag5
ag132
ag5
ag3
aa(lp1554
g483
ag14
ag4
ag484
ag260
ag37
aa(lp1555
g4
ag4
ag120
ag5
ag54
ag72
aa(lp1556
g4
ag39
ag4
ag161
ag250
ag3
aa(lp1557
g4
ag86
ag4
ag5
ag32
ag3
aa(lp1558
g4
ag3
ag115
ag161
ag18
ag37
aa(lp1559
g4
ag3
ag21
ag132
ag5
ag72
aa(lp1560
g54
ag1204
ag22
ag474
ag125
ag37
aa(lp1561
g26
ag3
ag5
ag5
ag18
ag75
aa(lp1562
g32
ag4
ag160
ag578
ag5
ag51
aa(lp1563
g26
ag4
ag4
ag5
ag5
ag4
aa(lp1564
g4
a(Vhard
I18
tp1565
ag4
ag132
ag20
ag133
aa(lp1566
g39
ag4
ag4
ag132
ag39
ag3
aa(lp1567
g20
ag3
ag65
ag90
ag5
ag4
aa(lp1568
g206
ag221
ag18
ag297
ag29
ag26
aa(lp1569
g4
ag4
ag5
ag5
ag23
ag41
aa(lp1570
g4
ag4
ag4
ag5
ag54
ag72
aa(lp1571
g54
ag92
ag5
ag137
ag291
ag4
aa(lp1572
g4
ag4
ag202
ag5
ag202
ag356
aa(lp1573
g4
ag54
ag4
ag5
ag5
ag3
aa(lp1574
g4
ag39
ag4
ag5
ag18
ag4
aa(lp1575
g899
ag1228
ag202
ag5
ag84
ag298
aa(lp1576
g9
ag903
ag48
ag273
ag54
ag4
aa(lp1577
g1108
ag4
ag4
ag5
ag335
ag6
aa(lp1578
g20
ag3
ag4
ag5
a(S'filtr'
I14
tp1579
ag4
aa(lp1580
g4
ag884
ag885
ag217
ag41
ag6
aa(lp1581
g3
ag4
ag4
ag5
ag244
ag4
aa(lp1582
g79
ag4
ag9
ag40
ag5
ag51
aa(lp1583
g39
ag290
ag29
ag5
ag66
ag37
aa(lp1584
g194
ag118
ag86
ag5
ag146
ag18
aa(lp1585
g3
ag23
ag347
ag297
ag515
ag3
aa(lp1586
g4
ag4
ag23
ag5
ag54
ag72
aa(lp1587
g149
ag4
ag4
ag132
ag41
ag3
aa(lp1588
g3
ag54
ag18
ag5
ag23
ag4
aa(lp1589
g725
ag3
ag4
ag5
ag5
ag51
aa(lp1590
g4
ag4
ag120
ag5
ag398
ag4
aa(lp1591
g81
ag92
ag18
ag203
ag663
ag560
aa(lp1592
g173
ag3
ag81
ag5
ag18
ag3
aa(lp1593
g26
ag9
ag4
ag161
ag5
ag75
aa(lp1594
g109
ag92
ag5
ag5
ag322
ag37
aa(lp1595
g3
ag175
ag119
ag161
ag75
ag161
aa(lp1596
g41
ag33
ag44
ag60
a(Vmayor
I172
tp1597
ag3
aa(lp1598
g4
ag54
ag5
ag25
ag5
ag3
aa(lp1599
g4
ag18
ag5
ag5
ag32
ag4
aa(lp1600
g3
ag4
ag37
ag132
ag5
ag4
aa(lp1601
g4
ag4
ag18
ag5
ag39
ag77
aa(lp1602
g3
ag670
ag844
ag217
ag846
ag41
aa(lp1603
g4
ag3
ag161
ag5
ag5
ag356
aa(lp1604
g41
ag277
ag5
ag39
ag5
ag3
aa(lp1605
g3
ag286
ag287
ag474
ag202
ag179
aa(lp1606
g725
ag39
ag55
ag65
ag100
ag51
aa(lp1607
g173
ag4
ag4
ag5
ag458
ag3
aa(lp1608
g4
ag3
ag4
ag5
ag361
ag72
aa(lp1609
g41
ag97
ag34
ag5
ag75
ag107
aa(lp1610
g18
ag4
ag5
ag5
ag5
ag3
aa(lp1611
g481
ag250
a(S'selv'
I21
tp1612
ag161
ag122
ag3
aa(lp1613
g3
ag39
ag5
ag5
ag5
ag4
aa(lp1614
g149
ag4
ag5
ag132
ag5
ag3
aa(lp1615
g118
ag4
ag107
ag6
ag5
ag120
aa(lp1616
g4
ag4
ag4
ag39
ag13
ag4
aa(lp1617
g4
ag4
ag4
ag5
ag60
ag356
aa(lp1618
g149
ag39
ag4
ag5
ag39
ag3
aa(lp1619
g41
ag4
ag4
ag5
ag5
ag41
aa(lp1620
g3
ag21
ag189
a(S'bruj'
I46
tp1621
ag13
a(S'gallin'
I46
tp1622
aa(lp1623
g481
ag250
ag1612
ag578
ag11
ag4
aa(lp1624
g3
ag3
ag4
ag5
ag204
ag310
aa(lp1625
g95
ag4
ag160
ag5
ag41
ag4
aa(lp1626
g200
ag369
ag18
ag5
ag66
ag97
aa(lp1627
g3
ag86
ag4
ag5
ag23
ag4
aa(lp1628
g481
ag23
ag4
ag39
ag1337
ag41
aa(lp1629
g282
ag54
ag4
ag5
ag26
ag6
aa(lp1630
g54
ag181
ag9
ag235
ag11
ag4
aa(lp1631
g20
ag3
ag4
ag132
ag45
ag4
aa(lp1632
g41
ag566
ag4
ag103
ag225
ag37
aa(lp1633
g3
ag48
ag885
ag5
ag84
ag518
aa(lp1634
g3
ag4
ag5
ag233
ag5
ag3
aa(lp1635
g3
ag155
ag1293
ag268
ag29
ag4
aa(lp1636
g44
ag4
ag4
ag5
ag93
ag45
aa(lp1637
g665
ag3
ag115
ag901
ag18
ag127
aa(lp1638
g32
ag4
ag160
ag161
ag75
ag347
aa(lp1639
g41
ag221
ag29
ag5
ag41
ag410
aa(lp1640
g6
ag18
ag107
ag132
ag5
ag4
aa(lp1641
g39
ag290
ag4
ag216
ag1192
ag410
aa(lp1642
g26
ag3
ag5
ag132
ag314
ag75
aa(lp1643
g4
ag37
ag4
ag5
ag244
ag3
aa(lp1644
g200
ag201
ag202
ag5
ag515
ag3
aa(lp1645
g593
ag14
ag4
ag268
ag104
ag21
aa(lp1646
g44
ag32
ag4
ag5
ag256
ag45
aa(lp1647
g619
ag4
ag37
ag5
ag54
ag161
aa(lp1648
g79
ag4
ag29
ag5
ag18
ag37
aa(lp1649
g18
ag4
ag277
ag5
ag5
ag3
aa(lp1650
g32
ag327
ag937
ag430
ag448
ag4
aa(lp1651
g3
ag4
ag471
ag5
ag5
ag27
aa(lp1652
g3
ag8
ag5
ag5
ag250
ag3
aa(lp1653
g4
ag4
ag4
ag5
ag5
ag41
aa(lp1654
g39
ag3
ag115
ag99
ag29
ag26
aa(lp1655
g4
ag4
ag4
ag22
ag250
ag4
aa(lp1656
g4
ag4
ag5
ag5
ag39
ag48
aa(lp1657
g476
ag277
ag275
ag37
ag448
ag21
aa(lp1658
g358
ag39
ag55
ag5
ag15
ag4
aa(lp1659
g3
ag4
ag4
ag103
ag225
ag1016
aa(lp1660
g4
ag4
ag55
ag124
a(S'graci'
I77
tp1661
ag1104
aa(lp1662
g44
ag48
ag642
ag5
ag153
ag3
aa(lp1663
g54
ag143
ag645
ag79
ag5
ag51
aa(lp1664
(S'central'
I18
tp1665
ag3
ag5
ag5
ag5
a(S'abuelit'
I47
tp1666
aa(lp1667
g481
ag23
ag168
ag169
ag291
ag4
aa(lp1668
g173
ag3
ag4
ag161
ag5
ag3
aa(lp1669
g149
ag3
ag4
ag39
ag361
ag3
aa(lp1670
g37
ag159
ag4
ag5
ag15
ag18
aa(lp1671
g4
ag4
ag18
ag5
ag5
ag18
aa(lp1672
g41
ag33
ag4
ag132
ag75
ag222
aa(lp1673
g4
ag18
ag5
ag5
ag5
ag18
aa(lp1674
g118
ag4
ag4
ag6
ag302
ag120
aa(lp1675
g1246
ag617
ag4
ag183
ag204
ag161
aa(lp1676
g593
ag14
ag4
ag5
ag153
ag3
aa(lp1677
g44
ag48
ag23
ag264
ag204
ag18
aa(lp1678
g4
ag143
ag1453
a(S'gol'
I25
tp1679
ag5
ag222
aa(lp1680
g890
ag33
ag5
ag268
ag256
ag133
aa(lp1681
g18
ag4
ag4
ag5
ag54
ag4
aa(lp1682
g13
ag151
ag996
ag39
ag5
ag51
aa(lp1683
g233
ag4
ag160
ag578
ag5
ag51
aa(lp1684
g18
ag14
ag4
ag5
ag15
ag3
aa(lp1685
g44
ag3
ag4
ag23
ag5
ag45
aa(lp1686
g4
ag259
ag4
ag39
ag5
ag4
aa(lp1687
g4
ag4
ag5
ag39
ag5
ag4
aa(lp1688
g4
ag39
ag4
ag132
ag161
ag3
aa(lp1689
g4
ag45
ag5
ag5
ag5
ag3
aa(lp1690
g3
ag54
ag4
ag5
ag5
ag3
aa(lp1691
g313
ag330
ag374
ag5
ag204
ag37
aa(lp1692
g334
ag4
ag4
ag5
ag5
ag41
aa(lp1693
g26
ag39
ag4
ag5
ag5
ag75
aa(lp1694
g653
ag436
ag5
ag981
ag11
ag4
aa(lp1695
g422
ag37
ag4
ag5
ag5
ag161
aa(lp1696
g54
ag4
ag4
ag264
ag13
ag1622
aa(lp1697
g6
ag4
ag4
ag5
ag39
ag4
aa(lp1698
g44
ag48
ag335
ag430
ag515
ag814
aa(lp1699
g3
ag1381
ag4
ag5
ag23
ag4
aa(lp1700
g3
ag4
ag4
ag161
ag250
ag3
aa(lp1701
g122
ag92
ag115
ag99
ag204
ag18
aa(lp1702
g41
ag97
ag9
ag268
ag30
ag1032
aa(lp1703
g54
ag39
ag5
ag39
ag5
ag107
aa(lp1704
g3
ag4
ag4
ag5
ag334
ag3
aa(lp1705
g4
ag256
ag37
ag5
ag5
ag356
aa(lp1706
g149
ag4
ag5
ag5
ag54
ag3
aa(lp1707
g39
ag21
ag189
ag203
ag663
ag3
aa(lp1708
g4
ag4
ag1579
ag5
ag5
ag4
aa(lp1709
g481
ag1132
ag331
ag137
ag5
ag51
aa(lp1710
g3
ag4
ag5
ag5
ag23
ag4
aa(lp1711
g122
ag92
ag5
ag268
ag18
ag127
aa(lp1712
g4
ag221
ag4
ag5
ag41
ag6
aa(lp1713
g81
ag82
ag736
ag294
ag18
ag37
aa(lp1714
g151
ag4
ag18
ag190
ag153
ag3
aa(lp1715
g4
ag3
ag248
ag22
ag37
ag356
aa(lp1716
g20
ag3
ag4
ag22
ag5
ag4
aa(lp1717
g3
ag48
ag5
ag5
ag5
ag3
aa(lp1718
g4
ag39
ag4
ag5
ag5
ag41
aa(lp1719
g32
ag54
ag44
ag351
ag104
ag4
aa(lp1720
g4
ag4
ag4
ag37
ag5
ag3
aa(lp1721
g32
ag33
ag4
a(S'vendr'
I13
tp1722
ag465
ag26
aa(lp1723
g173
ag3
ag5
ag5
ag21
ag3
aa(lp1724
g215
ag4
ag4
ag39
ag5
ag3
aa(lp1725
g4
ag221
ag5
ag268
ag60
ag61
aa(lp1726
g4
ag4
ag4
ag5
ag398
ag72
aa(lp1727
g890
ag33
ag44
ag384
ag18
ag37
aa(lp1728
g4
ag4
ag37
ag5
ag39
ag72
aa(lp1729
g4
a(Vbrev
I12
tp1730
ag5
ag5
ag5
ag41
aa(lp1731
g41
ag387
ag98
ag328
ag803
ag298
aa(lp1732
g4
ag39
ag5
ag5
ag37
ag4
aa(lp1733
g4
ag54
ag4
ag5
ag834
ag4
aa(lp1734
g4
ag39
ag4
ag5
ag5
ag6
aa(lp1735
g4
ag4
ag4
ag5
ag93
ag72
aa(lp1736
g3
ag4
ag5
ag132
ag5
ag4
aa(lp1737
(S'tard'
I95
tp1738
ag221
ag1293
ag5
ag15
ag56
aa(lp1739
g173
ag54
ag5
ag5
ag39
ag3
aa(lp1740
g107
ag21
ag23
ag5
ag15
ag51
aa(lp1741
g44
ag48
ag234
ag5
ag204
ag18
aa(lp1742
g20
ag4
ag202
ag5
ag54
ag4
aa(lp1743
g151
ag4
ag18
ag595
ag596
ag3
aa(lp1744
g109
ag4
ag4
ag132
ag5
ag808
aa(lp1745
g188
ag277
ag26
ag39
ag582
ag1244
aa(lp1746
g151
ag290
ag9
ag298
ag322
ag37
aa(lp1747
g4
ag82
ag202
ag90
ag1129
ag26
aa(lp1748
g13
ag4
ag4
ag5
ag5
ag4
aa(lp1749
g41
ag617
ag4
ag5
ag18
ag1059
aa(lp1750
g440
ag25
ag4
ag672
ag11
ag4
aa(lp1751
g90
ag25
ag29
ag5
ag60
ag3
aa(lp1752
g95
ag4
ag55
ag124
ag398
ag6
aa(lp1753
g84
ag25
ag599
ag65
ag66
ag4
aa(lp1754
g173
ag4
ag22
ag5
ag5
ag3
aa(lp1755
g4
ag4
ag4
ag5
ag834
ag4
aa(lp1756
g4
ag92
ag5
ag225
ag18
ag37
aa(lp1757
g941
ag4
ag4
ag5
ag23
ag37
aa(lp1758
g4
ag4
ag5
ag5
ag23
ag4
aa(lp1759
g194
ag436
ag5
ag225
ag84
ag518
aa(lp1760
g339
ag3
ag4
ag5
ag84
ag298
aa(lp1761
g32
ag33
ag18
ag454
ag5
ag41
aa(lp1762
g122
ag1565
ag86
ag132
ag60
ag61
aa(lp1763
g44
ag4
ag4
ag5
ag202
ag45
aa(lp1764
g1052
ag193
ag55
ag5
ag15
ag56
aa(lp1765
g149
ag18
ag5
ag5
ag5
ag3
aa(lp1766
g4
ag4
ag4
ag5
ag39
ag48
aa(lp1767
g3
ag18
ag4
ag5
ag692
ag4
aa(lp1768
g173
ag4
ag179
ag22
ag5
ag3
aa(lp1769
g4
ag4
ag4
a(S'list'
I55
tp1770
ag5
ag356
aa(lp1771
g4
ag221
ag975
ag77
ag229
ag120
aa(lp1772
g233
ag25
ag5
ag268
ag18
ag37
aa(lp1773
(S'pies'
I36
tp1774
ag1565
ag4
ag5
ag15
ag56
aa(lp1775
g1040
ag97
a(S'descubri'
I13
tp1776
a(S'vari'
I116
tp1777
ag260
ag37
aa(lp1778
g476
ag267
ag18
ag5
ag18
ag75
aa(lp1779
g4
ag4
ag4
ag5
ag26
ag356
aa(lp1780
g1108
ag3
ag107
ag5
ag54
ag6
aa(lp1781
g54
ag181
ag23
ag161
ag75
ag1361
aa(lp1782
g571
ag4
ag4
ag132
ag5
ag18
aa(lp1783
g4
ag4
ag5
ag5
ag5
ag3
aa(lp1784
g725
ag118
ag1228
ag924
ag11
ag4
aa(lp1785
g298
ag39
ag15
ag5
ag15
ag37
aa(lp1786
g79
ag4
ag18
ag454
ag5
ag3
aa(lp1787
g3
ag4
ag37
ag5
ag834
ag4
aa(lp1788
g4
ag4
ag4
ag37
ag5
ag26
aa(lp1789
g41
ag97
ag98
ag328
ag204
ag3
aa(lp1790
g188
ag48
ag23
ag264
ag204
ag4
aa(lp1791
g118
ag4
ag4
ag22
ag5
ag120
aa(lp1792
g817
ag4
ag5
ag5
ag18
ag18
aa(lp1793
g3
a(S'instant'
I19
tp1794
ag4
ag5
ag5
ag3
aa(lp1795
g26
ag327
ag115
ag99
ag122
ag3
aa(lp1796
g37
ag159
ag18
ag5
ag84
ag4
aa(lp1797
g26
ag4
ag5
ag5
ag161
ag3
aa(lp1798
g684
ag161
ag29
ag5
ag60
ag37
aa(lp1799
g1774
ag1565
ag1470
ag273
ag39
ag37
aa(lp1800
g54
ag181
ag23
ag264
ag204
ag18
aa(lp1801
g54
ag4
ag4
ag39
ag5
ag4
aa(lp1802
g4
ag4
ag1579
ag132
ag5
ag4
aa(lp1803
g4
ag9
ag5
ag5
ag39
ag41
aa(lp1804
g560
ag3
ag4
ag216
ag15
ag18
aa(lp1805
g4
ag398
ag331
ag5
ag5
ag3
aa(lp1806
g3
ag4
ag4
ag5
ag244
ag3
aa(lp1807
g26
ag4
ag4
ag23
ag23
ag75
aa(lp1808
g4
ag4
ag471
ag5
ag5
ag3
aa(lp1809
g39
ag310
ag23
ag5
ag18
ag37
aa(lp1810
g158
ag159
ag4
ag5
ag15
ag492
aa(lp1811
g1774
ag1565
ag4
ag5
ag18
ag75
aa(lp1812
g13
ag3
ag65
ag5
ag5
ag1172
aa(lp1813
g3
ag4
ag37
ag39
ag244
ag3
aa(lp1814
g41
ag97
ag32
ag288
ag215
ag3
aa(lp1815
g20
ag4
ag4
ag23
ag5
ag4
aa(lp1816
g3
ag21
ag23
ag5
ag5
ag310
aa(lp1817
g3
ag4
ag347
ag5
ag32
ag3
aa(lp1818
g39
ag4
ag4
ag5
ag90
ag293
aa(lp1819
g4
ag97
ag98
ag328
ag204
ag4
aa(lp1820
g20
ag3
ag5
ag412
ag5
ag4
aa(lp1821
g20
ag4
ag4
ag5
ag335
ag4
aa(lp1822
g3
ag4
a(Vtelescopi
I9
tp1823
ag5
ag23
ag4
aa(lp1824
g313
ag97
ag331
ag595
ag596
ag3
aa(lp1825
g26
ag711
ag4
ag5
ag334
ag75
aa(lp1826
g4
ag4
ag5
ag5
ag32
ag26
aa(lp1827
g84
ag193
ag29
ag5
ag54
ag97
aa(lp1828
g4
ag86
ag5
ag5
ag803
ag3
aa(lp1829
g4
ag4
ag161
ag5
ag161
ag72
aa(lp1830
g3
ag4
ag4
ag5
ag5
ag26
aa(lp1831
g81
ag92
ag5
ag137
ag5
ag3
aa(lp1832
g44
ag4
ag4
ag5
ag26
ag45
aa(lp1833
g4
ag670
ag234
ag273
ag54
ag37
aa(lp1834
g358
ag39
ag55
ag190
ag5
ag51
aa(lp1835
g619
ag54
ag4
ag5
ag5
ag161
aa(lp1836
g54
ag330
ag374
ag5
ag515
ag3
aa(lp1837
g173
ag3
ag4
ag137
ag5
ag3
aa(lp1838
g571
ag4
ag23
ag5
ag5
ag18
aa(lp1839
g13
ag3
ag9
ag37
ag684
ag392
aa(lp1840
g54
ag4
ag4
ag5
ag75
ag41
aa(lp1841
g3
ag4
ag120
ag5
ag5
ag4
aa(lp1842
g481
ag23
ag34
ag5
ag15
ag37
aa(lp1843
g41
ag97
ag160
ag5
ag204
ag18
aa(lp1844
g4
ag3
ag18
ag5
ag54
ag72
aa(lp1845
g4
ag277
ag4
ag22
ag39
ag3
aa(lp1846
g4
ag221
ag18
ag203
ag11
ag4
aa(lp1847
g819
ag3
ag4
ag132
ag5
ag26
aa(lp1848
g41
ag124
ag59
ag430
ag515
ag3
aa(lp1849
g84
ag25
ag26
ag137
ag5
ag45
aa(lp1850
g684
ag161
ag996
ag39
ag5
ag331
aa(lp1851
g4
ag39
ag4
ag5
ag32
ag4
aa(lp1852
g4
ag277
ag4
ag5
ag250
ag3
aa(lp1853
g44
ag4
ag202
ag5
ag45
ag45
aa(lp1854
g41
a(S'metal'
I36
tp1855
ag219
ag161
ag75
ag1016
aa(lp1856
g4
ag4
ag4
ag5
ag84
ag4
aa(lp1857
g41
ag97
ag1228
ag273
ag54
ag51
aa(lp1858
g4
ag4
ag4
ag25
ag13
ag4
aa(lp1859
g233
ag201
ag998
ag10
ag11
ag37
aa(lp1860
g26
ag151
ag5
ag137
ag5
ag45
aa(lp1861
g107
ag3
ag23
ag132
ag5
ag110
aa(lp1862
g3
ag4
ag4
ag5
ag39
ag3
aa(lp1863
g41
ag18
ag5
ag5
ag5
ag3
aa(lp1864
g173
ag4
ag44
ag5
ag5
ag3
aa(lp1865
g342
ag25
ag4
ag216
ag721
ag722
aa(lp1866
g4
ag605
ag202
ag5
ag15
ag37
aa(lp1867
g44
ag48
ag5
ag225
ag75
ag222
aa(lp1868
g41
ag387
ag4
ag216
ag388
ag6
aa(lp1869
g149
ag48
ag5
ag5
ag45
ag3
aa(lp1870
g717
ag201
ag202
ag5
ag84
ag298
aa(lp1871
g4
ag571
ag5
ag5
ag5
ag3
aa(lp1872
g233
ag92
ag5
ag137
ag11
ag3
aa(lp1873
g3
ag92
ag5
ag268
ag11
ag3
aa(lp1874
g95
ag9
ag518
ag65
ag66
ag97
aa(lp1875
g44
ag267
ag37
ag347
ag39
ag4
aa(lp1876
g386
ag387
ag4
ag203
ag18
ag61
aa(lp1877
g158
ag159
ag4
ag323
ag18
ag37
aa(lp1878
g20
ag334
ag4
ag25
ag5
ag4
aa(lp1879
g20
ag4
ag5
ag6
ag18
ag4
aa(lp1880
g41
ag97
ag9
ag40
ag204
ag18
aa(lp1881
g149
ag18
ag4
ag132
ag5
ag3
aa(lp1882
g81
ag48
a(Vindi
I10
tp1883
a(S'fuerz'
I101
tp1884
ag222
ag161
aa(lp1885
g4
ag92
ag5
ag5
ag5
ag26
aa(lp1886
g3
ag250
ag5
ag5
ag5
ag27
aa(lp1887
g79
ag259
ag189
ag5
ag18
ag37
aa(lp1888
g4
a(S'fil'
I12
tp1889
ag29
ag5
ag18
ag75
aa(lp1890
g18
ag361
ag5
ag5
ag5
ag41
aa(lp1891
g440
ag4
ag160
ag5
ag84
ag298
aa(lp1892
g20
ag4
ag4
ag5
ag458
ag4
aa(lp1893
g118
ag4
ag120
ag5
ag39
ag120
aa(lp1894
g298
ag14
ag119
ag161
ag204
ag18
aa(lp1895
g4
ag82
ag83
ag225
ag18
ag37
aa(lp1896
g4
ag256
ag4
ag5
ag13
ag356
aa(lp1897
g200
ag201
ag77
ag137
ag20
ag37
aa(lp1898
g3
ag18
ag4
ag39
ag5
ag4
aa(lp1899
g4
ag4
ag120
ag5
ag5
ag4
aa(lp1900
g20
ag3
ag161
ag5
ag5
ag4
aa(lp1901
g194
ag118
ag4
ag5
ag18
ag795
aa(lp1902
g122
ag92
ag473
ag728
ag204
ag18
aa(lp1903
g3
ag21
ag4
ag5
ag39
ag310
aa(lp1904
g4
ag21
ag161
ag5
ag5
ag72
aa(lp1905
g358
ag39
ag4
ag5
ag15
ag18
aa(lp1906
g3
ag54
ag18
ag5
ag5
ag120
aa(lp1907
g13
ag97
ag37
ag347
ag54
ag179
aa(lp1908
g44
ag14
ag4
ag152
ag153
ag3
aa(lp1909
g4
ag82
ag86
ag454
ag75
ag3
aa(lp1910
g20
ag4
ag5
ag5
ag26
ag4
aa(lp1911
(S'respondi'
I87
tp1912
ag4
ag4
ag5
ag161
ag4
aa(lp1913
g149
ag3
ag4
ag25
ag5
ag3
aa(lp1914
g4
ag4
ag5
ag233
ag5
ag3
aa(lp1915
g192
ag193
ag29
ag5
ag1078
a(S'zon'
I56
tp1916
aa(lp1917
g39
ag54
ag753
ag264
ag204
ag37
aa(lp1918
g149
ag18
ag277
ag5
ag204
ag3
aa(lp1919
g41
ag566
ag4
ag5
ag15
ag3
aa(lp1920
g4
ag4
ag5
ag5
ag161
ag3
aa(lp1921
g305
ag39
ag4
ag5
ag5
ag120
aa(lp1922
g44
ag4
ag215
ag5
ag5
ag45
aa(lp1923
g1774
ag1565
ag4
ag5
ag15
ag133
aa(lp1924
g4
ag4
ag107
ag132
ag45
ag41
aa(lp1925
g107
ag23
ag119
ag225
ag1597
ag3
aa(lp1926
g4
ag670
ag275
ag37
ag515
ag3
aa(lp1927
g151
ag4
ag86
ag132
ag66
ag6
aa(lp1928
g231
ag4
ag4
ag5
ag5
ag107
aa(lp1929
g41
ag97
ag120
ag273
ag54
ag107
aa(lp1930
g342
ag3
ag115
ag161
ag75
ag37
aa(lp1931
g81
ag92
ag5
ag5
ag515
ag3
aa(lp1932
g3
ag4
ag4
ag5
ag5
ag4
aa(lp1933
g178
ag54
ag996
ag39
ag5
ag179
aa(lp1934
g1246
ag64
ag29
ag5
ag5
ag3
aa(lp1935
g4
ag4
ag374
ag5
ag5
ag4
aa(lp1936
g173
ag4
ag248
ag5
ag39
ag3
aa(lp1937
g267
ag259
ag86
ag132
ag20
ag133
aa(lp1938
g235
ag54
ag4
ag23
ag5
ag32
aa(lp1939
g4
ag3
ag26
ag5
ag5
ag72
aa(lp1940
g4
ag4
ag4
ag129
ag122
ag4
aa(lp1941
g4
ag221
ag49
ag124
ag125
ag18
aa(lp1942
g3
ag4
ag4
ag5
ag834
ag4
aa(lp1943
g4
ag4
ag5
ag5
ag250
ag4
aa(lp1944
g3
ag48
ag234
ag264
ag204
ag4
aa(lp1945
g233
ag102
ag18
ag169
ag291
ag4
aa(lp1946
g4
ag4
ag1597
ag5
ag5
ag3
aa(lp1947
g298
ag14
ag4
a(S'proyect'
I25
tp1948
ag721
ag3
aa(lp1949
g3
ag39
ag4
ag5
ag54
ag27
aa(lp1950
g4
ag4
ag471
ag5
ag335
ag3
aa(lp1951
g3
ag539
ag4
ag5
ag153
ag3
aa(lp1952
g941
ag4
ag1312
ag5
ag5
ag37
aa(lp1953
g3
a(S'tres'
I138
tp1954
ag77
ag137
ag204
ag18
aa(lp1955
g26
ag327
ag374
ag65
ag66
ag97
aa(lp1956
g39
ag617
ag4
ag5
ag153
ag3
aa(lp1957
g231
ag4
ag4
ag5
ag5
ag4
aa(lp1958
g44
ag48
ag29
ag161
ag75
ag37
aa(lp1959
g334
ag4
ag4
ag132
ag5
a(Vvictori
I16
tp1960
aa(lp1961
g3
ag4
ag1823
ag5
ag23
ag41
aa(lp1962
g20
ag4
ag26
ag5
ag5
ag4
aa(lp1963
g54
ag143
ag86
ag203
ag663
ag75
aa(lp1964
g173
ag3
ag5
ag5
ag202
ag3
aa(lp1965
g4
ag4
ag4
ag22
ag122
ag4
aa(lp1966
g1198
ag4
ag371
ag5
ag5
ag347
aa(lp1967
g20
ag4
ag4
ag5
ag314
ag4
aa(lp1968
g206
ag272
ag107
ag672
ag5
ag51
aa(lp1969
g41
a(Vseri
I43
tp1970
ag183
ag50
ag238
ag37
aa(lp1971
g173
ag4
ag4
ag23
ag18
ag3
aa(lp1972
g173
ag3
ag4
ag5
ag37
ag3
aa(lp1973
g593
ag14
ag4
ag137
ag5
ag51
aa(lp1974
g361
ag4
ag23
ag5
ag5
a(S'vas'
I24
tp1975
aa(lp1976
g3
ag86
ag5
ag5
ag5
ag3
aa(lp1977
g4
ag221
ag492
ag1381
ag5
ag3
aa(lp1978
g313
ag4
ag49
ag145
ag5
ag51
aa(lp1979
g3
ag18
ag5
ag5
ag39
ag41
aa(lp1980
g504
ag272
ag107
ag5
ag18
ag4
aa(lp1981
g151
ag4
ag4
ag264
ag13
ag37
aa(lp1982
g4
ag617
ag37
ag99
ag100
ag37
aa(lp1983
g4
ag39
ag5
ag5
ag5
ag18
aa(lp1984
g54
ag181
ag182
ag10
ag11
ag298
aa(lp1985
g41
ag4
ag160
ag273
ag5
ag133
aa(lp1986
g41
ag102
ag18
ag672
ag5
ag107
aa(lp1987
g233
ag201
ag998
ag10
ag5
ag51
aa(lp1988
g18
ag4
ag37
ag132
ag39
ag4
aa(lp1989
g3
ag4
ag4
ag25
ag5
ag3
aa(lp1990
g3
ag4
ag4
ag201
ag5
ag310
aa(lp1991
g26
ag4
ag23
ag5
ag361
ag75
aa(lp1992
g158
ag330
ag374
ag391
ag122
ag3
aa(lp1993
g3
ag4
ag5
ag5
ag75
ag4
aa(lp1994
g560
ag561
ag86
ag5
ag60
ag4
aa(lp1995
g3
ag4
ag202
ag5
ag75
ag310
aa(lp1996
g1679
ag151
ag996
ag216
ag388
ag45
aa(lp1997
g4
ag4
ag4
ag132
ag5
ag3
aa(lp1998
g202
ag48
ag234
ag273
ag198
ag4
aa(lp1999
g3
ag566
ag4
ag5
ag18
ag1048
aa(lp2000
g165
ag127
ag1102
ag1010
ag515
ag51
aa(lp2001
g149
ag4
ag23
ag22
ag5
ag3
aa(lp2002
g653
ag436
ag5
ag34
ag18
ag37
aa(lp2003
g3
ag670
ag844
ag5
ag18
ag26
aa(lp2004
g4
ag18
ag4
ag37
ag5
ag4
aa(lp2005
g4
ag39
ag4
ag5
ag39
ag3
aa(lp2006
g178
ag54
ag29
ag454
ag5
ag37
aa(lp2007
g4
ag18
ag124
ag79
ag222
ag161
aa(lp2008
g41
ag39
ag4
ag5
ag39
a(S'criatur'
I22
tp2009
aa(lp2010
g4
ag4
ag4
ag5
ag215
ag356
aa(lp2011
g3
ag670
ag606
ag190
ag11
ag4
aa(lp2012
g54
ag4
ag4
ag5
ag54
ag3
aa(lp2013
g215
ag4
ag374
ag5
ag5
ag4
aa(lp2014
g4
ag221
ag29
ag5
ag515
ag3
aa(lp2015
g18
ag4
ag4
ag5
ag23
ag4
aa(lp2016
g173
ag4
ag4
ag161
ag21
ag3
aa(lp2017
g4
ag4
a(Vlumin
I18
tp2018
ag5
ag5
ag4
aa(lp2019
g95
ag4
ag55
ag273
ag18
ag37
aa(lp2020
g717
ag108
ag202
ag137
ag5
ag298
aa(lp2021
g4
ag221
ag287
ag264
ag204
ag18
aa(lp2022
g3
ag1381
ag4
ag5
ag18
ag25
aa(lp2023
g665
ag277
ag219
ag403
ag18
ag37
aa(lp2024
g39
ag290
ag9
ag40
ag39
ag26
aa(lp2025
g54
ag181
ag5
ag93
ag229
ag51
aa(lp2026
g37
ag159
ag4
ag79
ag198
ag4
aa(lp2027
g41
ag4
ag160
ag161
ag322
ag18
aa(lp2028
g3
ag54
ag5
ag5
ag5
ag3
aa(lp2029
g3
ag39
ag48
ag5
ag39
ag27
aa(lp2030
g233
ag124
ag4
ag103
ag803
a(S'provoc'
I18
tp2031
aa(lp2032
g41
ag3
ag65
ag5
ag5
ag923
aa(lp2033
g41
ag684
ag219
ag403
ag41
ag61
aa(lp2034
g653
ag390
ag624
ag5
ag5
ag18
aa(lp2035
g4
ag4
a(S'pedi'
I12
tp2036
ag5
ag5
ag3
aa(lp2037
g173
ag4
ag5
ag39
ag54
ag3
aa(lp2038
g386
ag387
ag4
ag403
ag41
ag560
aa(lp2039
g342
ag102
ag119
ag161
ag75
ag18
aa(lp2040
g3
ag4
ag996
ag5
ag5
ag3
aa(lp2041
g149
ag3
ag5
ag5
ag54
ag3
aa(lp2042
g231
ag4
ag5
ag5
ag54
ag4
aa(lp2043
g6
ag4
ag4
ag5
ag161
ag3
aa(lp2044
g79
ag4
ag418
ag5
ag5
ag3
aa(lp2045
g483
ag539
ag4
ag216
ag269
ag75
aa(lp2046
g26
ag4
ag21
ag39
ag5
ag75
aa(lp2047
g26
ag327
ag374
ag103
ag5
ag814
aa(lp2048
g18
ag4
ag18
ag268
ag757
ag758
aa(lp2049
g3
ag4
ag4
ag5
ag21
ag27
aa(lp2050
g39
ag151
ag996
ag5
ag15
ag3
aa(lp2051
g3
ag39
ag9
ag10
ag202
ag1374
aa(lp2052
g282
ag962
ag624
ag9
ag5
ag231
aa(lp2053
g3
ag49
ag4
ag5
ag250
ag3
aa(lp2054
g158
ag159
ag4
ag216
ag54
ag3
aa(lp2055
g13
ag124
ag59
a(S'libert'
I13
tp2056
ag204
ag56
aa(lp2057
g3
ag92
ag5
ag93
ag39
ag331
aa(lp2058
g3
ag4
ag599
ag37
ag5
ag4
aa(lp2059
g41
ag617
ag21
ag161
ag5
ag51
aa(lp2060
g20
ag4
ag44
ag5
ag458
ag4
aa(lp2061
g476
ag82
ag736
ag328
ag631
ag1016
aa(lp2062
g4
ag4
ag4
ag5
ag305
ag4
aa(lp2063
g44
ag3
ag4
ag5
ag5
ag45
aa(lp2064
g3
ag4
ag4
ag5
ag23
ag4
aa(lp2065
g953
ag151
ag473
ag5
ag11
ag4
aa(lp2066
g560
ag49
ag4
ag103
ag18
ag37
aa(lp2067
g4
ag39
ag4
ag5
ag5
ag3
aa(lp2068
g39
ag45
ag5
ag225
ag145
ag231
aa(lp2069
g79
ag4
ag160
ag161
ag20
ag133
aa(lp2070
g3
ag39
ag5
ag5
ag5
ag26
aa(lp2071
g376
ag256
ag4
ag216
ag5
ag35
aa(lp2072
g122
ag864
ag4
ag5
ag5
ag51
aa(lp2073
g593
ag18
ag124
ag209
ag18
ag37
aa(lp2074
g26
ag327
a(S'capaz'
I39
tp2075
ag183
ag184
ag56
aa(lp2076
(Velfos
I10
tp2077
ag33
ag4
ag5
ag515
ag3
aa(lp2078
g3
ag4
ag5
ag5
ag5
ag3
aa(lp2079
g23
ag215
ag418
ag504
ag515
ag3
aa(lp2080
g18
ag18
ag4
ag5
ag335
ag3
aa(lp2081
g41
ag387
ag996
ag39
ag11
ag262
aa(lp2082
g39
ag290
ag473
ag454
ag5
ag97
aa(lp2083
g54
ag4
ag18
ag5
ag5
ag4
aa(lp2084
g44
ag39
ag5
ag5
ag667
ag45
aa(lp2085
g44
ag48
ag29
ag5
ag75
ag107
aa(lp2086
g476
ag21
ag26
ag39
ag322
ag37
aa(lp2087
g4
ag221
ag418
ag5
ag5
ag51
aa(lp2088
g44
ag4
ag9
ag5
ag26
ag45
aa(lp2089
g44
ag37
ag571
ag962
ag18
ag18
aa(lp2090
g3
ag4
ag26
ag5
ag18
ag310
aa(lp2091
g4
ag639
ag998
ag216
ag388
ag45
aa(lp2092
g122
ag259
ag26
ag39
ag5
ag51
aa(lp2093
g4
ag4
ag4
ag5
ag90
ag4
aa(lp2094
g32
ag190
ag23
ag264
ag204
ag18
aa(lp2095
g4
ag39
ag5
ag5
ag86
ag3
aa(lp2096
g3
ag4
ag4
ag5
ag5
ag834
aa(lp2097
g560
ag775
ag18
ag672
ag18
ag37
aa(lp2098
g41
ag97
ag4
ag5
ag15
ag16
aa(lp2099
g697
ag221
ag418
ag5
ag204
ag3
aa(lp2100
g41
ag4
ag4
ag5
ag13
ag3
aa(lp2101
g151
ag4
ag135
ag5
ag1442
ag18
aa(lp2102
g4
ag159
ag4
ag216
ag54
ag107
aa(lp2103
g4
ag4
a(S'zapat'
I37
tp2104
ag5
ag5
ag4
aa(lp2105
g3
ag4
ag4
ag39
ag18
ag41
aa(lp2106
g81
ag92
ag5
ag268
ag229
ag26
aa(lp2107
g3
ag4
ag4
ag5
ag322
ag4
aa(lp2108
g149
ag290
ag4
ag39
ag5
ag3
aa(lp2109
g4
ag4
ag4
ag65
ag5
ag3
aa(lp2110
g244
ag4
ag374
ag5
ag18
ag37
aa(lp2111
g39
ag290
ag998
ag302
ag204
ag4
aa(lp2112
g4
ag3
ag5
ag5
ag18
ag356
aa(lp2113
g4
ag18
ag119
ag5
ag84
ag20
aa(lp2114
g54
ag181
ag182
ag10
ag305
ag560
aa(lp2115
(Vempiez
I9
tp2116
ag37
ag107
ag5
ag41
ag42
aa(lp2117
g44
ag4
ag120
ag132
ag26
ag45
aa(lp2118
g4
ag14
ag4
ag297
ag29
ag26
aa(lp2119
g271
ag272
ag107
ag124
ag1661
ag23
aa(lp2120
g90
a(S'grab'
I10
tp2121
a(S'alondr'
I14
tp2122
ag5
ag5
ag51
aa(lp2123
g3
ag18
ag4
ag5
a(S'voz'
I68
tp2124
ag4
aa(lp2125
g4
ag4
ag5
ag6
ag5
ag72
aa(lp2126
g4
ag3
ag44
ag5
ag479
ag356
aa(lp2127
g4
ag4
ag1597
ag5
ag5
ag29
aa(lp2128
g4
ag277
ag275
ag5
ag41
ag3
aa(lp2129
g54
ag4
ag5
ag268
ag66
ag51
aa(lp2130
g4
ag4
ag4
ag5
ag161
ag3
aa(lp2131
g41
ag4
ag4
ag5
ag23
ag4
aa(lp2132
g84
ag387
ag4
ag216
ag11
ag222
aa(lp2133
g120
ag3
ag4
ag5
ag26
ag924
aa(lp2134
g1246
ag4
ag160
ag161
ag75
ag61
aa(lp2135
g3
ag118
ag4
ag5
ag153
ag3
aa(lp2136
g1774
ag1565
ag4
ag5
ag204
ag18
aa(lp2137
g23
ag4
ag18
ag203
ag291
ag4
aa(lp2138
g41
ag97
ag331
ag10
ag11
ag37
aa(lp2139
g41
ag14
ag4
ag203
ag663
ag75
aa(lp2140
g39
ag215
ag4
ag103
ag803
ag18
aa(lp2141
g4
ag4
ag5
ag22
ag5
ag3
aa(lp2142
g4
ag4
ag48
ag132
ag5
ag356
aa(lp2143
g41
ag97
ag18
ag209
ag18
ag37
aa(lp2144
g44
ag37
ag44
ag351
ag104
ag26
aa(lp2145
g4
ag4
a(S'cop'
I92
tp2146
ag5
ag5
ag356
aa(lp2147
g3
ag4
ag272
ag65
ag5
ag4
aa(lp2148
g4
ag4
ag160
ag203
ag54
ag179
aa(lp2149
g26
ag4
ag335
ag5
ag18
ag75
aa(lp2150
g23
ag215
ag642
ag137
ag5
ag45
aa(lp2151
g39
ag215
ag37
ag347
ag5
ag4
aa(lp2152
g44
ag48
ag23
ag5
ag5
ag51
aa(lp2153
g3
ag48
ag5
ag5
ag5
ag25
aa(lp2154
g4
ag4
ag5
ag5
ag18
ag4
aa(lp2155
g178
ag151
ag29
ag5
ag60
ag871
aa(lp2156
g44
ag277
ag418
ag504
ag515
ag3
aa(lp2157
g244
ag4
ag18
ag403
ag41
ag3
aa(lp2158
g4
ag4
ag4
a(Vadem
I129
tp2159
ag557
ag356
aa(lp2160
g4
ag92
ag5
ag9
ag29
ag26
aa(lp2161
g4
ag221
ag4
ag5
ag153
ag3
aa(lp2162
g4
ag4
ag4
ag5
ag1661
ag4
aa(lp2163
g149
ag4
ag22
ag5
ag54
ag3
aa(lp2164
g37
ag159
ag4
ag391
ag291
ag4
aa(lp2165
g109
ag3
ag48
ag5
ag26
ag808
aa(lp2166
g3
ag4
ag4
ag5
ag161
ag3
aa(lp2167
g4
ag4
ag37
ag5
ag5
ag72
aa(lp2168
g84
ag25
ag23
ag5
ag60
ag61
aa(lp2169
g231
ag39
ag55
ag5
ag60
ag871
aa(lp2170
g151
ag4
ag4
ag103
ag18
ag1546
aa(lp2171
g188
ag221
ag5
ag152
ag13
ag1384
aa(lp2172
g342
ag92
ag5
ag297
ag60
ag61
aa(lp2173
g79
ag4
ag29
ag5
ag15
ag51
aa(lp2174
g3
ag267
ag77
ag137
ag204
ag18
aa(lp2175
g560
ag49
ag160
ag5
ag84
ag37
aa(lp2176
g44
ag48
ag993
ag398
ag18
ag37
aa(lp2177
g41
ag566
ag4
ag5
ag202
ag37
aa(lp2178
g178
ag54
ag37
ag264
ag11
ag4
aa(lp2179
g149
ag3
ag4
ag6
ag26
ag3
aa(lp2180
g173
ag4
ag5
ag5
ag5
ag3
aa(lp2181
g4
ag82
ag83
ag225
ag104
ag4
aa(lp2182
g4
ag4
ag4
ag5
ag23
ag72
aa(lp2183
g158
ag159
ag4
ag152
ag5
ag51
aa(lp2184
g32
ag33
ag4
ag288
ag215
ag4
aa(lp2185
g4
ag4
ag277
ag39
ag5
ag3
aa(lp2186
g4
ag4
ag5
ag403
ag54
ag356
aa(lp2187
g4
ag1226
ag5
ag132
ag23
ag4
aa(lp2188
g6
ag4
ag65
ag5
ag202
a(S'men'
I93
tp2189
aa(lp2190
g44
ag92
ag5
ag5
ag60
ag4
aa(lp2191
g95
ag4
ag4
ag5
ag145
ag61
aa(lp2192
g118
ag4
ag4
ag5
ag54
ag120
aa(lp2193
g3
ag4
ag5
ag25
ag13
ag3
aa(lp2194
g3
ag4
a(S'much'
I106
tp2195
ag5
ag5
ag4
aa(lp2196
g79
ag23
ag29
ag5
ag60
ag4
aa(lp2197
g4
ag9
ag5
ag5
ag39
ag4
aa(lp2198
g54
ag92
ag29
ag1381
ag846
ag41
aa(lp2199
g3
ag48
ag5
ag5
ag398
ag310
aa(lp2200
g20
ag3
ag4
ag5
ag26
ag4
aa(lp2201
g32
ag54
ag44
ag351
ag803
ag4
aa(lp2202
g4
ag4
ag4
ag5
ag204
ag3
aa(lp2203
g4
ag670
ag5
ag9
ag225
ag454
aa(lp2204
g4
ag3
ag4
ag5
ag1144
ag72
aa(lp2205
g440
ag25
ag4
ag39
ag5
ag23
aa(lp2206
g3
ag361
ag4
ag5
ag39
ag256
aa(lp2207
g44
ag4
ag120
ag5
ag5
ag45
aa(lp2208
g3
ag4
ag4
ag5
ag5
ag41
aa(lp2209
g4
ag4
ag37
ag132
ag39
ag3
aa(lp2210
g39
ag290
ag478
ag22
ag479
ag56
aa(lp2211
g4
ag18
ag5
ag5
ag13
ag3
aa(lp2212
g4
ag18
ag4
ag5
ag86
ag356
aa(lp2213
g4
ag221
ag234
ag273
ag54
ag222
aa(lp2214
g192
ag193
ag124
ag209
ag41
ag3
aa(lp2215
g54
ag822
ag4
ag5
ag11
ag4
aa(lp2216
g3
ag4
ag4
ag37
ag5
ag4
aa(lp2217
g39
ag290
ag645
ag792
ag18
ag37
aa(lp2218
g4
ag48
ag4
ag23
ag5
ag356
aa(lp2219
g149
ag3
ag202
ag5
ag5
ag3
aa(lp2220
g697
ag3
ag37
ag5
ag75
ag222
aa(lp2221
g151
ag4
ag160
ag578
a(S'direct'
I28
tp2222
ag3
aa(lp2223
g3
ag3
ag4
ag5
ag5
ag27
aa(lp2224
g26
ag3
ag5
ag5
ag5
ag75
aa(lp2225
g504
ag450
ag219
ag5
ag5
ag518
aa(lp2226
(Vreliev
I9
tp2227
ag207
ag29
ag5
ag18
ag18
aa(lp2228
g37
ag390
ag32
ag22
ag5
ag51
aa(lp2229
g4
ag175
ag119
ag8
ag15
ag56
aa(lp2230
g4
ag4
ag4
ag5
ag361
ag356
aa(lp2231
g4
ag18
ag645
ag190
ag11
ag4
aa(lp2232
g4
ag4
ag160
ag203
ag291
ag3
aa(lp2233
g3
ag4
ag37
ag5
ag5
ag27
aa(lp2234
g342
ag102
ag1446
ag792
ag18
ag3
aa(lp2235
g118
ag259
ag202
ag5
ag5
ag120
aa(lp2236
g4
ag277
ag5
ag5
ag32
ag3
aa(lp2237
g20
ag4
ag21
ag109
a(S'famili'
I89
tp2238
ag4
aa(lp2239
g386
ag387
ag4
ag5
ag412
ag176
aa(lp2240
g6
ag97
ag4
ag1722
ag465
ag26
aa(lp2241
g54
ag310
ag23
ag264
ag202
ag45
aa(lp2242
g481
ag23
ag234
ag137
ag5
ag51
aa(lp2243
g20
ag4
ag22
ag5
ag45
ag4
aa(lp2244
g39
ag290
ag9
ag10
ag5
ag51
aa(lp2245
g259
ag4
ag4
ag5
ag5
ag3
aa(lp2246
g4
ag221
ag5
ag454
ag5
ag231
aa(lp2247
g4
ag4
ag4
ag5
ag161
ag26
aa(lp2248
g4
ag917
ag4
ag5
ag5
ag3
aa(lp2249
g481
ag259
ag5
ag161
ag66
ag97
aa(lp2250
g32
ag267
ag473
ag474
ag18
ag37
aa(lp2251
g3
ag48
ag5
ag5
ag5
ag37
aa(lp2252
g178
ag54
ag29
ag65
ag66
ag97
aa(lp2253
g109
ag4
ag4
ag132
ag18
ag808
aa(lp2254
g4
ag4
ag4
ag132
ag39
ag356
aa(lp2255
g149
ag4
ag5
ag5
ag21
ag3
aa(lp2256
g4
ag4
ag4
ag5
ag5
ag107
aa(lp2257
g4
ag4
ag5
ag39
ag5
ag3
aa(lp2258
g23
ag215
ag642
ag403
ag41
ag3
aa(lp2259
g4
ag3
ag4
ag6
ag26
ag356
aa(lp2260
g259
ag4
ag18
ag5
ag5
ag4
aa(lp2261
g44
ag33
ag18
ag454
ag5
ag41
aa(lp2262
g4
ag4
ag4
ag5
ag122
ag3
aa(lp2263
g173
ag4
ag120
ag5
ag5
ag3
aa(lp2264
g1108
ag37
ag4
ag5
ag5
ag6
aa(lp2265
g4
ag39
ag4
ag93
ag5
ag4
aa(lp2266
g4
ag45
ag4
ag5
ag5
ag3
aa(lp2267
g4
ag18
ag124
ag152
ag18
ag3
aa(lp2268
g26
ag327
ag2075
ag183
ag184
ag97
aa(lp2269
g4
ag54
ag4
ag5
ag250
ag41
aa(lp2270
g118
ag48
ag5
ag5
ag5
ag120
aa(lp2271
g4
ag4
ag26
ag6
ag39
ag356
aa(lp2272
g4
ag82
ag202
ag90
ag84
ag871
aa(lp2273
g4
ag86
ag4
ag5
ag5
ag26
aa(lp2274
g13
ag277
ag107
ag5
ag663
ag75
aa(lp2275
g54
ag4
ag5
ag5
ag54
ag4
aa(lp2276
g44
ag48
ag29
a(Vuef
I21
tp2277
a(Vrequer
I15
tp2278
ag298
aa(lp2279
g32
ag390
ag32
ag5
ag122
ag3
aa(lp2280
g41
ag14
ag18
ag10
ag11
ag4
aa(lp2281
g26
ag3
ag21
ag22
ag5
ag75
aa(lp2282
g149
ag3
ag250
ag5
ag5
ag3
aa(lp2283
g3
ag4
ag4
ag5
ag54
ag27
aa(lp2284
g3
ag8
ag624
ag578
ag2222
ag478
aa(lp2285
g44
ag4
ag5
ag5
ag90
ag3
aa(lp2286
g4
ag97
ag29
ag5
ag1192
ag260
aa(lp2287
g244
ag59
ag77
ag137
ag18
ag37
aa(lp2288
g4
ag4
ag4
ag5
a(S'biom'
I19
tp2289
ag4
aa(lp2290
g342
ag4
ag5
ag44
ag5
ag532
aa(lp2291
g54
ag330
ag374
ag496
ag18
ag37
aa(lp2292
g358
ag39
ag753
ag264
ag204
ag18
aa(lp2293
g44
ag4
ag4
ag5
ag86
ag45
aa(lp2294
g39
ag290
ag9
ag37
a(S'cantor'
I9
tp2295
ag18
aa(lp2296
g3
ag4
ag4
ag5
ag13
ag4
aa(lp2297
g3
ag1889
ag4
ag5
ag18
ag97
aa(lp2298
g4
ag82
ag77
ag137
ag596
ag3
aa(lp2299
g149
ag4
ag248
ag132
ag5
ag3
aa(lp2300
g26
ag4
ag4
ag90
ag222
ag75
aa(lp2301
g41
ag3
ag5
ag5
ag23
ag1271
aa(lp2302
g4
ag221
ag4
ag5
ag74
ag75
aa(lp2303
g194
ag118
ag115
ag99
ag100
ag37
aa(lp2304
g4
ag259
ag4
ag5
ag39
ag356
aa(lp2305
g151
ag330
ag374
ag5
ag153
ag3
aa(lp2306
g3
ag39
ag4
ag6
ag5
ag27
aa(lp2307
g483
ag14
ag4
ag137
ag5
ag51
aa(lp2308
g41
ag290
ag23
ag264
ag204
ag45
aa(lp2309
g3
ag3
ag115
ag99
ag100
ag18
aa(lp2310
g41
ag97
ag160
ag578
ag5
ag4
aa(lp2311
g26
ag33
ag44
ag65
ag66
ag37
aa(lp2312
g173
ag39
ag22
ag23
ag361
ag3
aa(lp2313
g941
ag4
ag4
ag5
ag54
ag37
aa(lp2314
g358
ag39
ag55
ag216
ag1192
ag260
aa(lp2315
g54
ag822
ag4
ag203
ag204
ag18
aa(lp2316
g342
ag4
ag18
ag203
ag663
ag18
aa(lp2317
g386
ag387
ag4
ag129
ag32
ag37
aa(lp2318
g3
ag18
ag5
ag39
ag5
ag3
aa(lp2319
(S'determin'
I39
tp2320
ag186
ag26
ag5
ag204
ag18
aa(lp2321
g13
ag3
ag374
ag5
ag145
ag56
aa(lp2322
g41
ag221
ag4
ag5
ag11
ag75
aa(lp2323
g41
ag4
ag18
ag203
ag663
ag75
aa(lp2324
g4
ag49
ag478
ag22
ag13
ag1384
aa(lp2325
g3
ag4
ag5
ag5
ag834
ag3
aa(lp2326
g3
ag4
ag2195
ag5
ag54
ag4
aa(lp2327
g593
ag4
ag18
ag203
ag84
ag298
aa(lp2328
g3
ag86
ag4
ag5
ag122
ag4
aa(lp2329
g233
ag3
ag22
ag22
ag5
ag548
aa(lp2330
g151
ag644
ag645
ag25
ag846
ag41
aa(lp2331
g680
ag4
ag86
ag132
ag60
ag3
aa(lp2332
g4
ag4
ag4
ag132
ag161
ag72
aa(lp2333
g23
ag215
ag21
ag161
ag75
ag1016
aa(lp2334
g4
ag4
ag4
ag5
ag873
ag356
aa(lp2335
g39
ag4
ag4
ag25
ag5
ag3
aa(lp2336
g4
ag221
ag29
ag5
ag60
ag21
aa(lp2337
g149
ag3
ag86
ag5
ag5
ag3
aa(lp2338
g3
ag3
ag202
ag901
ag515
ag37
aa(lp2339
g358
ag39
ag478
ag22
ag54
ag56
aa(lp2340
g118
ag48
ag5
ag44
ag5
ag120
aa(lp2341
g18
ag4
ag4
ag5
ag23
ag3
aa(lp2342
g4
ag4
ag5
ag5
ag32
ag4
aa(lp2343
g54
ag4
ag4
ag132
ag5
ag4
aa(lp2344
g41
a(Vjudi
I12
tp2345
ag44
ag5
ag153
ag18
aa(lp2346
g3
ag88
ag5
ag5
ag161
ag3
aa(lp2347
g593
ag3
ag115
ag2277
ag2278
ag298
aa(lp2348
g4
ag48
ag4
ag5
ag153
ag3
aa(lp2349
g313
ag330
ag374
ag5
ag18
ag758
aa(lp2350
g4
ag221
ag160
ag578
ag122
ag3
aa(lp2351
g376
ag92
ag4
ag203
ag663
ag75
aa(lp2352
g18
ag4
ag4
ag5
ag5
ag3
aa(lp2353
g3
ag4
ag4
ag132
ag5
ag18
aa(lp2354
g178
ag54
ag44
ag5
ag84
ag37
aa(lp2355
g149
ag161
ag4
ag5
ag5
ag3
aa(lp2356
g4
ag361
ag5
ag5
ag5
ag4
aa(lp2357
g4
ag1565
ag81
ag25
ag846
ag41
aa(lp2358
g3
ag277
ag275
ag37
ag74
ag54
aa(lp2359
g149
ag4
ag120
ag132
ag23
ag3
aa(lp2360
g200
ag267
ag37
ag347
ag39
ag37
aa(lp2361
g173
ag4
ag4
ag5
ag557
ag3
aa(lp2362
g151
ag290
ag9
ag77
ag54
ag26
aa(lp2363
g26
ag3
ag107
ag39
ag5
ag75
aa(lp2364
g13
ag4
ag160
ag5
ag84
ag573
aa(lp2365
g26
ag4
ag4
ag132
ag222
ag75
aa(lp2366
g4
ag4
ag23
ag5
ag5
ag72
aa(lp2367
g41
ag3
ag18
ag454
ag204
ag18
aa(lp2368
g3
ag54
ag5
ag25
ag5
ag3
aa(lp2369
g194
ag155
ag599
ag5
ag84
ag298
aa(lp2370
g151
ag49
ag478
ag22
ag54
ag3
aa(lp2371
(S'estamp'
I13
tp2372
ag4
ag23
ag5
ag86
ag54
aa(lp2373
g3
ag4
ag272
ag25
ag5
ag3
aa(lp2374
g476
ag215
ag81
ag25
ag18
ag37
aa(lp2375
g1536
ag290
ag9
ag10
ag5
ag18
aa(lp2376
g3
ag4
ag347
ag5
ag5
ag4
aa(lp2377
g3
ag3
ag22
ag5
ag5
ag310
aa(lp2378
g4
ag670
ag4
ag5
ag54
ag3
aa(lp2379
g4
ag45
ag5
ag225
ag145
ag231
aa(lp2380
g3
ag4
ag120
ag5
ag721
ag4
aa(lp2381
g1062
ag4
ag5
ag23
ag5
ag41
aa(lp2382
g188
ag21
ag189
ag225
ag145
ag231
aa(lp2383
g118
ag4
ag250
ag5
ag5
ag120
aa(lp2384
g20
ag4
ag4
ag25
ag39
ag4
aa(lp2385
g3
ag4
ag202
ag5
ag5
ag310
aa(lp2386
g54
ag290
ag29
ag5
ag731
ag18
aa(lp2387
g54
ag54
ag4
ag5
ag5
ag4
aa(lp2388
g151
ag4
ag996
ag39
ag5
ag51
aa(lp2389
g3
ag86
ag4
ag5
ag5
ag23
aa(lp2390
g4
ag59
ag518
ag5
ag13
ag4
aa(lp2391
g4
ag92
ag5
ag5
ag5
ag4
aa(lp2392
g26
ag327
ag202
ag8
ag213
ag37
aa(lp2393
g39
ag290
ag5
ag225
ag2222
ag75
aa(lp2394
g3
ag4
ag272
ag5
ag161
ag3
aa(lp2395
g481
ag4
ag160
ag5
ag84
ag179
aa(lp2396
g3
ag23
ag119
ag161
ag5
ag51
aa(lp2397
g44
ag4
ag86
ag5
ag5
ag45
aa(lp2398
(S'plom'
I43
tp2399
ag796
ag120
ag924
ag75
ag41
aa(lp2400
g3
ag4
ag5
ag5
ag5
ag18
aa(lp2401
g122
ag864
ag4
ag5
ag398
ag262
aa(lp2402
g4
ag82
ag736
ag161
ag663
ag75
aa(lp2403
g44
ag92
ag5
ag5
ag1053
a(S'local'
I27
tp2404
aa(lp2405
g151
ag64
ag29
ag5
ag18
ag3
aa(lp2406
g44
ag48
ag5
ag10
ag18
ag37
aa(lp2407
g890
ag33
ag44
ag384
ag215
ag37
aa(lp2408
g41
ag48
ag234
ag273
ag54
ag454
aa(lp2409
g4
ag1889
ag4
ag5
ag41
ag410
aa(lp2410
g4
ag175
ag119
ag161
ag41
ag21
aa(lp2411
g819
ag86
ag4
ag5
ag26
ag26
aa(lp2412
g4
ag221
ag119
ag8
ag1442
ag4
aa(lp2413
g680
ag4
ag18
ag1621
ag204
ag18
aa(lp2414
g3
ag86
ag4
ag5
ag388
ag4
aa(lp2415
g481
ag23
ag119
ag39
ag5
ag298
aa(lp2416
(S'simmons'
I14
tp2417
ag398
ag599
ag384
ag2278
ag4
aa(lp2418
g95
ag4
ag119
ag161
ag60
ag61
aa(lp2419
g3
ag4
ag5
ag5
ag90
ag18
aa(lp2420
g3
ag59
ag29
ag5
ag104
ag21
aa(lp2421
g41
a(S'numer'
I139
tp2422
ag124
ag391
ag204
ag18
aa(lp2423
g54
ag54
ag234
ag77
ag210
ag4
aa(lp2424
g81
ag92
ag37
ag347
ag1129
ag23
aa(lp2425
g4
ag39
ag18
ag5
ag18
ag3
aa(lp2426
g41
ag92
ag5
ag216
ag515
ag3
aa(lp2427
g819
ag4
ag4
ag5
ag39
ag26
aa(lp2428
g504
ag4
ag5
ag39
ag5
a(S'eric'
I18
tp2429
aa(lp2430
g3
ag4
ag4
ag39
ag5
ag3
aa(lp2431
g44
ag48
ag29
ag5
ag515
ag3
aa(lp2432
g3
ag18
ag5
ag5
ag93
ag4
aa(lp2433
g4
ag4
ag4
ag5
ag202
ag356
aa(lp2434
g41
ag97
a(S'destin'
I24
tp2435
ag216
ag60
ag3
aa(lp2436
g4
ag4
ag5
ag5
ag39
ag77
aa(lp2437
g1062
ag4
ag4
ag5
ag39
ag41
aa(lp2438
g4
ag82
ag736
ag93
ag54
ag179
aa(lp2439
g23
ag4
ag4
ag5
ag334
a(Vmayori
I39
tp2440
aa(lp2441
g4
ag4
ag37
ag132
ag244
ag3
aa(lp2442
g4
ag39
ag4
ag39
ag32
ag3
aa(lp2443
g32
ag167
ag168
ag9
ag122
ag1059
aa(lp2444
g680
ag681
ag374
ag474
ag202
ag3
aa(lp2445
g149
ag4
ag4
ag5
ag45
ag3
aa(lp2446
g3
ag603
ag331
ag10
ag11
ag4
aa(lp2447
g3
ag4
ag4
ag5
ag5
ag3
aa(lp2448
g4
ag37
ag4
ag161
ag5
ag4
aa(lp2449
g188
ag167
ag168
ag37
ag41
ag37
aa(lp2450
g173
ag4
ag202
ag37
ag458
ag3
aa(lp2451
g358
ag39
ag29
ag5
ag18
ag127
aa(lp2452
g23
ag290
ag518
ag391
ag122
ag4
aa(lp2453
g20
ag66
ag5
ag5
ag44
ag4
aa(lp2454
g18
ag118
ag1228
ag273
ag222
ag2031
aa(lp2455
g79
ag4
ag18
ag203
ag663
ag21
aa(lp2456
g4
ag4
ag160
ag273
ag54
ag3
aa(lp2457
g4
ag54
ag5
ag5
ag161
ag3
aa(lp2458
g4
ag4
ag1597
ag5
ag5
ag4
aa(lp2459
g560
ag49
ag160
ag1679
ag222
ag161
aa(lp2460
g13
ag267
ag4
ag103
ag803
ag4
aa(lp2461
g41
ag97
ag996
ag39
ag5
ag222
aa(lp2462
g2320
ag186
ag26
ag268
ag256
ag133
aa(lp2463
g75
a(S'ire'
I10
tp2464
ag26
ag65
ag5
ag4
aa(lp2465
g953
ag151
ag4
ag273
ag54
ag1312
aa(lp2466
g54
ag436
ag86
ag225
ag122
ag3
aa(lp2467
g26
ag259
ag4
ag132
ag5
ag75
aa(lp2468
g4
ag256
ag5
ag39
ag5
ag4
aa(lp2469
g149
ag37
ag65
ag5
ag557
ag3
aa(lp2470
g4
ag37
ag5
ag5
ag5
ag3
aa(lp2471
g4
ag4
ag124
ag79
ag1053
ag26
aa(lp2472
g4
ag4
ag18
ag5
ag39
ag4
aa(lp2473
g4
ag48
ag5
ag132
ag13
ag3
aa(lp2474
g20
ag3
ag4
ag5
ag917
ag4
aa(lp2475
g3
ag18
ag5
ag5
ag5
ag3
aa(lp2476
g4
ag18
ag4
ag6
ag60
ag356
aa(lp2477
g151
ag39
ag55
ag5
ag18
ag37
aa(lp2478
g4
ag18
ag4
ag5
ag26
ag356
aa(lp2479
g23
ag215
ag37
ag347
ag202
ag4
aa(lp2480
g20
ag4
ag4
ag6
ag5
ag4
aa(lp2481
g4
ag221
ag18
ag10
ag11
ag26
aa(lp2482
g233
ag167
ag23
ag264
ag291
ag3
aa(lp2483
g151
ag21
ag182
ag10
ag398
ag6
aa(lp2484
g3
ag48
ag5
ag132
ag398
ag4
aa(lp2485
g4
ag4
ag4
ag23
ag5
ag356
aa(lp2486
g54
ag39
ag37
ag5
ag18
ag3
aa(lp2487
g107
ag4
ag202
ag132
ag26
ag110
aa(lp2488
g41
ag4
ag4
ag5
ag5
ag4
aa(lp2489
g334
ag86
ag4
ag5
ag5
ag3
aa(lp2490
g4
ag4
ag5
ag6
ag244
ag25
aa(lp2491
g3
ag4
ag4
ag5
ag32
ag4
aa(lp2492
g3
ag290
ag478
ag22
ag479
ag3
aa(lp2493
g41
ag82
ag4
ag161
ag75
ag37
aa(lp2494
g165
ag1855
ag219
ag161
ag66
ag231
aa(lp2495
g3
ag86
ag4
ag5
ag5
ag3
aa(lp2496
g26
ag4
ag4
ag5
ag54
ag75
aa(lp2497
g3
ag8
ag4
ag5
ag5
ag51
aa(lp2498
g44
ag48
ag234
ag5
ag18
ag37
aa(lp2499
g39
ag4
ag5
ag5
ag161
ag3
aa(lp2500
g3
ag32
ag5
ag5
ag26
ag310
aa(lp2501
g188
ag4
ag18
ag595
ag596
ag3
aa(lp2502
g4
ag884
ag885
ag137
ag5
ag75
aa(lp2503
g41
ag124
ag958
ag10
ag145
ag16
aa(lp2504
g339
ag272
ag107
ag323
ag18
ag37
aa(lp2505
g3
ag566
ag4
ag5
ag846
ag41
aa(lp2506
g4
ag21
ag5
ag5
ag361
ag72
aa(lp2507
g3
ag4
ag4
ag635
ag5
ag4
aa(lp2508
g3
ag4
ag18
ag5
ag5
ag3
aa(lp2509
g39
ag4
ag4
ag5
ag361
ag293
aa(lp2510
g81
ag118
ag1228
ag65
ag122
ag3
aa(lp2511
g81
ag1855
ag219
ag403
ag41
ag26
aa(lp2512
g4
ag4
ag160
ag578
ag11
ag4
aa(lp2513
g4
ag4
ag5
ag5
ag305
ag4
aa(lp2514
g4
ag4
ag4
ag5
ag334
ag3
aa(lp2515
g32
ag4
ag4
ag137
ag5
ag3
aa(lp2516
g39
ag25
ag4
ag203
ag663
ag97
aa(lp2517
g4
ag48
ag18
ag203
ag204
ag18
aa(lp2518
g192
ag4
ag18
ag9
ag225
ag231
aa(lp2519
g4
ag4
ag18
ag5
ag5
ag277
aa(lp2520
g41
ag97
ag958
ag10
ag11
ag4
aa(lp2521
g65
ag18
ag5
ag5
ag5
ag4
aa(lp2522
g158
ag159
ag4
ag728
a(S'humild'
I20
tp2523
ag18
aa(lp2524
g1021
ag45
ag32
ag294
ag54
ag107
aa(lp2525
g54
ag161
ag599
ag5
ag202
ag4
aa(lp2526
g1738
ag924
ag347
ag297
ag41
ag407
aa(lp2527
g26
ag3
ag5
ag5
ag86
ag75
aa(lp2528
g4
ag221
ag4
ag5
ag15
ag37
aa(lp2529
g13
ag4
ag4
ag5
ag21
ag1172
aa(lp2530
g173
ag4
ag4
ag5
ag39
ag3
aa(lp2531
g41
ag4
ag5
ag5
ag5
ag23
aa(lp2532
g41
ag97
ag18
ag5
ag770
ag37
aa(lp2533
g3
ag81
a(S'pareci'
I115
tp2534
ag5
ag5
ag27
aa(lp2535
g4
ag88
ag361
ag1007
ag39
ag4
aa(lp2536
g4
ag151
ag996
ag39
ag29
ag26
aa(lp2537
g412
ag387
ag4
ag161
ag5
ag37
aa(lp2538
g41
ag37
ag83
ag981
ag18
ag37
aa(lp2539
g20
ag4
ag23
ag5
ag5
ag4
aa(lp2540
g54
ag3
ag4
ag5
ag23
a(S'ningun'
I95
tp2541
aa(lp2542
g65
ag4
ag4
ag5
ag834
ag3
aa(lp2543
g151
ag18
ag124
ag209
ag667
ag97
aa(lp2544
g3
ag259
a(S'derredor'
I14
tp2545
ag264
ag18
ag37
aa(lp2546
g20
ag4
ag21
ag5
ag26
ag4
aa(lp2547
g384
ag127
ag4
ag5
ag153
ag4
aa(lp2548
g32
ag33
ag347
ag225
ag1597
ag3
aa(lp2549
g3
ag4
ag5
ag5
ag23
ag6
aa(lp2550
g44
ag4
ag4
ag5
ag41
ag45
aa(lp2551
g165
ag259
ag26
ag39
ag18
ag298
aa(lp2552
g20
ag4
ag4
ag5
ag769
ag4
aa(lp2553
g149
ag54
ag4
ag5
ag54
ag3
aa(lp2554
g122
ag92
ag5
ag9
ag1078
ag18
aa(lp2555
g4
ag4
ag4
ag161
ag202
ag356
aa(lp2556
g200
ag201
ag83
ag981
ag18
ag51
aa(lp2557
g4
ag3
ag65
ag5
ag54
ag72
aa(lp2558
g41
ag54
ag4
ag5
ag250
ag3
aa(lp2559
g3
ag18
ag5
ag5
ag23
ag6
aa(lp2560
g149
ag3
ag4
ag5
ag5
ag3
aa(lp2561
g4
ag4
ag90
ag5
ag60
ag3
aa(lp2562
g481
ag23
ag5
ag297
ag41
ag42
aa(lp2563
g54
ag4
ag160
ag5
ag122
ag3
aa(lp2564
g26
ag327
ag115
ag99
ag465
ag4
aa(lp2565
g358
ag39
ag55
ag5
ag5
ag51
aa(lp2566
g194
ag48
ag4
ag5
ag18
ag37
aa(lp2567
g4
ag361
ag4
ag5
ag32
ag4
aa(lp2568
g37
ag4
ag4
ag132
ag45
ag1216
aa(lp2569
g173
ag3
ag5
ag5
ag39
ag3
aa(lp2570
g194
ag118
ag418
ag39
ag721
ag722
aa(lp2571
g39
ag8
ag374
ag5
ag5
ag51
aa(lp2572
g4
ag4
ag37
ag5
ag54
ag3
aa(lp2573
g39
ag3
ag4
ag5
ag5
ag293
aa(lp2574
g26
ag3
ag335
ag5
ag291
ag75
aa(lp2575
g3
ag4
ag5
ag5
ag5
ag248
aa(lp2576
g305
ag39
ag4
ag5
ag5
ag3
aa(lp2577
g483
ag92
ag5
ag273
ag54
ag107
aa(lp2578
g41
ag684
ag219
a(Velef
I13
tp2579
ag18
ag1916
aa(lp2580
g173
ag256
ag4
ag5
ag5
ag3
aa(lp2581
g95
ag310
ag23
ag161
ag54
ag107
aa(lp2582
g173
ag4
ag18
ag132
ag39
ag3
aa(lp2583
g4
ag48
ag4
ag5
ag5
ag3
aa(lp2584
g3
ag4
ag4
ag5
ag335
ag27
aa(lp2585
g1546
ag286
ag837
ag5
ag18
ag37
aa(lp2586
g4
ag1565
ag4
ag5
ag15
ag75
aa(lp2587
g192
ag193
ag29
ag5
ag30
ag18
aa(lp2588
g271
ag48
ag49
ag124
ag125
ag4
aa(lp2589
g4
ag4
ag160
ag578
ag663
ag75
aa(lp2590
g109
ag272
ag107
ag5
ag202
ag45
aa(lp2591
g81
ag92
ag202
ag8
ag1442
ag4
aa(lp2592
g26
ag3
ag4
ag5
ag39
ag75
aa(lp2593
g41
ag250
ag4
ag5
ag5
ag248
aa(lp2594
g158
ag181
ag23
ag264
ag18
ag37
aa(lp2595
g4
ag4
ag4
ag5
ag32
ag26
aa(lp2596
g1062
ag4
ag4
ag5
ag26
ag41
aa(lp2597
g684
ag161
ag795
ag145
ag41
ag410
aa(lp2598
g2399
ag102
ag18
ag672
ag5
ag35
aa(lp2599
g504
ag54
ag44
ag351
ag104
ag21
aa(lp2600
g684
ag161
ag5
ag962
ag398
ag18
aa(lp2601
g3
ag4
ag65
ag5
ag23
ag4
aa(lp2602
g4
ag39
ag5
ag132
ag5
ag4
aa(lp2603
g3
ag4
ag23
ag5
ag86
ag27
aa(lp2604
g6
ag4
ag4
ag5
ag5
ag29
aa(lp2605
g476
ag1228
ag168
ag37
ag41
ag37
aa(lp2606
g13
ag39
ag55
ag5
ag398
ag6
aa(lp2607
g4
ag4
ag5
ag118
ag54
ag3
aa(lp2608
(S'millon'
I82
tp2609
ag118
ag1228
ag273
ag222
ag18
aa(lp2610
g26
ag4
ag5
ag5
ag250
ag3
aa(lp2611
g4
ag54
ag5
ag39
ag5
ag4
aa(lp2612
g95
ag4
ag55
ag273
ag5
ag51
aa(lp2613
g4
ag82
ag4
ag75
ag32
ag26
aa(lp2614
g107
ag3
ag4
ag5
ag291
ag110
aa(lp2615
g3
ag4
ag5
ag5
ag431
ag3
aa(lp2616
g188
ag277
ag275
ag890
ag122
ag37
aa(lp2617
g44
ag48
ag5
ag225
ag145
ag4
aa(lp2618
g6
ag18
ag5
ag5
ag5
ag3
aa(lp2619
g39
ag39
ag219
ag403
ag122
ag3
aa(lp2620
g282
ag4
ag2534
ag5
ag5
ag6
aa(lp2621
g4
ag82
ag212
ag504
ag5
ag51
aa(lp2622
g37
ag186
ag905
ag323
ag5
ag51
aa(lp2623
g41
ag97
ag4
ag216
ag5
ag51
aa(lp2624
g173
ag39
ag26
ag5
ag5
ag3
aa(lp2625
g4
ag4
ag5
ag5
ag54
ag4
aa(lp2626
g4
ag25
ag202
ag5
ag26
ag72
aa(lp2627
g1052
ag193
ag29
ag5
ag84
ag4
aa(lp2628
g4
ag639
ag4
ag5
ag11
ag75
aa(lp2629
g3
ag39
ag492
ag1381
ag29
ag42
aa(lp2630
g684
ag3
ag5
ag9
ag225
ag454
aa(lp2631
g44
ag48
ag29
ag5
ag29
ag4
aa(lp2632
g4
ag4
ag4
ag5
ag23
ag4
aa(lp2633
g54
ag221
ag135
ag65
ag66
ag4
aa(lp2634
g3
ag18
ag4
ag5
ag161
ag3
aa(lp2635
g4
ag3
ag23
ag5
ag5
ag72
aa(lp2636
g20
ag4
ag4
ag5
a(Vilumin
I31
tp2637
ag4
aa(lp2638
g23
ag215
ag4
ag5
ag15
ag75
aa(lp2639
g4
ag256
ag5
ag5
ag5
ag3
aa(lp2640
g44
ag4
ag4
ag595
ag202
ag45
aa(lp2641
g44
ag272
ag107
ag5
ag66
ag97
aa(lp2642
g54
ag143
ag144
ag323
ag204
ag18
aa(lp2643
g90
ag2121
ag642
ag161
ag75
ag107
aa(lp2644
g37
ag39
ag55
ag1216
ag122
ag3
aa(lp2645
g541
ag159
ag4
ag5
ag15
ag56
aa(lp2646
g39
ag290
ag471
ag56
ag986
ag26
aa(lp2647
g215
ag4
ag4
ag5
ag431
ag4
aa(lp2648
g2227
ag207
ag29
ag5
ag215
ag4
aa(lp2649
g20
ag4
ag37
ag5
ag39
ag4
aa(lp2650
g665
ag3
ag115
ag901
ag15
ag56
aa(lp2651
g39
ag4
ag77
ag137
ag5
ag51
aa(lp2652
g3
ag48
ag5
ag1621
ag13
ag1622
aa(lp2653
g41
ag4
ag160
ag273
ag29
ag26
aa(lp2654
g158
ag159
ag34
ag5
ag15
ag3
aa(lp2655
g41
ag4
ag335
ag5
ag5
ag25
aa(lp2656
g3
ag4
ag18
ag5
ag250
ag6
aa(lp2657
g3
ag4
ag120
ag39
ag5
ag4
aa(lp2658
g3
ag102
ag18
ag672
ag5
ag51
aa(lp2659
g4
ag54
ag5
ag5
ag250
ag3
aa(lp2660
g39
ag21
ag4
ag132
ag5
ag293
aa(lp2661
g3
ag256
ag4
ag39
ag5
ag3
aa(lp2662
g342
ag102
ag522
ag264
ag1661
ag1104
aa(lp2663
g202
ag277
ag120
ag5
ag161
ag3
aa(lp2664
g32
ag864
ag119
ag161
ag153
ag97
aa(lp2665
g4
ag4
ag5
ag132
ag32
ag4
aa(lp2666
g358
ag39
ag55
ag25
ag198
ag41
aa(lp2667
g44
ag4
ag4
ag23
ag5
ag45
aa(lp2668
g37
ag159
ag4
ag216
ag1192
ag75
aa(lp2669
g4
ag181
ag885
ag5
ag15
ag56
aa(lp2670
g4
ag221
ag49
ag145
ag146
ag21
aa(lp2671
g3
ag1970
ag23
ag161
ag54
ag107
aa(lp2672
g3
ag18
ag4
ag5
ag23
ag4
aa(lp2673
g84
ag193
ag29
ag203
ag18
ag116
aa(lp2674
g4
ag256
ag4
ag5
ag5
ag41
aa(lp2675
g39
ag290
ag120
ag22
ag18
ag37
aa(lp2676
g41
ag127
ag4
ag5
ag15
ag18
aa(lp2677
g4
ag4
ag248
ag5
ag250
ag3
aa(lp2678
g118
ag4
ag5
ag23
ag39
ag120
aa(lp2679
g4
ag4
ag4
ag5
ag18
ag4
aa(lp2680
g3
ag4
ag4
ag5
ag90
ag3
aa(lp2681
g4
ag39
ag4
ag5
ag122
ag3
aa(lp2682
g298
ag14
ag4
ag137
ag5
ag51
aa(lp2683
g65
ag4
ag4
ag5
ag39
ag3
aa(lp2684
g653
ag436
ag144
ag323
ag39
ag176
aa(lp2685
g54
ag4
ag219
ag5
ag5
ag51
aa(lp2686
g4
ag221
ag9
ag10
ag11
ag4
aa(lp2687
g173
ag4
ag26
ag5
ag361
ag3
aa(lp2688
g4
ag82
ag83
ag5
ag146
ag21
aa(lp2689
g20
ag4
ag23
ag5
ag39
ag4
aa(lp2690
g3
ag48
ag4
ag5
ag39
ag3
aa(lp2691
g3
ag267
ag335
ag25
ag198
ag23
aa(lp2692
g44
ag3
ag4
ag132
ag361
ag45
aa(lp2693
g90
ag4
ag18
ag203
ag663
ag37
aa(lp2694
g4
ag39
ag4
ag5
ag161
ag26
aa(lp2695
g4
ag39
ag5
ag5
ag5
ag277
aa(lp2696
g4
ag4
ag18
ag5
ag5
ag48
aa(lp2697
g4
ag221
ag86
ag132
ag153
ag3
aa(lp2698
g4
ag37
ag4
ag48
ag5
ag356
aa(lp2699
g4
ag59
ag5
ag268
ag225
ag454
aa(lp2700
g4
ag45
ag4
ag5
ag32
ag4
aa(lp2701
g39
ag95
ag4
ag103
ag803
ag18
aa(lp2702
g3
ag256
ag37
ag22
ag41
ag310
aa(lp2703
g235
ag3
ag1032
ag5
ag5
ag32
aa(lp2704
g39
ag97
ag4
ag103
ag803
ag545
aa(lp2705
g4
ag4
ag5
ag5
ag5
ag75
aa(lp2706
g95
ag97
ag347
ag169
ag291
ag4
aa(lp2707
g26
ag3
ag4
ag201
ag5
ag75
aa(lp2708
g4
ag4
ag4
ag129
ag5
ag3
aa(lp2709
g37
ag159
ag18
ag203
ag663
ag97
aa(lp2710
g4
ag49
ag29
ag103
ag153
ag3
aa(lp2711
g4
ag4
ag5
ag5
ag39
ag4
aa(lp2712
g3
ag4
ag374
ag5
ag5
ag3
aa(lp2713
g4
ag54
ag4
ag37
ag5
ag4
aa(lp2714
g6
ag4
ag4
ag132
ag250
ag3
aa(lp2715
g504
ag102
ag792
ag814
ag5
ag4
aa(lp2716
g233
ag450
ag792
ag190
ag284
ag3
aa(lp2717
g41
ag97
ag4
ag39
ag5
ag51
aa(lp2718
g593
ag290
ag9
ag382
ag204
ag18
aa(lp2719
g244
ag59
ag4
ag39
ag5
ag51
aa(lp2720
g173
ag4
ag4
ag5
ag5
ag3
aa(lp2721
g178
ag54
ag996
ag39
ag15
ag18
aa(lp2722
g4
ag887
ag5
ag5
ag5
ag4
aa(lp2723
g32
ag4
ag160
ag578
ag15
ag97
aa(lp2724
g18
ag64
ag37
ag347
ag39
ag16
aa(lp2725
g32
ag14
ag374
ag5
ag13
ag1384
aa(lp2726
g3
ag4
ag471
ag5
ag5
ag4
aa(lp2727
g3
ag4
ag18
ag5
ag21
ag310
aa(lp2728
g4
ag4
ag5
ag5
ag5
ag26
aa(lp2729
g4
ag82
ag83
ag5
ag84
ag26
aa(lp2730
g4
ag4
ag107
ag5
ag5
ag72
aa(lp2731
g151
ag4
ag518
ag391
ag122
ag3
aa(lp2732
g20
ag4
ag120
ag5
ag5
ag4
aa(lp2733
g4
ag4
ag120
ag5
ag244
ag3
aa(lp2734
g18
ag3
ag5
ag9
ag41
ag250
aa(lp2735
g3
ag4
ag4
ag5
ag244
ag48
aa(lp2736
g4
ag221
ag4
ag5
ag364
ag795
aa(lp2737
g18
ag4
ag29
ag5
ag5
ag3
aa(lp2738
g149
ag4
ag4
ag23
ag5
ag3
aa(lp2739
g118
ag3
ag4
ag5
ag23
ag120
aa(lp2740
g13
ag267
ag335
ag25
ag5
ag4
aa(lp2741
g3
ag4
ag5
ag5
ag18
ag3
aa(lp2742
g3
ag4
ag4
ag5
ag39
ag25
aa(lp2743
g173
ag256
ag9
ag5
ag5
ag3
aa(lp2744
g4
ag4
ag4
ag65
ag5
ag4
aa(lp2745
g4
ag97
ag98
ag65
ag66
ag97
aa(lp2746
g200
ag3
ag37
ag132
ag60
ag3
aa(lp2747
g593
ag1954
ag77
ag5
ag15
ag56
aa(lp2748
g26
ag4
ag5
ag132
ag250
ag3
aa(lp2749
g206
ag566
ag4
ag103
ag225
ag454
aa(lp2750
g41
ag92
ag5
ag264
ag398
ag6
aa(lp2751
g18
ag3
ag115
ag504
ag5
ag107
aa(lp2752
g41
ag387
ag4
ag5
ag84
ag298
aa(lp2753
g3
ag86
ag4
ag5
ag26
ag310
aa(lp2754
g41
ag97
ag34
ag5
a(S'hiel'
I27
tp2755
ag3
aa(lp2756
g273
ag18
ag5
ag39
ag39
ag3
aa(lp2757
g4
ag250
ag120
ag5
ag5
ag4
aa(lp2758
g1108
ag39
ag4
ag5
ag5
ag6
aa(lp2759
g4
ag37
ag4
ag5
ag26
ag72
aa(lp2760
g882
ag175
ag374
ag5
ag18
ag37
aa(lp2761
g593
ag14
ag77
ag137
ag5
ag4
aa(lp2762
g41
ag267
ag792
ag190
ag11
ag26
aa(lp2763
g4
ag221
ag29
ag391
ag122
ag37
aa(lp2764
g4
ag86
ag4
ag5
ag5
ag18
aa(lp2765
g3
ag603
ag81
ag288
ag215
ag3
aa(lp2766
g13
ag267
ag37
ag40
ag54
ag3
aa(lp2767
g4
ag4
ag18
ag5
ag5
ag3
aa(lp2768
g3
ag4
ag5
ag5
ag75
ag3
aa(lp2769
g20
ag3
ag4
ag6
ag5
ag4
aa(lp2770
g4
ag4
ag5
ag5
ag18
ag26
aa(lp2771
g4
ag54
ag5
ag5
ag86
ag3
aa(lp2772
g4
a(S'dio'
I85
tp2773
ag65
ag132
ag5
ag356
aa(lp2774
g39
ag290
ag9
ag77
ag18
ag37
aa(lp2775
g4
ag4
ag5
ag5
ag431
ag4
aa(lp2776
g13
ag97
ag44
ag384
ag215
ag120
aa(lp2777
g173
ag4
ag5
ag5
ag361
ag3
aa(lp2778
g54
ag143
ag642
ag161
ag75
ag260
aa(lp2779
g4
ag4
ag5
ag5
ag5
ag29
aa(lp2780
g41
ag18
ag9
ag37
ag684
ag392
aa(lp2781
g3
ag97
ag347
ag225
ag145
ag4
aa(lp2782
g23
ag48
ag234
ag430
ag18
ag41
aa(lp2783
g41
ag33
ag44
ag60
ag15
ag56
aa(lp2784
g4
ag32
ag4
ag5
ag1509
ag72
aa(lp2785
g412
ag97
ag77
ag216
ag217
ag4
aa(lp2786
g697
ag3
ag37
ag10
ag11
ag21
aa(lp2787
g3
ag4
ag5
ag5
ag834
ag4
aa(lp2788
g41
ag256
ag4
ag216
ag388
ag298
aa(lp2789
g3
ag88
ag5
ag5
ag5
ag4
aa(lp2790
g20
a(S'text'
I23
tp2791
ag4
ag5
ag5
ag4
aa(lp2792
g4
ag18
ag124
ag209
ag41
ag133
aa(lp2793
g3
ag4
ag4
ag5
ag204
ag3
aa(lp2794
g4
ag361
ag4
ag5
ag23
ag4
aa(lp2795
g4
ag221
ag202
ag99
ag29
ag26
aa(lp2796
g173
ag39
ag4
ag5
ag5
ag3
aa(lp2797
g3
ag155
ag26
ag403
ag41
ag35
aa(lp2798
g3
ag92
ag5
ag5
ag5
ag4
aa(lp2799
g1774
ag1565
ag4
ag268
ag29
ag26
aa(lp2800
g79
ag4
ag160
ag5
ag18
ag6
aa(lp2801
g1021
ag4
ag168
ag37
ag74
ag75
aa(lp2802
g149
ag37
ag4
ag5
ag861
ag3
aa(lp2803
g4
ag4
ag4
ag5
ag5
ag48
aa(lp2804
g13
ag23
ag1337
ag5
ag18
ag75
aa(lp2805
g817
ag4
ag4
ag5
ag23
ag18
aa(lp2806
g44
ag4
ag48
ag39
ag229
ag45
aa(lp2807
g44
ag4
ag161
ag5
ag5
ag45
aa(lp2808
g4
ag4
ag215
ag5
ag26
ag72
aa(lp2809
g3
ag4
ag120
ag132
ag5
ag27
aa(lp2810
g819
ag215
ag144
ag323
ag204
ag51
aa(lp2811
g1738
ag924
ag347
ag297
ag29
ag41
aa(lp2812
g244
ag4
ag161
ag273
ag54
ag4
aa(lp2813
g18
ag4
ag4
ag132
ag39
ag3
aa(lp2814
g3
ag3
ag115
ag99
ag204
ag18
aa(lp2815
g244
ag4
ag18
ag203
ag18
ag3
aa(lp2816
g122
ag92
ag234
ag65
ag66
ag161
aa(lp2817
g3
ag37
ag4
ag297
ag29
ag18
aa(lp2818
g4
ag82
ag86
ag454
ag75
ag41
aa(lp2819
g44
ag25
ag23
ag264
ag15
ag75
aa(lp2820
g3
ag4
ag692
ag5
ag5
ag3
aa(lp2821
g4
ag18
ag4
ag5
ag5
ag4
aa(lp2822
g4
ag18
ag5
ag5
ag39
ag48
aa(lp2823
g118
ag4
ag4
ag5
ag1453
ag120
aa(lp2824
g422
ag4
ag26
ag5
ag5
ag161
aa(lp2825
g4
ag92
ag5
ag5
ag499
ag37
aa(lp2826
g194
ag151
ag996
ag39
a(S'abri'
I34
tp2827
a(Vastronom
I20
tp2828
aa(lp2829
g151
ag4
ag4
ag216
ag388
ag45
aa(lp2830
g3
ag32
ag4
ag71
ag5
ag310
aa(lp2831
g4
ag221
ag49
ag5
ag204
ag26
aa(lp2832
g298
ag539
ag55
ag37
ag41
ag51
aa(lp2833
g298
ag48
ag234
ag273
ag54
ag97
aa(lp2834
g3
ag4
ag4
ag39
ag54
ag3
aa(lp2835
g26
ag327
ag374
ag5
ag15
ag3
aa(lp2836
g1511
ag286
ag287
ag145
ag146
ag107
aa(lp2837
g3
ag4
ag4
ag5
ag18
ag37
aa(lp2838
g65
ag23
ag5
ag5
ag5
ag18
aa(lp2839
g769
ag4
ag160
ag578
ag5
ag4
aa(lp2840
g54
ag181
ag219
ag161
ag75
ag26
aa(lp2841
g4
ag4
ag4
ag25
ag5
ag4
aa(lp2842
g109
ag92
ag5
ag137
ag5
ag26
aa(lp2843
g41
ag900
ag144
ag323
ag15
ag97
aa(lp2844
g151
ag4
ag135
ag65
ag66
ag4
aa(lp2845
g39
ag25
ag4
ag216
ag388
ag3
aa(lp2846
g4
ag82
ag885
ag39
ag582
ag1244
aa(lp2847
g107
ag3
ag161
ag5
ag5
ag110
aa(lp2848
g256
ag4
ag70
ag132
ag5
ag443
aa(lp2849
g3
ag86
ag4
ag5
ag1661
ag4
aa(lp2850
g158
ag159
ag624
ag9
ag153
ag3
aa(lp2851
g435
a(S'bas'
I96
tp2852
ag32
ag288
ag18
ag250
aa(lp2853
g151
ag4
ag115
ag5
ag18
ag16
aa(lp2854
g3
ag97
ag4
ag33
ag1265
ag4
aa(lp2855
g4
ag143
ag55
ag273
ag54
ag120
aa(lp2856
g188
ag277
ag642
ag496
ag18
ag37
aa(lp2857
g3
ag436
ag645
ag161
ag364
ag795
aa(lp2858
g54
ag54
ag5
ag347
ag5
ag4
aa(lp2859
g4
ag221
ag18
ag132
ag145
ag97
aa(lp2860
g3
ag161
ag599
ag328
ag204
ag18
aa(lp2861
g13
ag221
ag29
ag5
ag60
ag75
aa(lp2862
g342
ag102
ag4
ag216
ag75
ag1016
aa(lp2863
g271
ag201
ag202
ag430
ag515
ag3
aa(lp2864
g4
ag4
ag120
ag132
ag86
ag356
aa(lp2865
(S'minut'
I24
tp2866
ag4
ag5
ag6
ag5
ag25
aa(lp2867
g32
ag3
ag115
ag8
ag213
ag291
aa(lp2868
g173
ag4
ag4
ag5
ag335
ag3
aa(lp2869
g44
ag37
ag571
ag5
ag18
ag37
aa(lp2870
g4
ag4
ag90
ag132
ag5
ag3
aa(lp2871
g4
ag14
ag4
ag297
ag29
ag3
aa(lp2872
g3
ag18
ag4
ag5
ag32
ag4
aa(lp2873
g44
ag277
ag18
ag672
ag846
ag26
aa(lp2874
g680
ag175
ag1446
ag792
ag18
ag4
aa(lp2875
g4
ag215
ag4
ag103
ag803
ag298
aa(lp2876
g18
ag4
ag5
ag5
ag23
ag4
aa(lp2877
g20
ag3
ag476
ag6
ag18
ag4
aa(lp2878
g422
ag4
ag120
ag5
ag186
ag161
aa(lp2879
g20
ag4
ag4
ag132
ag50
ag4
aa(lp2880
g358
ag39
ag55
ag37
ag1265
ag4
aa(lp2881
g4
ag39
ag4
ag22
ag23
ag4
aa(lp2882
g4
ag4
ag5
ag5
ag26
ag72
aa(lp2883
g4
ag3
ag22
ag5
ag186
ag72
aa(lp2884
(Vcentr
I57
tp2885
ag4
ag4
ag5
ag39
ag3
aa(lp2886
g13
ag277
ag275
ag1349
ag515
ag3
aa(lp2887
g20
ag3
ag26
ag5
ag50
ag4
aa(lp2888
g26
ag4
ag26
ag5
ag5
ag75
aa(lp2889
g20
ag3
ag202
ag161
ag39
ag4
aa(lp2890
g13
ag539
ag234
ag10
ag2523
ag18
aa(lp2891
g4
ag49
ag478
ag22
ag334
ag3
aa(lp2892
g122
ag92
ag5
ag137
ag202
ag3
aa(lp2893
g20
ag250
ag4
ag5
ag18
ag4
aa(lp2894
g298
ag539
ag18
ag10
ag11
ag4
aa(lp2895
g697
ag221
ag5
ag454
ag5
ag159
aa(lp2896
g4
ag4
ag5
ag5
ag305
ag3
aa(lp2897
g44
ag4
ag107
ag5
ag5
ag45
aa(lp2898
g3
ag155
ag9
ag890
a(Vrestant
I9
tp2899
ag37
aa(lp2900
g4
ag18
ag4
ag132
ag5
ag4
aa(lp2901
g4
ag18
ag5
ag5
ag39
ag4
aa(lp2902
g54
ag4
ag5
ag5
ag23
ag4
aa(lp2903
g4
ag259
ag4
ag5
ag23
ag4
aa(lp2904
g3
ag269
ag817
ag37
ag448
ag41
aa(lp2905
g4
ag221
ag1532
ag849
ag2827
ag2828
aa(lp2906
g39
ag290
ag9
ag298
ag322
ag37
aa(lp2907
g41
ag4
ag4
ag5
ag5
ag18
aa(lp2908
g342
ag48
ag4
ag5
ag161
ag3
aa(lp2909
g4
ag4
ag4
ag5
ag5
ag356
aa(lp2910
(Vincreibl
I19
tp2911
ag4
ag18
ag203
ag663
ag3
aa(lp2912
g120
ag1536
ag4
ag5
ag5
ag18
aa(lp2913
g3
ag155
ag26
ag2579
ag18
ag18
aa(lp2914
g4
ag3
ag4
ag39
ag45
ag356
aa(lp2915
g13
ag3
ag21
ag25
ag5
ag1172
aa(lp2916
g267
ag864
ag347
ag225
ag145
ag4
aa(lp2917
g4
ag3
ag4
ag5
ag23
ag356
aa(lp2918
g4
ag221
ag347
ag225
ag145
ag37
aa(lp2919
g3
ag86
ag4
ag5
ag5
ag4
aa(lp2920
g619
ag4
ag4
ag161
ag5
ag161
aa(lp2921
g41
ag97
ag473
ag5
ag18
ag37
aa(lp2922
g3
ag39
ag4
ag5
ag335
ag27
aa(lp2923
g107
ag23
ag119
ag161
ag104
ag3
aa(lp2924
g54
ag39
ag5
ag5
ag32
ag4
aa(lp2925
g79
ag4
ag49
ag40
ag54
ag3
aa(lp2926
g84
ag387
ag4
ag216
ag5
ag51
aa(lp2927
g26
ag3
ag4
ag5
ag54
ag75
aa(lp2928
g3
ag4
ag4
ag5
ag204
ag4
aa(lp2929
g4
ag4
ag18
ag5
ag5
ag4
aa(lp2930
g39
ag3
ag115
ag99
ag5
ag51
aa(lp2931
g39
ag290
ag9
ag37
ag5
ag41
aa(lp2932
g63
ag64
ag29
ag5
ag60
ag37
aa(lp2933
g41
ag4
ag90
ag5
ag5
ag923
aa(lp2934
g26
ag3
ag4
ag6
ag5
ag75
aa(lp2935
g342
ag92
ag331
ag10
ag11
ag4
aa(lp2936
g13
ag267
ag37
ag132
ag75
ag222
aa(lp2937
g20
ag4
ag2146
ag5
ag5
ag4
aa(lp2938
g4
ag277
ag275
ag5
ag5
ag159
aa(lp2939
g4
ag39
ag4
ag5
ag39
ag25
aa(lp2940
g282
ag962
ag183
ag5
ag75
ag97
aa(lp2941
g81
ag4
ag5
ag93
ag229
ag45
aa(lp2942
g4
ag82
ag4
ag5
ag322
ag4
aa(lp2943
g4
ag221
ag18
ag203
ag663
ag176
aa(lp2944
g173
ag39
ag5
ag5
ag41
ag3
aa(lp2945
g13
ag267
ag335
ag5
ag1597
ag410
aa(lp2946
g3
ag398
ag331
ag5
ag5
ag4
aa(lp2947
g41
ag97
ag215
ag65
ag5
ag51
aa(lp2948
g118
ag4
ag4
ag161
a(Vsolucion
I24
tp2949
ag120
aa(lp2950
g13
ag277
ag18
ag5
ag18
ag37
aa(lp2951
g697
ag3
ag287
ag34
ag18
ag37
aa(lp2952
g4
ag4
ag2320
ag5
ag5
ag4
aa(lp2953
g41
ag97
ag4
ag103
ag41
ag231
aa(lp2954
g54
ag143
ag124
ag209
ag667
ag97
aa(lp2955
g20
ag4
ag202
ag5
ag18
ag4
aa(lp2956
g44
ag82
a(S'zuec'
I10
tp2957
ag75
ag66
ag1059
aa(lp2958
g81
ag92
ag5
ag9
ag29
ag26
aa(lp2959
g3
ag221
ag49
ag5
ag84
ag518
aa(lp2960
g4
ag18
ag124
ag209
ag18
ag37
aa(lp2961
g1774
ag1565
ag4
ag5
ag2222
ag3
aa(lp2962
g483
ag14
ag4
ag5
ag1519
ag1032
aa(lp2963
g44
ag201
ag202
ag5
ag15
ag37
aa(lp2964
g4
ag4
ag4
ag5
ag18
ag37
aa(lp2965
g54
ag4
ag4
ag132
ag5
ag3
aa(lp2966
g4
ag4
ag5
ag5
ag5
ag120
aa(lp2967
g54
ag181
ag23
ag264
ag122
ag3
aa(lp2968
g3
ag4
ag90
ag25
ag5
ag26
aa(lp2969
g4
ag3
ag22
ag5
ag5
ag356
aa(lp2970
g95
ag4
ag160
ag5
ag202
ag560
aa(lp2971
g118
ag3
ag1226
ag22
ag5
ag120
aa(lp2972
g41
ag387
ag4
ag216
ag84
ag51
aa(lp2973
g20
ag37
ag4
ag5
ag39
ag4
aa(lp2974
g37
ag39
ag374
ag5
ag15
ag560
aa(lp2975
g4
ag4
ag4
ag5
ag26
ag72
aa(lp2976
g20
ag3
ag4
ag23
ag18
ag4
aa(lp2977
g178
ag54
ag29
ag5
ag29
ag37
aa(lp2978
g109
ag92
ag5
ag297
ag29
ag26
aa(lp2979
g118
ag3
ag26
ag5
ag5
ag120
aa(lp2980
g54
ag221
ag996
ag39
ag5
ag222
aa(lp2981
g39
ag37
ag905
ag10
ag11
ag4
aa(lp2982
g2116
ag37
ag837
ag10
ag202
a(S'diner'
I47
tp2983
aa(lp2984
g18
ag4
ag160
ag225
ag145
ag3
aa(lp2985
g41
ag3
ag9
ag37
ag684
ag3
aa(lp2986
g39
ag290
ag182
ag161
ag13
ag4
aa(lp2987
g4
ag4
ag4
ag5
ag256
ag3
aa(lp2988
g3
ag670
ag844
ag5
ag18
ag37
aa(lp2989
g3
ag48
ag4
ag23
ag5
ag27
aa(lp2990
g4
ag4
ag4
ag347
ag5
ag4
aa(lp2991
g4
ag4
ag5
ag25
ag5
ag6
aa(lp2992
g4
ag256
ag4
ag5
ag5
ag4
aa(lp2993
g4
ag4
ag4
ag132
ag5
ag356
aa(lp2994
g697
ag3
ag4
ag235
ag11
ag4
aa(lp2995
g3
ag4
ag5
ag5
ag60
ag3
aa(lp2996
g149
ag18
ag5
ag5
ag26
ag3
aa(lp2997
g4
ag4
ag65
ag22
ag5
ag72
aa(lp2998
g4
ag18
ag120
ag5
ag161
ag4
aa(lp2999
g4
ag256
ag4
ag39
ag5
ag4
aa(lp3000
g13
ag327
ag44
ag351
ag122
ag3
aa(lp3001
g4
ag221
ag18
ag1425
ag222
ag97
aa(lp3002
g2609
ag14
ag4
ag39
ag5
ag56
aa(lp3003
g3
ag277
ag5
ag39
ag5
ag3
aa(lp3004
g54
ag159
ag4
ag268
ag364
ag37
aa(lp3005
g41
ag617
ag21
ag161
ag75
ag222
aa(lp3006
g173
ag4
ag21
ag5
ag5
ag3
aa(lp3007
g3
ag4
ag215
ag5
ag90
ag310
aa(lp3008
g4
ag39
ag55
ag37
ag41
ag56
aa(lp3009
g386
ag387
ag5
ag268
ag364
ag365
aa(lp3010
g4
ag82
ag736
ag161
ag18
ag61
aa(lp3011
g504
ag102
ag5
ag137
ag11
ag4
aa(lp3012
g4
ag221
ag792
ag5
ag667
ag3
aa(lp3013
g4
ag259
ag4
ag5
ag26
ag72
aa(lp3014
g41
ag4
ag4
ag39
ag18
ag4
aa(lp3015
g37
ag97
ag347
ag169
ag18
ag37
aa(lp3016
g4
ag4
ag2320
ag5
ag54
ag4
aa(lp3017
g44
ag1565
ag4
ag203
ag663
ag75
aa(lp3018
g3
ag4
ag277
ag25
ag5
ag3
aa(lp3019
g54
ag290
ag4
ag5
ag15
ag410
aa(lp3020
g26
ag33
ag44
ag132
ag20
ag37
aa(lp3021
g39
ag290
ag473
ag474
ag398
ag37
aa(lp3022
g4
ag4
ag120
ag48
ag5
ag356
aa(lp3023
g54
ag64
ag29
ag5
ag215
ag4
aa(lp3024
g41
ag4
ag4
ag132
ag5
ag4
aa(lp3025
g2116
ag37
ag837
ag10
ag29
ag1032
aa(lp3026
g4
ag3
ag115
ag5
ag361
ag72
aa(lp3027
g4
ag37
ag5
ag5
ag5
ag356
aa(lp3028
g1303
ag259
ag374
ag288
ag215
ag4
aa(lp3029
g95
ag4
ag160
ag5
ag322
ag37
aa(lp3030
g4
ag39
ag5
ag5
ag5
ag3
aa(lp3031
g3
ag4
ag5
ag48
ag5
ag27
aa(lp3032
g4
ag4
ag5
ag5
ag93
ag18
aa(lp3033
g3
ag436
ag4
ag5
ag39
ag77
aa(lp3034
g13
ag267
ag215
ag403
ag41
ag37
aa(lp3035
g4
ag3
ag4
ag6
ag202
ag356
aa(lp3036
g4
ag175
ag160
ag5
ag663
ag37
aa(lp3037
g18
ag277
ag4
ag5
ag122
ag4
aa(lp3038
g3
ag1794
ag5
ag5
ag204
ag18
aa(lp3039
g4
ag4
ag5
ag5
ag5
ag48
aa(lp3040
g44
ag4
ag4
ag5
ag256
ag45
aa(lp3041
g165
ag259
ag26
ag39
ag18
ag1016
aa(lp3042
g44
ag4
ag4
ag5
ag834
ag4
aa(lp3043
g298
ag539
ag4
ag5
ag18
ag37
aa(lp3044
g39
ag290
ag4
ag264
ag204
ag4
aa(lp3045
g476
ag49
ag160
ag273
ag54
ag1312
aa(lp3046
g4
ag33
ag4
ag145
ag84
ag37
aa(lp3047
g4
ag259
ag5
ag5
ag5
ag4
aa(lp3048
g923
ag21
ag120
ag924
ag202
ag45
aa(lp3049
g4
ag4
ag5
ag5
ag90
ag4
aa(lp3050
g4
ag3
ag22
ag5
ag54
ag72
aa(lp3051
g1333
ag256
ag219
ag403
ag284
ag26
aa(lp3052
g200
ag4
ag18
ag203
ag66
ag231
aa(lp3053
g149
ag4
ag26
ag132
ag23
ag3
aa(lp3054
g4
ag4
ag135
ag5
ag84
ag61
aa(lp3055
g4
ag221
ag49
ag124
ag125
ag51
aa(lp3056
g3
ag4
ag5
ag233
ag5
ag4
aa(lp3057
g173
ag4
ag161
ag5
ag361
ag3
aa(lp3058
g4
ag4
ag5
ag5
ag18
ag25
aa(lp3059
g275
ag37
ag571
ag5
ag60
ag56
aa(lp3060
g151
ag64
ag29
ag5
ag18
ag410
aa(lp3061
g20
ag54
ag4
ag132
ag5
ag4
aa(lp3062
g4
ag32
ag4
ag5
ag5
ag72
aa(lp3063
g79
ag4
ag160
ag5
ag15
ag18
aa(lp3064
g3
ag23
ag119
ag161
ag75
ag573
aa(lp3065
g1108
ag4
ag4
ag5
ag204
ag6
aa(lp3066
g3
ag4
ag4
ag5
ag5
ag23
aa(lp3067
g200
ag201
ag202
ag5
ag15
ag3
aa(lp3068
g149
ag54
ag4
ag5
ag5
ag3
aa(lp3069
g173
ag4
ag5
ag132
ag5
ag3
aa(lp3070
g4
ag4
ag37
ag5
ag93
ag3
aa(lp3071
g151
ag212
ag144
ag323
ag39
ag107
aa(lp3072
g593
ag186
ag26
ag77
ag210
ag4
aa(lp3073
g109
ag39
ag55
ag65
ag100
ag18
aa(lp3074
g37
ag369
ag18
ag5
ag66
ag97
aa(lp3075
g39
ag290
ag9
ag1441
ag1442
ag4
aa(lp3076
g4
ag175
ag998
ag302
ag204
ag4
aa(lp3077
g4
ag21
ag189
ag137
ag5
ag97
aa(lp3078
g3
ag86
ag4
ag25
ag13
ag3
aa(lp3079
g18
ag670
ag844
ag217
ag41
ag37
aa(lp3080
g4
ag4
ag34
ag5
ag23
ag4
aa(lp3081
g202
ag25
ag23
ag264
ag18
ag4
aa(lp3082
g3
ag4
ag5
ag5
ag54
ag4
aa(lp3083
g3
ag4
ag5
ag5
ag60
ag4
aa(lp3084
g4
ag4
ag160
ag5
ag198
ag26
aa(lp3085
g3
ag88
ag5
ag5
ag13
ag3
aa(lp3086
g298
ag539
ag15
ag391
ag122
ag3
aa(lp3087
g4
ag4
ag5
ag5
ag32
ag3
aa(lp3088
g79
ag92
ag5
ag225
ag145
ag51
aa(lp3089
g41
ag4
ag5
ag5
ag803
ag3
aa(lp3090
g481
ag259
ag124
ag391
ag122
ag3
aa(lp3091
g3
ag4
ag347
ag5
ag5
ag3
aa(lp3092
g4
ag4
ag5
ag25
ag5
ag4
aa(lp3093
g54
ag181
ag4
ag672
ag5
ag51
aa(lp3094
g3
ag54
ag5
ag5
ag32
ag3
aa(lp3095
g4
ag250
ag4
ag5
ag5
ag18
aa(lp3096
g44
ag18
ag4
ag23
ag5
ag45
aa(lp3097
g440
ag25
ag4
ag302
ag153
ag3
aa(lp3098
g18
ag3
ag115
ag5
ag60
ag4
aa(lp3099
g39
ag37
ag9
ag40
ag20
ag133
aa(lp3100
g334
ag4
ag5
ag39
ag5
ag18
aa(lp3101
g684
ag161
ag29
ag5
ag204
ag18
aa(lp3102
g4
ag3
ag4
ag6
ag5
ag72
aa(lp3103
g4
ag436
ag4
ag5
ag5
ag107
aa(lp3104
g13
ag1463
ag18
ag203
ag663
ag4
aa(lp3105
g3
ag4
ag4
ag5
ag54
ag4
aa(lp3106
g4
ag4
ag5
ag5
ag18
ag41
aa(lp3107
g4
ag48
ag29
ag161
ag75
ag1016
aa(lp3108
g231
ag39
ag55
ag22
ag479
ag61
aa(lp3109
g122
ag92
ag5
ag137
ag18
ag37
aa(lp3110
g3
ag4
ag5
ag5
ag877
ag4
aa(lp3111
g882
ag3
ag115
ag403
ag41
ag4
aa(lp3112
g298
ag539
ag5
ag268
ag229
ag3
aa(lp3113
g95
ag4
ag160
ag351
ag104
ag3
aa(lp3114
g41
ag97
ag4
ag5
ag1597
ag3
aa(lp3115
g298
ag212
ag77
ag137
ag66
ag3
aa(lp3116
g37
ag4
ag4
ag5
ag917
ag1216
aa(lp3117
g84
ag25
ag182
ag161
ag75
ag222
aa(lp3118
g188
ag3
ag998
ag302
ag204
ag4
aa(lp3119
g4
ag161
ag599
ag77
ag210
ag222
aa(lp3120
g3
ag18
ag4
ag5
ag5
ag23
aa(lp3121
g4
ag4
ag4
ag5
ag84
ag3
aa(lp3122
g4
ag4
ag37
ag132
ag5
ag3
aa(lp3123
g697
ag3
ag1457
ag161
ag11
ag4
aa(lp3124
g20
ag4
ag4
ag5
ag202
ag4
aa(lp3125
g4
a(Vautent
I16
tp3126
a(S'argentin'
I31
tp3127
ag5
ag60
ag61
aa(lp3128
g20
ag4
ag179
ag5
ag54
ag4
aa(lp3129
g149
ag3
ag21
ag5
ag54
ag3
aa(lp3130
g4
ag4
ag4
ag132
ag361
ag72
aa(lp3131
g386
ag387
ag4
ag1216
ag122
ag3
aa(lp3132
g1062
ag4
ag4
ag6
ag39
ag41
aa(lp3133
g44
ag4
ag161
ag5
ag44
ag45
aa(lp3134
g194
ag118
ag86
ag216
ag75
ag26
aa(lp3135
g1679
ag151
ag996
ag39
ag41
ag18
aa(lp3136
g54
ag54
ag4
ag39
ag5
ag3
aa(lp3137
g4
ag4
ag5
ag132
ag5
ag3
aa(lp3138
g684
ag436
ag5
ag225
ag18
ag37
aa(lp3139
g481
ag23
ag18
ag132
ag75
ag107
aa(lp3140
g3
ag3
ag4
ag5
ag18
ag310
aa(lp3141
g2866
ag4
ag23
ag5
ag5
ag25
aa(lp3142
g3
ag18
ag5
ag5
ag93
ag3
aa(lp3143
g481
ag23
ag119
ag39
ag5
ag179
aa(lp3144
g3
ag25
ag37
ag5
ag5
ag310
aa(lp3145
g165
ag127
ag83
ag981
ag18
ag37
aa(lp3146
g233
ag221
ag29
ag5
ag60
ag2404
aa(lp3147
g4
ag18
ag4
ag65
ag86
ag3
aa(lp3148
g23
ag215
ag642
ag391
ag122
ag3
aa(lp3149
g2227
ag962
ag374
ag5
ag84
ag20
aa(lp3150
g41
ag97
ag1058
ag391
ag122
ag3
aa(lp3151
g4
ag54
ag5
ag132
ag5
ag18
aa(lp3152
g158
ag159
ag23
ag183
ag184
ag23
aa(lp3153
g4
ag48
ag5
ag5
ag2289
ag4
aa(lp3154
g18
ag4
ag5
ag132
ag13
ag4
aa(lp3155
g4
a(S'conjunt'
I54
tp3156
ag4
ag5
ag18
ag3
aa(lp3157
g79
ag4
ag418
ag5
ag846
ag41
aa(lp3158
g41
ag193
ag29
ag5
ag364
ag37
aa(lp3159
g54
ag143
ag32
ag22
ag5
ag51
aa(lp3160
g4
ag4
ag335
ag5
ag5
ag4
aa(lp3161
g3
ag23
ag119
ag161
ag18
ag298
aa(lp3162
g4
ag3
ag4
ag5
ag873
ag72
aa(lp3163
g3
ag48
ag234
ag1254
ag18
ag37
aa(lp3164
g13
ag102
ag4
ag103
ag803
ag97
aa(lp3165
g39
ag290
ag9
ag40
ag210
ag42
aa(lp3166
g3
ag1381
ag4
ag5
ag23
ag3
aa(lp3167
g282
ag3
ag4
ag132
ag21
ag6
aa(lp3168
g39
ag97
ag473
ag474
ag204
ag3
aa(lp3169
g4
ag175
ag160
ag216
ag75
ag26
aa(lp3170
g41
ag4
ag4
ag39
ag5
ag4
aa(lp3171
g4
ag39
ag4
ag5
ag5
ag18
aa(lp3172
g81
ag92
ag5
ag5
ag15
ag3
aa(lp3173
g20
ag4
ag4
ag2440
ag5
ag4
aa(lp3174
g149
ag4
ag834
ag5
ag256
ag3
aa(lp3175
g4
ag39
ag5
ag5
ag32
ag4
aa(lp3176
g3
ag18
ag5
ag39
ag244
ag3
aa(lp3177
g1912
ag4
ag4
ag5
ag5
ag3
aa(lp3178
g3
ag4
ag4
ag6
ag398
ag310
aa(lp3179
g282
ag3
ag4
ag5
ag23
ag6
aa(lp3180
g3
ag259
ag2104
ag5
ag5
ag4
aa(lp3181
g422
ag4
ag884
ag5
ag5
ag161
aa(lp3182
g4
ag250
ag5
ag5
ag5
ag4
aa(lp3183
g3
ag3
ag4
ag5
ag5
ag310
aa(lp3184
g20
ag3
ag4
ag5
ag382
ag4
aa(lp3185
g95
ag4
ag160
ag351
ag213
ag291
aa(lp3186
g18
ag92
ag5
ag9
a(S'musical'
I14
tp3187
ag48
aa(lp3188
g13
ag18
ag4
ag5
ag5
ag18
aa(lp3189
g697
ag3
ag115
ag890
ag663
ag75
aa(lp3190
g44
ag221
ag18
ag203
ag75
ag222
aa(lp3191
g4
ag97
ag120
ag5
ag26
ag356
aa(lp3192
g4
ag3
ag4
ag22
ag44
ag72
aa(lp3193
g4
ag221
ag1293
ag268
ag29
ag4
aa(lp3194
g44
ag4
ag250
ag5
ag215
ag45
aa(lp3195
g3
ag4
ag4
ag39
ag5
ag37
aa(lp3196
g149
ag3
ag250
ag5
ag334
ag3
aa(lp3197
g4
ag4
ag4
ag5
ag250
ag3
aa(lp3198
g481
ag23
ag34
ag5
ag15
ag3
aa(lp3199
g13
ag215
ag4
ag216
ag217
ag37
aa(lp3200
g4
ag4
ag5
ag5
ag256
ag3
aa(lp3201
g41
ag23
ag34
ag5
ag15
ag37
aa(lp3202
g4
ag4
ag4
ag595
ag5
ag356
aa(lp3203
g313
ag54
ag29
ag5
ag18
ag6
aa(lp3204
g41
ag903
ag275
ag5
ag84
ag298
aa(lp3205
g3
ag54
ag4
ag39
ag5
ag248
aa(lp3206
g233
ag39
ag55
ag5
ag284
ag3
aa(lp3207
g4
ag4
ag5
ag22
ag5
ag4
aa(lp3208
g4
ag4
ag120
ag5
ag5
ag356
aa(lp3209
g215
ag4
ag5
ag132
ag5
ag6
aa(lp3210
g271
ag97
ag5
ag9
ag41
ag250
aa(lp3211
g4
ag4
ag5
ag5
ag86
ag3
aa(lp3212
g3
ag4
ag90
ag5
ag60
ag310
aa(lp3213
g118
ag45
ag22
ag5
ag5
ag120
aa(lp3214
g4
ag4
ag4
ag5
ag834
ag3
aa(lp3215
g361
ag4
ag4
ag5
ag26
ag1975
aa(lp3216
g6
ag4
ag5
ag5
ag5
ag4
aa(lp3217
g88
ag4
ag4
ag5
ag5
a(S'atend'
I12
tp3218
aa(lp3219
g58
ag14
ag4
ag5
ag15
ag871
aa(lp3220
g4
ag37
ag5
ag132
ag5
ag356
aa(lp3221
g2116
ag37
ag107
ag5
ag18
ag1059
aa(lp3222
g151
ag4
ag996
ag39
ag1597
ag410
aa(lp3223
g26
ag48
ag4
ag5
ag23
ag75
aa(lp3224
g3
ag259
ag277
ag5
ag5
ag4
aa(lp3225
g49
ag4
ag202
ag5
ag204
ag286
aa(lp3226
g23
ag3
ag4
ag5
ag86
ag2440
aa(lp3227
g18
ag54
ag5
ag5
ag5
ag18
aa(lp3228
g3
ag4
ag5
ag5
ag39
ag48
aa(lp3229
g81
ag325
ag119
ag161
ag11
ag4
aa(lp3230
g18
ag277
ag5
ag5
ag5
ag3
aa(lp3231
g20
ag3
ag4
ag23
ag39
ag4
aa(lp3232
g3
ag4
ag4
ag39
ag5
ag41
aa(lp3233
g4
ag4
ag347
ag5
ag32
ag3
aa(lp3234
g39
ag290
ag645
ag264
ag18
ag21
aa(lp3235
g39
ag290
ag599
ag65
ag66
ag3
aa(lp3236
g41
ag97
ag1073
ag1285
ag846
ag51
aa(lp3237
g44
ag256
ag4
ag5
ag5
ag45
aa(lp3238
g697
ag3
ag15
ag403
ag41
ag3
aa(lp3239
g65
ag4
ag4
ag5
ag5
ag23
aa(lp3240
g54
ag39
ag4
ag5
ag5
ag4
aa(lp3241
g3
ag18
ag5
ag5
ag499
ag4
aa(lp3242
g3
ag54
ag4
ag5
ag244
ag310
aa(lp3243
g3
ag603
ag144
ag323
ag335
ag1290
aa(lp3244
g4
ag221
ag5
ag351
ag104
ag291
aa(lp3245
g4
ag4
ag4
ag25
ag13
ag3
aa(lp3246
g23
ag8
ag993
ag288
ag215
ag4
aa(lp3247
g298
ag539
ag4
ag454
ag5
ag97
aa(lp3248
g1774
ag290
ag29
ag5
ag60
ag18
aa(lp3249
g202
ag143
ag86
ag132
ag20
ag133
aa(lp3250
g118
ag3
ag5
ag161
ag54
ag120
aa(lp3251
g3
ag4
ag4
ag5
ag204
ag27
aa(lp3252
g4
ag18
ag4
ag93
ag5
ag4
aa(lp3253
g4
ag221
ag119
ag161
ag398
ag262
aa(lp3254
g173
ag4
ag5
ag5
ag37
ag3
aa(lp3255
g149
ag4
ag4
ag595
ag5
ag3
aa(lp3256
g151
ag4
ag4
ag103
ag18
ag3
aa(lp3257
g4
ag4
ag5
ag5
ag90
ag18
aa(lp3258
g3
ag86
ag5
ag5
ag161
ag4
aa(lp3259
g109
ag272
ag107
ag430
ag515
ag3
aa(lp3260
g4
ag82
ag4
ag5
ag5
ag3
aa(lp3261
g4
ag82
ag4
ag5
ag39
ag3
aa(lp3262
g23
ag39
ag55
ag273
ag54
ag107
aa(lp3263
g4
ag4
ag471
ag161
ag5
ag3
aa(lp3264
g149
ag39
ag4
ag5
ag892
ag3
aa(lp3265
g4
ag18
ag5
ag5
ag305
ag4
aa(lp3266
g84
ag25
ag160
ag273
ag54
ag3
aa(lp3267
g684
ag25
ag905
ag5
ag15
ag56
aa(lp3268
g4
ag14
ag4
ag297
ag29
ag4
aa(lp3269
g4
ag4
ag277
ag5
ag5
ag75
aa(lp3270
g1052
ag390
ag37
ag1254
ag1255
ag4
aa(lp3271
g95
ag4
ag77
ag5
ag215
ag37
aa(lp3272
g44
ag4
ag5
ag5
ag250
ag3
aa(lp3273
g41
ag97
ag2435
ag1216
ag122
ag179
aa(lp3274
g41
ag267
ag287
ag34
ag18
ag758
aa(lp3275
g122
ag92
ag5
ag9
ag3187
ag21
aa(lp3276
g4
ag4
ag4
ag5
ag39
ag25
aa(lp3277
g37
ag322
ag144
ag981
ag305
ag4
aa(lp3278
g20
ag3
ag4
ag5
ag18
ag4
aa(lp3279
g4
ag4
ag4
ag5
ag5
ag25
aa(lp3280
g342
ag4
ag5
ag5
ag39
ag532
aa(lp3281
g4
ag9
ag4
ag132
ag41
ag72
aa(lp3282
g3
ag8
ag624
ag5
ag515
ag3
aa(lp3283
g4
ag603
ag144
ag323
ag39
ag107
aa(lp3284
g4
ag4
ag4
ag5
ag721
ag4
aa(lp3285
g107
ag21
ag374
ag5
ag84
ag120
aa(lp3286
g4
ag4
ag471
ag5
ag5
ag4
aa(lp3287
g4
ag1226
ag5
ag132
ag256
ag3
aa(lp3288
g20
ag4
ag161
ag5
ag458
ag4
aa(lp3289
g4
ag4
ag5
ag37
ag5
ag3
aa(lp3290
g4
ag4
ag4
ag5
ag13
ag356
aa(lp3291
g4
ag4
ag277
ag5
ag5
ag4
aa(lp3292
(Vgans
I9
tp3293
ag290
ag9
ag77
ag210
ag3
aa(lp3294
g817
ag4
ag5
ag5
ag5
ag18
aa(lp3295
g41
ag2345
ag44
ag5
ag15
ag18
aa(lp3296
g3
ag670
ag606
ag79
ag5
ag3
aa(lp3297
g4
ag4
ag5
ag5
ag204
ag4
aa(lp3298
g3
ag3
ag5
ag5
ag18
ag27
aa(lp3299
g3
ag4
ag4
ag37
ag54
ag4
aa(lp3300
g26
ag4
ag4
ag5
ag23
ag75
aa(lp3301
g81
ag221
ag29
ag137
ag5
ag410
aa(lp3302
g39
ag215
ag642
ag5
ag15
ag56
aa(lp3303
g41
ag330
ag374
ag5
ag18
ag61
aa(lp3304
g593
ag14
ag4
ag152
ag153
ag3
aa(lp3305
g41
ag97
ag4
ag103
ag41
ag37
aa(lp3306
g200
ag3
ag37
ag578
ag122
ag3
aa(lp3307
g109
ag92
ag996
ag39
ag5
ag51
aa(lp3308
g6
ag4
ag4
ag5
ag5
ag3
aa(lp3309
g3
ag4
ag5
ag5
ag39
ag25
aa(lp3310
g4
ag250
ag5
ag5
ag75
ag3
aa(lp3311
g4
ag1102
ag37
ag5
ag5
ag356
aa(lp3312
g81
ag48
ag5
ag268
ag18
ag37
aa(lp3313
g3
ag4
ag5
ag5
ag5
ag26
aa(lp3314
g233
ag92
ag5
ag137
ag11
ag4
aa(lp3315
g44
ag4
ag120
ag132
ag5
ag45
aa(lp3316
g20
ag37
ag44
ag5
a(S'sagr'
I21
tp3317
ag4
aa(lp3318
g3
ag4
ag5
ag5
ag84
ag4
aa(lp3319
g4
ag39
ag4
ag5
ag5
ag4
aa(lp3320
g2227
ag962
ag473
ag474
ag18
ag37
aa(lp3321
g44
ag4
ag4
ag5
ag23
ag45
aa(lp3322
g4
ag4
ag120
ag5
ag161
ag4
aa(lp3323
g41
ag97
ag37
ag347
ag54
ag51
aa(lp3324
g3
ag4
ag86
ag132
ag20
ag3
aa(lp3325
g4
ag49
ag478
ag22
ag398
ag231
aa(lp3326
g41
ag193
ag29
ag5
ag515
ag3
aa(lp3327
g20
ag4
ag5
ag5
ag458
ag4
aa(lp3328
g2320
ag186
ag26
ag225
ag18
ag16
aa(lp3329
g4
ag4
ag135
ag5
ag11
ag4
aa(lp3330
g18
ag286
ag29
ag5
ag60
ag231
aa(lp3331
g4
ag37
ag5
ag5
ag5
ag4
aa(lp3332
g4
ag3
ag26
ag5
ag18
ag72
aa(lp3333
g44
ag4
ag4
ag132
ag5
ag45
aa(lp3334
g13
ag221
ag2422
ag161
ag75
ag26
aa(lp3335
g173
ag4
ag4
ag39
ag202
ag3
aa(lp3336
g122
ag1565
ag4
ag5
ag515
ag4
aa(lp3337
g44
ag48
ag234
ag93
ag54
ag277
aa(lp3338
g1108
ag322
ag4
ag5
ag18
ag6
aa(lp3339
g1062
ag4
ag107
ag5
ag18
ag41
aa(lp3340
g3
ag4
ag5
ag44
ag5
ag310
aa(lp3341
g200
ag48
ag160
ag578
ag122
ag3
aa(lp3342
g593
ag14
ag998
ag302
ag153
ag3
aa(lp3343
g39
ag290
ag86
ag132
ag75
ag3
aa(lp3344
g149
ag4
ag4
ag543
ag5
ag3
aa(lp3345
g3
ag4
ag5
ag5
ag161
ag3
aa(lp3346
g4
ag4
ag4
ag5
ag5
ag3
aa(lp3347
g4
ag221
ag1293
ag5
ag334
ag407
aa(lp3348
g481
ag23
ag1337
ag264
ag204
ag3
aa(lp3349
g44
ag118
ag86
ag5
ag13
ag1384
aa(lp3350
g54
ag54
ag5
ag5
ag5
ag3
aa(lp3351
g26
ag4
ag135
ag5
ag84
ag298
aa(lp3352
g4
ag4
ag5
ag5
ag5
ag107
aa(lp3353
g158
ag159
ag4
ag5
ag2222
ag4
aa(lp3354
g4
ag4
ag4
ag5
ag250
ag4
aa(lp3355
g41
ag4
ag161
ag132
ag5
ag2009
aa(lp3356
g215
ag4
ag5
ag5
ag39
ag3
aa(lp3357
g4
ag4
ag4
ag37
ag256
ag3
aa(lp3358
g3
ag37
ag5
ag132
ag5
ag4
aa(lp3359
g178
ag54
ag287
ag34
ag18
ag4
aa(lp3360
g44
ag4
ag5
ag5
ag5
ag3
aa(lp3361
g54
ag48
ag29
ag5
ag84
ag116
aa(lp3362
g37
ag167
ag4
ag39
ag1337
ag1338
aa(lp3363
g339
ag3
ag905
ag10
ag11
ag16
aa(lp3364
g2885
ag4
ag4
ag5
ag5
ag3
aa(lp3365
g4
ag4
ag5
ag5
ag84
ag3
aa(lp3366
g54
ag64
ag29
ag5
ag29
ag26
aa(lp3367
g173
ag4
ag18
ag5
ag39
ag3
aa(lp3368
g4
ag4
ag4
ag5
ag93
ag4
aa(lp3369
g151
ag4
ag4
ag103
ag153
ag3
aa(lp3370
g44
ag4
ag4
ag39
ag54
ag3
aa(lp3371
g26
ag3
ag120
ag5
ag86
ag75
aa(lp3372
g4
ag18
ag160
ag161
ag75
ag222
aa(lp3373
g4
ag82
ag885
ag33
ag1265
ag4
aa(lp3374
g4
ag39
ag4
ag5
ag250
ag3
aa(lp3375
g3
ag4
ag4
ag5
ag5
ag25
aa(lp3376
g4
ag256
ag4
ag233
ag18
ag37
aa(lp3377
g4
ag4
ag4
ag5
ag39
ag356
aa(lp3378
g26
ag4
ag86
ag39
ag5
ag75
aa(lp3379
g20
ag4
ag4
ag132
ag190
ag4
aa(lp3380
g84
ag25
ag29
ag5
ag202
ag97
aa(lp3381
g4
ag18
ag293
ag294
ag18
ag298
aa(lp3382
g41
ag4
ag160
ag1371
ag284
ag3
aa(lp3383
g20
ag86
ag161
ag5
ag5
ag4
aa(lp3384
g3
ag4
ag277
ag25
ag5
ag4
aa(lp3385
g4
ag4
ag2018
ag5
ag5
ag18
aa(lp3386
g26
ag4
ag4
ag5
ag240
ag75
aa(lp3387
g44
ag3
ag55
ag129
ag11
ag4
aa(lp3388
g23
ag215
ag144
ag323
ag204
ag23
aa(lp3389
g4
ag4
ag5
ag6
ag54
ag72
aa(lp3390
g856
ag95
ag347
ag288
ag60
ag61
aa(lp3391
g769
ag4
ag4
ag5
ag54
ag4
aa(lp3392
g26
ag4
ag37
ag5
ag54
ag75
aa(lp3393
g3
ag48
ag4
ag5
ag5
ag4
aa(lp3394
g3
ag1970
ag23
ag264
ag1053
ag4
aa(lp3395
g3
ag4
ag277
ag5
ag5
ag4
aa(lp3396
g440
ag25
ag29
ag5
ag13
ag1384
aa(lp3397
g23
ag4
ag4
ag132
ag5
ag2440
aa(lp3398
g6
ag450
ag219
ag5
ag18
ag18
aa(lp3399
g358
ag39
a(Vcuestion
I14
tp3400
ag391
ag41
ag3
aa(lp3401
g44
ag48
ag22
ag5
ag39
ag45
aa(lp3402
g4
ag4
ag90
ag5
ag5
ag3
aa(lp3403
g1062
ag4
ag4
ag5
ag5
ag41
aa(lp3404
g20
ag3
ag4
ag22
ag335
ag4
aa(lp3405
g194
ag118
ag86
ag132
ag20
ag4
aa(lp3406
g44
ag118
ag86
ag262
ag18
ag37
aa(lp3407
g282
ag4
ag4
ag5
ag23
ag6
aa(lp3408
g200
ag201
ag202
ag5
ag18
ag410
aa(lp3409
g41
ag25
ag792
ag190
ag18
ag4
aa(lp3410
g26
ag161
ag37
ag5
ag5
ag75
aa(lp3411
g342
ag124
ag21
ag161
ag75
ag1016
aa(lp3412
g202
ag277
ag5
ag5
ag23
ag4
aa(lp3413
g3
ag3126
ag202
ag203
ag204
ag18
aa(lp3414
g194
ag151
ag5
ag225
ag145
ag51
aa(lp3415
g271
ag272
ag107
ag5
ag663
ag3
aa(lp3416
g118
ag18
ag4
ag161
ag5
ag120
aa(lp3417
g3
ag54
ag4
ag25
ag5
ag26
aa(lp3418
g4
ag37
ag571
ag137
ag5
ag3
aa(lp3419
g54
ag4
ag4
ag5
ag5
ag3
aa(lp3420
g774
ag775
ag471
ag1007
ag39
ag42
aa(lp3421
g3
ag4
ag4
ag5
ag39
ag41
aa(lp3422
g3
ag25
ag4
ag161
ag5
ag310
aa(lp3423
g1246
ag277
ag478
ag22
ag5
ag51
aa(lp3424
g271
ag3
ag340
ag33
ag515
ag4
aa(lp3425
g4
ag39
ag4
ag5
ag60
ag26
aa(lp3426
g593
ag14
ag4
ag5
ag15
ag37
aa(lp3427
g41
a(S'tibi'
I10
tp3428
ag124
ag391
ag122
ag4
aa(lp3429
g54
ag4
ag5
ag264
ag5
ag4
aa(lp3430
g26
ag361
ag4
ag5
ag5
ag3
aa(lp3431
g4
ag54
ag44
ag351
ag104
ag21
aa(lp3432
g3
ag603
ag81
ag25
ag846
ag1338
aa(lp3433
g39
ag310
ag219
ag403
ag41
ag3
aa(lp3434
g18
ag3
ag115
ag161
ag18
ag179
aa(lp3435
g619
ag4
ag4
ag5
ag5
ag161
aa(lp3436
g342
ag267
ag335
ag25
ag54
ag97
aa(lp3437
g4
ag4
ag4
ag5
ag361
ag72
aa(lp3438
g4
ag48
ag5
ag22
ag5
ag18
aa(lp3439
g4
ag361
ag4
ag5
ag5
ag3
aa(lp3440
g26
ag4
ag37
ag5
ag18
ag75
aa(lp3441
g41
a(S'segui'
I56
tp3442
ag599
ag10
ag11
ag4
aa(lp3443
g4
ag221
ag792
ag1621
ag13
ag1622
aa(lp3444
g769
ag4
ag1823
ag5
ag5
ag3
aa(lp3445
(S'calm'
I13
tp3446
ag4
ag26
ag132
ag23
ag595
aa(lp3447
g39
ag290
ag9
ag5
ag15
ag3
aa(lp3448
g1108
ag4
ag5
ag161
ag5
ag6
aa(lp3449
g4
ag3
ag161
ag5
ag26
ag356
aa(lp3450
g4
ag18
ag5
ag5
ag5
ag3
aa(lp3451
g39
ag290
ag9
ag273
ag54
ag26
aa(lp3452
g384
ag48
ag996
ag39
ag5
ag331
aa(lp3453
g619
ag54
ag202
ag5
ag5
ag161
aa(lp3454
g13
ag310
ag23
ag264
ag204
ag116
aa(lp3455
g151
ag4
ag18
ag5
ag15
ag56
aa(lp3456
g3
ag4
ag5
ag132
ag18
ag27
aa(lp3457
g3
ag39
ag4
ag5
ag23
ag4
aa(lp3458
g697
ag3
ag107
ag5
ag335
ag1290
aa(lp3459
g41
ag92
ag996
ag39
ag202
ag45
aa(lp3460
g41
ag54
ag5
ag5
ag250
ag3
aa(lp3461
g44
ag37
ag44
ag351
ag104
ag231
aa(lp3462
g9
ag903
ag144
ag323
ag39
ag35
aa(lp3463
g3
ag4
ag4
ag39
ag75
ag4
aa(lp3464
g3
ag2345
ag4
ag5
ag23
ag6
aa(lp3465
g4
ag4
ag277
ag5
ag250
ag3
aa(lp3466
g4
ag9
ag4
ag474
ag5
ag26
aa(lp3467
g4
ag4
ag5
ag5
ag60
ag3
aa(lp3468
g4
ag221
ag509
ag298
ag145
ag3
aa(lp3469
g20
ag81
ag4
ag5
ag5
ag4
aa(lp3470
g4
ag4
ag29
ag5
ag5
ag26
aa(lp3471
g342
ag4
ag4
ag39
ag244
ag532
aa(lp3472
g18
ag4
ag4
ag25
ag5
ag18
aa(lp3473
g41
ag59
ag518
ag298
ag41
ag3
aa(lp3474
g149
ag18
ag4
ag22
ag5
ag3
aa(lp3475
g476
ag215
ag4
ag5
ag20
ag133
aa(lp3476
g3
ag670
ag189
ag1621
ag204
ag18
aa(lp3477
g4
ag250
ag4
ag5
ag305
ag4
aa(lp3478
g334
ag4
ag4
ag5
ag32
ag4
aa(lp3479
g54
ag181
ag4
ag216
ag75
ag161
aa(lp3480
g3
ag4
ag5
ag22
ag256
ag310
aa(lp3481
g481
ag3
ag331
ag10
ag11
ag4
aa(lp3482
g697
ag48
ag335
ag430
ag18
ag3
aa(lp3483
g4
ag4
ag86
ag5
ag5
ag356
aa(lp3484
g3
ag4
ag5
ag39
ag13
ag4
aa(lp3485
g84
ag25
ag599
ag65
ag66
ag37
aa(lp3486
g118
ag4
ag4
ag5
ag5
ag120
aa(lp3487
g4
ag18
ag168
ag37
ag74
ag4
aa(lp3488
g953
ag151
ag37
ag347
ag2295
ag2983
aa(lp3489
g4
ag277
ag5
ag5
ag18
ag4
aa(lp3490
g3
ag18
ag90
ag25
ag5
ag26
aa(lp3491
g4
ag37
ag5
ag39
ag5
ag41
aa(lp3492
g54
ag330
ag374
ag5
ag18
ag107
aa(lp3493
g81
ag92
ag5
ag5
ag18
ag45
aa(lp3494
g244
ag59
ag4
ag351
ag104
ag37
aa(lp3495
g4
ag92
ag15
ag5
ag18
ag37
aa(lp3496
g6
ag4
ag4
ag5
ag5
ag41
aa(lp3497
g4
ag4
ag5
ag5
ag39
ag25
aa(lp3498
(S'cualqu'
I11
tp3499
ag4
ag5
ag5
ag5
ag107
aa(lp3500
g3
ag37
ag4
ag5
ag522
ag310
aa(lp3501
g41
ag64
ag29
ag5
ag18
ag314
aa(lp3502
g481
ag23
ag1337
ag901
ag515
ag4
aa(lp3503
g149
ag3
ag107
ag39
ag39
ag3
aa(lp3504
g593
ag14
ag4
ag5
ag39
ag107
aa(lp3505
g3
ag4
ag5
ag5
ag1037
ag310
aa(lp3506
g41
ag82
ag119
ag217
ag5
ag51
aa(lp3507
g3
ag39
ag5
ag39
ag5
ag3
aa(lp3508
g3
ag186
ag26
ag137
ag5
ag45
aa(lp3509
g151
ag4
ag518
ag391
ag122
ag1016
aa(lp3510
g244
ag59
ag29
ag273
ag54
ag161
aa(lp3511
g118
ag4
ag4
ag5
ag26
ag120
aa(lp3512
g173
ag2773
ag4
ag39
ag5
ag3
aa(lp3513
g200
ag4
ag18
ag294
ag5
ag51
aa(lp3514
g4
ag256
ag4
ag384
ag388
ag291
aa(lp3515
g4
ag4
ag4
ag5
ag13
ag4
aa(lp3516
g3
ag4
ag5
ag118
ag250
ag3
aa(lp3517
g3
ag1970
ag183
ag5
ag15
ag56
aa(lp3518
g54
ag25
ag5
ag5
ag5
ag2541
aa(lp3519
g39
ag201
ag202
ag5
ag84
ag107
aa(lp3520
g4
ag82
ag571
ag962
ag398
ag56
aa(lp3521
g342
ag102
ag4
ag65
ag66
ag97
aa(lp3522
g4
ag54
ag4
ag5
ag5
ag25
aa(lp3523
g26
ag327
ag335
ag430
ag515
ag37
aa(lp3524
g165
ag95
ag331
ag137
ag5
ag51
aa(lp3525
g4
ag4
ag160
ag578
ag122
ag51
aa(lp3526
g3
ag4
ag4
ag22
ag21
ag27
aa(lp3527
g4
ag48
ag22
ag5
ag5
ag72
aa(lp3528
g84
ag4
ag18
ag203
ag663
ag4
aa(lp3529
g4
ag3
ag277
ag5
ag39
ag72
aa(lp3530
g2320
ag186
ag26
ag5
ag66
ag3
aa(lp3531
g65
ag267
ag792
ag190
ag11
ag26
aa(lp3532
g41
ag3
ag29
ag5
ag60
ag18
aa(lp3533
g440
ag25
ag4
ag981
ag41
ag4
aa(lp3534
g923
ag21
ag606
ag34
ag18
ag37
aa(lp3535
g107
ag18
ag5
ag5
ag5
ag110
aa(lp3536
g109
ag436
ag5
ag225
ag5
ag51
aa(lp3537
g54
ag161
ag599
ag5
ag18
ag51
aa(lp3538
g120
ag3
ag248
ag132
ag18
ag924
aa(lp3539
g39
ag4
ag4
ag5
ag161
ag3
aa(lp3540
g41
ag290
ag23
ag264
ag204
ag560
aa(lp3541
g3
ag4
ag37
ag5
ag204
ag310
aa(lp3542
g3
ag4
ag4
ag5
ag5
ag48
aa(lp3543
g41
ag97
ag1228
ag273
ag54
ag107
aa(lp3544
g3
ag1381
ag4
ag5
ag5
ag3
aa(lp3545
g3
ag4
ag4
ag65
ag5
ag23
aa(lp3546
g26
ag327
ag160
ag351
ag145
ag231
aa(lp3547
g560
ag3
ag4
ag216
ag5
ag51
aa(lp3548
g41
ag3
ag18
ag454
ag5
ag41
aa(lp3549
g173
ag4
ag120
ag5
ag26
ag3
aa(lp3550
g4
ag259
ag4
ag5
ag39
ag3
aa(lp3551
g3
ag18
ag4
ag5
ag5
ag107
aa(lp3552
g4
ag4
ag4
ag5
ag32
ag4
aa(lp3553
g4
ag221
ag1293
ag268
ag75
ag222
aa(lp3554
g4
ag4
ag4
ag22
ag5
ag23
aa(lp3555
g3
ag18
ag5
ag39
ag5
ag37
aa(lp3556
g13
ag4
ag5
ag5
ag39
ag4
aa(lp3557
g26
ag3
ag4
ag2195
ag5
ag75
aa(lp3558
g4
ag48
ag5
ag5
ag5
ag4
aa(lp3559
g4
ag4
ag4
ag5
ag86
ag4
aa(lp3560
g26
ag32
ag5
ag5
ag5
ag75
aa(lp3561
g4
ag4
ag4
ag39
ag5
ag41
aa(lp3562
g941
ag4
ag248
ag132
ag5
ag37
aa(lp3563
g173
ag4
ag4
ag5
ag13
ag3
aa(lp3564
g560
ag4
ag996
ag39
ag202
ag45
aa(lp3565
g107
ag4
ag135
ag65
ag66
ag97
aa(lp3566
g4
ag59
ag4
ag103
ag11
ag4
aa(lp3567
g26
ag4
ag4
ag5
ag66
ag75
aa(lp3568
g65
ag4
ag4
ag5
ag5
ag4
aa(lp3569
g13
ag54
ag4
ag5
ag54
ag41
aa(lp3570
g2911
ag4
ag18
ag203
ag663
ag4
aa(lp3571
g231
ag4
ag4
ag5
ag161
ag3
aa(lp3572
g173
ag39
ag4
ag5
ag93
ag3
aa(lp3573
g39
ag436
ag5
ag225
ag5
ag51
aa(lp3574
g118
ag4
ag4
ag132
ag18
ag120
aa(lp3575
g149
ag1777
ag86
ag5
ag5
ag3
aa(lp3576
g165
ag215
ag5
ag9
ag225
ag492
aa(lp3577
g173
ag3
ag5
ag6
ag39
ag3
aa(lp3578
g4
ag4
ag37
ag118
ag54
ag4
aa(lp3579
g4
ag4
ag1823
ag5
ag5
ag4
aa(lp3580
g18
ag4
ag4
ag39
ag5
ag3
aa(lp3581
g41
ag4
ag4
ag5
ag161
ag3
aa(lp3582
g422
ag4
ag4
ag5
ag5
ag161
aa(lp3583
g4
ag4
ag4
ag5
ag18
ag3
aa(lp3584
g26
ag4
ag161
ag5
ag5
ag75
aa(lp3585
g149
ag3
ag4
ag5
ag86
ag3
aa(lp3586
g44
ag37
ag4
ag22
ag41
ag45
aa(lp3587
g13
ag267
ag792
ag5
ag18
ag6
aa(lp3588
g653
ag436
ag5
ag323
ag39
ag4
aa(lp3589
g4
ag4
ag4
ag39
ag54
ag4
aa(lp3590
g3
ag4
ag4
ag5
ag5
ag18
aa(lp3591
g3
ag4
ag4
ag39
ag86
ag4
aa(lp3592
g149
ag18
ag277
ag5
ag5
ag3
aa(lp3593
g44
ag4
ag26
ag5
ag26
ag45
aa(lp3594
g3
ag4
ag4
ag39
ag5
ag4
aa(lp3595
g4
ag86
ag4
ag5
ag13
ag23
aa(lp3596
g3
ag18
ag37
ag132
ag5
ag4
aa(lp3597
g18
ag4
ag4
ag132
ag5
ag3
aa(lp3598
g118
ag3
ag4
ag5
ag5
ag120
aa(lp3599
g368
ag4
ag115
ag99
ag100
ag37
aa(lp3600
g3
ag4
ag4
ag132
ag5
ag27
aa(lp3601
g334
ag4
ag4
ag5
ag5
ag4
aa(lp3602
g1536
ag290
ag9
ag890
ag2899
ag37
aa(lp3603
g79
ag4
ag86
ag132
ag20
ag133
aa(lp3604
g18
ag102
ag18
ag672
ag5
ag51
aa(lp3605
g3
ag48
ag5
ag132
ag5
ag18
aa(lp3606
g39
ag330
ag331
ag137
ag515
ag3
aa(lp3607
g173
ag3
ag4
ag5
ag39
ag3
aa(lp3608
g4
ag259
ag4
ag5
ag5
ag4
aa(lp3609
g23
ag215
ag86
ag384
ag2278
ag4
aa(lp3610
g39
ag290
ag9
ag268
ag13
ag4
aa(lp3611
g194
ag118
ag86
ag132
ag5
ag51
aa(lp3612
g173
ag4
ag26
ag132
ag202
ag3
aa(lp3613
g44
ag118
ag86
ag203
ag75
ag222
aa(lp3614
g32
ag267
ag473
ag10
ag18
ag37
aa(lp3615
g26
ag32
ag22
ag5
ag39
ag75
aa(lp3616
g149
ag4
ag22
ag5
ag23
ag3
aa(lp3617
g6
ag450
ag202
ag430
ag122
ag51
aa(lp3618
g3
ag4
ag4
ag65
ag5
ag18
aa(lp3619
g95
ag4
ag44
ag351
ag122
ag3
aa(lp3620
g18
ag286
ag189
ag137
ag5
ag97
aa(lp3621
g358
ag39
ag478
ag22
ag146
ag18
aa(lp3622
g39
ag18
ag4
ag5
ag93
ag4
aa(lp3623
g41
ag124
ag4
ag5
ag335
ag1290
aa(lp3624
g65
ag4
ag5
ag5
ag5
ag4
aa(lp3625
g3
ag4
ag4
ag5
ag834
ag3
aa(lp3626
g4
ag4
ag4
ag5
ag202
ag72
aa(lp3627
g26
ag4
ag21
ag5
ag5
ag75
aa(lp3628
g6
ag4
ag5
ag132
ag5
ag4
aa(lp3629
g3
ag4
ag5
ag5
ag803
ag3
aa(lp3630
g84
ag25
ag9
ag40
ag770
ag51
aa(lp3631
g3
ag4
ag5
ag39
ag5
ag3
aa(lp3632
g1040
ag290
ag9
ag672
ag5
ag45
aa(lp3633
g4
ag82
ag2957
ag595
ag5
ag97
aa(lp3634
g1774
ag1565
ag4
ag5
ag153
ag3
aa(lp3635
g4
ag4
ag5
ag132
ag256
ag3
aa(lp3636
g13
ag14
ag4
ag5
ag15
ag56
aa(lp3637
g3
ag4
ag272
ag5
ag122
ag3
aa(lp3638
g4
ag66
ag4
ag5
ag5
ag356
aa(lp3639
g26
ag4
ag161
ag5
ag18
ag75
aa(lp3640
g4
ag4
ag4
ag37
ag5
ag4
aa(lp3641
g20
ag4
ag4
ag5
ag917
ag4
aa(lp3642
g122
ag92
ag5
ag137
ag291
ag3
aa(lp3643
g173
ag32
ag5
ag5
ag41
ag3
aa(lp3644
g18
ag37
ag4
ag5
ag5
ag4
aa(lp3645
g3
ag4
ag5
ag264
ag5
ag4
aa(lp3646
g560
ag561
ag86
ag203
ag18
ag16
aa(lp3647
g151
ag4
ag18
ag216
ag388
ag133
aa(lp3648
g6
ag4
ag5
ag5
ag90
ag4
aa(lp3649
g20
ag3
ag161
ag132
ag5
ag4
aa(lp3650
g3
ag18
ag5
ag5
ag13
ag3
aa(lp3651
g3
ag54
ag18
ag5
ag5
ag37
aa(lp3652
g4
ag4
ag18
ag5
ag499
ag37
aa(lp3653
g41
ag215
ag5
ag9
ag225
ag56
aa(lp3654
g3
ag4
ag18
ag5
ag90
ag3
aa(lp3655
g20
ag4
ag4
ag5
ag240
ag4
aa(lp3656
g1021
ag45
ag1446
ag792
ag18
ag37
aa(lp3657
g313
ag286
ag287
ag34
ag18
ag4
aa(lp3658
g3
ag39
ag4
ag5
ag32
ag4
aa(lp3659
g305
ag4
ag4
ag5
ag5
a(Vluc
I14
tp3660
aa(lp3661
g1021
a(S'hart'
I11
tp3662
ag478
ag22
ag75
ag18
aa(lp3663
g3
ag4
ag120
ag5
ag39
ag4
aa(lp3664
g4
ag4
ag23
ag264
ag1053
ag4
aa(lp3665
g4
ag3
ag4
ag75
ag5
ag356
aa(lp3666
g18
ag4
ag4
ag5
ag75
ag4
aa(lp3667
g39
ag1565
ag4
ag5
ag15
ag75
aa(lp3668
g41
ag97
ag331
ag832
ag269
ag4
aa(lp3669
g386
ag387
ag4
ag5
ag75
ag222
aa(lp3670
g149
ag4
ag248
ag6
ag54
ag3
aa(lp3671
g4
ag4
ag4
ag39
ag5
ag26
aa(lp3672
g4
ag3
ag5
ag412
ag26
ag72
aa(lp3673
g23
ag97
ag3400
ag65
ag75
ag1016
aa(lp3674
g178
ag4
ag473
ag5
ag18
ag37
aa(lp3675
g3
ag4
ag4
ag5
ag93
ag4
aa(lp3676
g32
ag290
ag9
ag40
ag39
ag23
aa(lp3677
g215
ag4
ag4
ag5
ag161
ag3
aa(lp3678
g856
ag97
ag219
ag403
ag41
ag42
aa(lp3679
g41
ag54
ag4
ag5
ag204
ag3
aa(lp3680
g3
ag4
ag44
ag5
ag5
ag310
aa(lp3681
g3
ag18
ag4
ag5
ag39
ag4
aa(lp3682
g4
ag4
ag4
ag22
ag44
ag72
aa(lp3683
g4
ag4
ag4
ag5
ag93
ag41
aa(lp3684
g305
ag4
ag120
ag5
ag5
ag3660
aa(lp3685
g3
ag4
ag4
ag5
ag5
ag248
aa(lp3686
g26
ag4
ag4
ag22
ag39
ag3
aa(lp3687
g4
ag4
ag120
ag5
ag18
ag3
aa(lp3688
g3
ag4
ag4
ag5
ag2124
ag4
aa(lp3689
g122
ag92
ag5
ag9
ag66
ag97
aa(lp3690
g384
ag102
ag18
ag672
ag54
ag120
aa(lp3691
g899
ag900
ag18
ag203
ag663
ag3
aa(lp3692
g41
ag167
ag287
ag34
ag54
ag107
aa(lp3693
g4
ag82
ag77
ag137
ag291
ag4
aa(lp3694
g4
ag39
ag4
ag5
ag161
ag4
aa(lp3695
g151
ag4
ag4
ag578
ag122
ag3
aa(lp3696
g4
ag37
ag4
ag5
ag18
ag3
aa(lp3697
g4
ag4
ag23
a(S'asinti'
I10
tp3698
ag5
ag72
aa(lp3699
g200
ag124
ag343
ag5
ag75
ag222
aa(lp3700
g41
ag14
ag18
ag672
ag5
ag26
aa(lp3701
g54
ag23
ag18
ag132
ag75
ag222
aa(lp3702
g821
ag822
ag374
ag92
ag11
ag4
aa(lp3703
g4
ag4
ag5
ag5
ag161
ag4
aa(lp3704
g122
ag864
ag347
ag225
ag145
ag26
aa(lp3705
g41
ag4
ag202
ag39
ag5
ag4
aa(lp3706
g20
ag4
ag4
ag132
ag44
ag4
aa(lp3707
g642
ag14
ag160
ag5
ag84
ag298
aa(lp3708
g3
ag4
ag4
ag5
ag5
ag29
aa(lp3709
g358
ag39
ag55
ag5
ag202
ag45
aa(lp3710
g81
ag4
ag135
ag264
ag5
ag51
aa(lp3711
g4
ag18
ag124
ag152
ag18
ag1016
aa(lp3712
g41
ag97
ag219
ag5
ag18
ag75
aa(lp3713
g158
ag1954
ag77
ag2534
a(Vojo
I21
tp3714
ag75
aa(lp3715
g54
ag4
ag4
ag5
ag5
ag26
aa(lp3716
g3
ag37
ag4
ag5
ag5
ag4
aa(lp3717
g3
ag54
ag18
ag5
ag5
ag3
aa(lp3718
g3
ag221
ag29
ag5
ag515
ag3
aa(lp3719
g20
ag4
ag120
ag6
ag5
ag4
aa(lp3720
g20
ag4
ag5
ag5
ag5
ag4
aa(lp3721
g32
ag167
ag168
ag5
ag18
ag37
aa(lp3722
g3
ag3
ag4
ag44
ag54
ag27
aa(lp3723
g358
ag39
ag115
ag161
ag18
ag37
aa(lp3724
g95
ag290
ag599
ag65
ag66
ag6
aa(lp3725
g149
ag4
ag4
ag5
ag39
ag3
aa(lp3726
g44
ag4
ag4
ag39
ag5
ag45
aa(lp3727
g44
ag3
ag4
ag5
a(S'haci'
I188
tp3728
ag45
aa(lp3729
g3
ag86
ag4
ag5
ag250
ag3
aa(lp3730
g3
ag3
ag4
ag5
a(Vprocedent
I20
tp3731
ag27
aa(lp3732
g339
ag4
ag160
ag578
ag2222
ag365
aa(lp3733
g13
ag277
ag275
ag5
ag412
ag37
aa(lp3734
g13
ag775
ag522
ag5
ag41
ag75
aa(lp3735
g54
ag330
ag374
ag5
ag13
ag42
aa(lp3736
(S'emper'
I58
tp3737
ag617
ag23
ag264
ag122
ag75
aa(lp3738
g41
ag37
ag4
ag5
ag5
ag1271
aa(lp3739
g202
ag277
ag5
ag5
ag39
ag3
aa(lp3740
g75
ag2464
ag599
ag39
ag5
ag56
aa(lp3741
g39
ag48
ag287
ag34
ag204
ag18
aa(lp3742
g26
ag478
ag4
ag22
ag18
ag75
aa(lp3743
g4
ag277
ag4
ag5
ag5
ag4
aa(lp3744
g3
ag4
ag18
ag5
ag204
ag4
aa(lp3745
g3
ag4
ag5
ag5
ag5
ag310
aa(lp3746
g54
ag92
ag5
ag9
ag18
ag37
aa(lp3747
g3
ag86
ag4
ag37
ag5
ag18
aa(lp3748
g149
ag4
ag4
ag5
ag37
ag3
aa(lp3749
g107
ag1132
ag219
ag137
ag5
ag26
aa(lp3750
g4
ag4
ag160
ag5
ag153
ag3
aa(lp3751
g3
ag18
ag4
ag5
ag5
ag4
aa(lp3752
g149
ag4
ag4
ag25
ag1509
ag3
aa(lp3753
g3
ag4
ag4
ag5
ag90
ag27
aa(lp3754
g6
ag97
ag18
ag454
ag18
ag37
aa(lp3755
g149
ag4
ag4
ag5
ag54
ag3
aa(lp3756
g4
ag3
ag4
ag39
ag5
ag72
aa(lp3757
g313
ag14
ag4
ag5
ag215
ag97
aa(lp3758
g4
ag4
ag5
ag5
ag5
ag37
aa(lp3759
g665
ag201
ag905
ag10
ag122
ag3
aa(lp3760
g79
ag4
ag160
ag578
ag122
ag3
aa(lp3761
g192
ag14
ag4
ag5
ag153
ag35
aa(lp3762
g41
ag64
ag29
ag5
ag18
ag871
aa(lp3763
g39
ag267
ag37
ag347
ag202
ag291
aa(lp3764
g4
ag221
ag1293
ag9
ag122
ag120
aa(lp3765
g3
ag1889
ag4
ag5
ag18
ag3
aa(lp3766
g4
ag9
ag518
ag65
ag194
ag195
aa(lp3767
g84
ag25
ag645
ag190
ag11
ag97
aa(lp3768
g39
ag259
ag29
ag137
ag5
ag410
aa(lp3769
g4
ag39
ag4
ag5
ag5
ag26
aa(lp3770
g173
ag4
ag4
ag22
ag458
ag3
aa(lp3771
g4
ag221
ag958
ag10
ag229
ag3
aa(lp3772
g4
ag250
ag4
ag39
ag5
ag3
aa(lp3773
g41
ag330
ag374
ag5
ag145
ag37
aa(lp3774
g3
ag4
ag4
ag5
ag334
ag310
aa(lp3775
g6
ag450
ag202
ag398
ag145
ag231
aa(lp3776
g819
ag215
ag4
ag5
ag15
ag107
aa(lp3777
g23
ag201
ag202
ag225
ag145
ag231
aa(lp3778
g386
ag14
ag4
ag5
ag5
ag97
aa(lp3779
g4
ag82
ag885
ag5
ag15
ag18
aa(lp3780
g44
ag4
ag22
ag5
ag5
ag45
aa(lp3781
g342
ag102
ag293
ag294
ag5
ag4
aa(lp3782
g3
ag4
ag4
ag39
ag5
ag23
aa(lp3783
g4
ag1730
ag5
ag5
ag5
ag3
aa(lp3784
g4
ag3
ag4
ag5
ag18
ag72
aa(lp3785
g37
ag14
ag4
ag5
ag60
ag61
aa(lp3786
g4
ag260
ag4
ag5
ag388
ag4
aa(lp3787
g358
ag39
ag55
ag37
ag84
ag573
aa(lp3788
g342
ag102
ag4
ag103
ag803
ag4
aa(lp3789
g41
ag272
ag107
ag5
ag125
ag37
aa(lp3790
g54
ag221
ag18
ag132
ag20
ag26
aa(lp3791
g358
ag45
ag728
ag496
ag11
ag4
aa(lp3792
g4
ag39
ag4
ag6
ag361
ag356
aa(lp3793
g4
ag215
ag642
ag161
ag75
ag107
aa(lp3794
g4
ag143
ag998
ag302
ag122
ag3
aa(lp3795
g3
ag4
ag4
ag5
ag18
ag25
aa(lp3796
g476
ag267
ag18
ag5
ag515
ag3
aa(lp3797
g54
ag2121
ag2122
ag273
ag54
ag26
aa(lp3798
g697
ag3
ag37
ag347
ag2295
ag51
aa(lp3799
g4
ag39
ag5
ag5
ag18
ag3
aa(lp3800
g13
ag221
ag2422
ag504
ag29
ag26
aa(lp3801
g13
ag267
ag792
ag8
ag213
ag291
aa(lp3802
g3
ag161
ag599
ag65
ag66
ag37
aa(lp3803
g4
ag1226
ag5
ag132
ag5
ag3
aa(lp3804
g4
ag4
ag4
ag132
ag5
ag4
aa(lp3805
g20
ag4
ag4
ag132
ag5
ag4
aa(lp3806
g26
ag221
ag492
ag1381
ag18
ag97
aa(lp3807
g4
ag1536
ag5
ag5
ag5
ag3
aa(lp3808
g368
ag369
ag18
ag5
ag582
ag97
aa(lp3809
g32
ag33
ag4
ag796
ag5
ag51
aa(lp3810
g3
ag54
ag4
ag25
ag5
ag3
aa(lp3811
g20
ag4
ag4
ag5
ag39
ag4
aa(lp3812
g173
ag4
ag23
ag5
ag5
ag3
aa(lp3813
g41
ag387
ag4
ag1679
ag29
ag26
aa(lp3814
g120
ag1536
ag4
ag5
ag5
ag4
aa(lp3815
g13
ag33
ag4
ag217
ag215
ag18
aa(lp3816
g725
ag1889
ag29
ag403
ag41
ag42
aa(lp3817
g560
ag229
ag293
ag294
ag18
ag3
aa(lp3818
g39
ag4
ag4
ag5
ag60
ag293
aa(lp3819
g41
ag4
ag4
ag5
ag122
ag3
aa(lp3820
g4
ag1954
ag77
ag5
ag18
ag1059
aa(lp3821
g3
ag4
ag4
ag65
ag5
ag3
aa(lp3822
g18
ag39
ag55
ag203
ag663
ag4
aa(lp3823
g435
ag436
ag5
ag347
ag145
ag231
aa(lp3824
g95
ag4
ag160
ag5
ag18
ag37
aa(lp3825
g4
ag37
ag4
ag5
ag18
ag72
aa(lp3826
g3
ag4
ag5
ag5
ag32
ag3
aa(lp3827
g109
ag3
ag5
ag5
ag5
ag808
aa(lp3828
g358
ag39
ag1453
ag1679
ag11
ag4
aa(lp3829
g39
ag290
ag599
ag5
ag84
ag298
aa(lp3830
g3
ag39
ag4
ag5
ag5
ag6
aa(lp3831
g54
ag4
ag5
ag132
ag233
ag2541
aa(lp3832
g4
ag49
ag993
ag398
ag74
ag54
aa(lp3833
g26
ag4
ag4
ag5
ag26
ag75
aa(lp3834
g41
ag900
ag5
ag225
ag846
ag1374
aa(lp3835
g54
ag4
ag4
ag5
ag18
ag3
aa(lp3836
g54
ag4
ag49
ag288
ag215
ag4
aa(lp3837
g680
ag3
ag115
ag5
ag2755
ag262
aa(lp3838
g26
ag18
ag4
ag5
ag5
ag4
aa(lp3839
g593
ag14
ag4
ag5
ag41
ag42
aa(lp3840
g41
ag617
ag4
ag5
ag213
ag18
aa(lp3841
g3
ag4
ag4
ag5
ag32
ag3
aa(lp3842
g4
ag3
ag4
ag5
ag361
ag356
aa(lp3843
g4
ag361
ag5
ag5
ag803
ag3
aa(lp3844
g20
ag3
ag4
ag23
ag5
ag4
aa(lp3845
g4
ag18
ag4
ag5
ag5
ag29
aa(lp3846
g1040
ag290
ag9
ag672
ag146
ag21
aa(lp3847
(Vconvirti
I31
tp3848
ag4
ag4
ag132
ag5
ag23
aa(lp3849
g3
ag4
ag23
ag5
ag204
ag310
aa(lp3850
g774
ag775
ag998
ag430
ag515
ag3
aa(lp3851
g3
ag18
ag5
ag5
ag13
ag4
aa(lp3852
g39
ag48
ag234
ag1254
ag5
ag159
aa(lp3853
g4
ag4
ag26
ag5
ag5
ag356
aa(lp3854
g13
ag4
ag4
ag5
ag39
ag1172
aa(lp3855
g188
ag277
ag18
ag672
ag5
ag56
aa(lp3856
g44
ag14
ag374
ag5
ag60
ag222
aa(lp3857
g44
ag25
ag937
ag430
ag448
ag4
aa(lp3858
g3
ag3
ag23
ag39
ag202
ag310
aa(lp3859
g41
ag3442
ag599
ag10
ag11
ag37
aa(lp3860
g107
ag1132
ag23
ag5
ag18
ag37
aa(lp3861
g4
ag1536
ag18
ag5
ag5
ag48
aa(lp3862
g6
ag18
ag4
ag5
ag5
ag3
aa(lp3863
g44
ag48
ag234
ag235
ag236
ag37
aa(lp3864
g23
ag201
ag202
ag430
ag75
ag222
aa(lp3865
g4
ag59
ag5
ag40
ag122
ag75
aa(lp3866
g4
ag167
ag23
ag264
ag291
ag4
aa(lp3867
g3
ag54
ag5
ag5
ag161
ag3
aa(lp3868
g3
ag32
ag23
ag5
ag5
ag310
aa(lp3869
g244
ag59
ag29
ag962
ag18
ag37
aa(lp3870
g4
ag4
ag5
ag48
ag5
ag356
aa(lp3871
g4
ag221
ag29
ag137
ag18
ag37
aa(lp3872
g3
ag8
ag624
ag216
ag75
ag1016
aa(lp3873
g26
ag161
ag256
ag5
ag5
ag75
aa(lp3874
g41
ag82
ag119
ag504
ag204
ag18
aa(lp3875
g1021
ag45
ag4
ag216
ag75
ag37
aa(lp3876
g4
ag4
ag4
ag5
ag13
ag3
aa(lp3877
g32
ag4
ag26
ag10
ag11
ag26
aa(lp3878
g165
ag127
ag4
ag264
ag204
ag18
aa(lp3879
g769
ag4
ag5
ag5
ag23
ag4
aa(lp3880
g3
ag39
ag4
ag5
ag5
ag3
aa(lp3881
g3737
ag617
ag23
ag5
ag803
ag18
aa(lp3882
g3
ag4
ag4
ag6
ag1192
ag310
aa(lp3883
g4
ag48
ag4
ag5
ag161
ag3
aa(lp3884
g4
ag48
ag161
ag5
ag26
ag72
aa(lp3885
g173
ag4
ag5
ag5
ag215
ag3
aa(lp3886
g4
ag1536
ag4
ag5
ag5
ag41
aa(lp3887
g339
ag118
ag1228
ag273
ag54
ag107
aa(lp3888
g3
ag3
ag471
ag5
ag5
ag27
aa(lp3889
g4
ag4
ag4
ag39
ag5
ag3
aa(lp3890
g173
ag398
ag4
ag5
ag39
ag3
aa(lp3891
g4
ag33
ag44
ag60
ag1597
ag3
aa(lp3892
g4
ag82
ag4
ag8
ag153
ag37
aa(lp3893
g3
ag3
ag599
ag65
ag66
ag37
aa(lp3894
g4
ag4
ag4
ag5
ag5
ag120
aa(lp3895
g3
ag267
ag335
ag25
ag198
ag41
aa(lp3896
g412
ag97
ag77
ag268
ag364
ag37
aa(lp3897
g3
ag4
ag4
ag39
ag458
ag27
aa(lp3898
g3
ag256
ag4
ag65
ag5
ag18
aa(lp3899
g440
ag25
ag4
ag203
ag66
ag97
aa(lp3900
g273
ag4
ag4
ag93
ag5
ag4
aa(lp3901
g4
ag18
ag168
ag37
ag74
ag21
aa(lp3902
g4
ag4
ag4
ag5
ag18
ag72
aa(lp3903
g4
ag361
ag4
ag323
ag5
ag4
aa(lp3904
g3
ag3
ag107
ag5
ag5
ag310
aa(lp3905
g4
ag3
ag5
ag5
ag361
ag72
aa(lp3906
g4
ag82
ag4
ag5
ag5
ag4
aa(lp3907
g3
ag18
ag5
ag5
ag32
ag3
aa(lp3908
g233
ag450
ag792
ag190
ag11
ag159
aa(lp3909
g2077
ag864
ag119
ag5
ag1053
ag35
aa(lp3910
g4
ag54
ag4
ag25
ag5
ag72
aa(lp3911
g3
ag18
ag4
ag5
ag18
ag3
aa(lp3912
g41
ag18
ag5
ag5
ag39
ag3
aa(lp3913
g358
ag310
ag23
ag264
ag5
ag51
aa(lp3914
g151
ag92
ag5
ag268
ag122
ag4
aa(lp3915
g206
ag207
ag29
ag5
ag75
ag56
aa(lp3916
g4
ag670
ag275
ag77
ag54
ag26
aa(lp3917
g81
ag37
ag571
ag962
ag398
ag1016
aa(lp3918
g41
ag2121
ag21
ag161
ag75
ag1016
aa(lp3919
g4
ag4
ag4
ag5
ag39
ag41
aa(lp3920
g3
ag54
ag65
ag5
ag5
ag3
aa(lp3921
g44
ag4
ag5
ag5
ag5
ag4
aa(lp3922
g4
ag4
ag18
ag132
ag26
ag356
aa(lp3923
g4
ag3
ag5
ag5
ag5
ag72
aa(lp3924
g39
ag151
ag996
ag65
ag66
ag3
aa(lp3925
g3
ag259
ag2545
ag264
ag18
ag1622
aa(lp3926
g18
ag4
ag4
ag5
ag32
ag4
aa(lp3927
g81
ag64
ag29
ag264
ag204
ag18
aa(lp3928
g435
ag92
ag5
ag297
ag29
ag26
aa(lp3929
g3
ag4
ag4
ag132
ag5
ag4
aa(lp3930
g339
ag3
ag340
ag161
ag75
ag97
aa(lp3931
g202
ag175
ag4
ag5
ag215
ag37
aa(lp3932
g233
ag167
ag599
ag65
ag18
ag37
aa(lp3933
g4
ag4
ag107
ag132
ag5
ag4
aa(lp3934
g4
ag59
ag518
ag5
ag13
ag222
aa(lp3935
g6
ag4
ag4
ag39
ag5
ag4
aa(lp3936
g4
ag1889
ag4
ag5
ag18
ag75
aa(lp3937
g233
ag167
ag599
ag65
ag18
ag107
aa(lp3938
g39
ag290
ag645
ag264
ag18
ag573
aa(lp3939
g26
ag21
ag18
ag5
ag13
ag75
aa(lp3940
g81
ag48
ag18
ag5
ag153
ag3
aa(lp3941
g717
ag93
ag119
ag161
ag18
ag37
aa(lp3942
g560
ag229
ag293
ag294
ag122
ag3
aa(lp3943
g4
ag92
ag4
ag203
ag663
ag16
aa(lp3944
g3
ag4
ag18
ag5
ag23
ag3
aa(lp3945
g3
ag18
ag4
ag5
ag161
ag4
aa(lp3946
g953
ag151
ag18
ag5
ag15
ag56
aa(lp3947
g81
ag92
ag160
ag103
ag18
ag37
aa(lp3948
g26
ag4
ag5
ag5
ag5
ag4
aa(lp3949
g9
ag4
ag26
ag132
ag5
ag958
aa(lp3950
g4
ag4
ag5
ag5
ag5
ag4
aa(lp3951
g3
ag18
ag4
ag233
ag18
ag37
aa(lp3952
g20
ag86
ag26
ag5
ag5
ag4
aa(lp3953
g118
ag4
ag65
ag5
ag5
ag120
aa(lp3954
g3
ag1228
ag29
ag5
ag18
ag37
aa(lp3955
g3
ag4
ag5
ag5
ag5
ag120
aa(lp3956
g173
ag4
ag4
ag90
ag5
ag3
aa(lp3957
g18
ag4
ag5
ag5
ag5
ag41
aa(lp3958
g4
ag82
ag2957
ag209
ag229
ag3
aa(lp3959
g44
ag259
ag23
ag264
ag204
ag35
aa(lp3960
g4
ag4
ag107
ag132
ag86
ag3
aa(lp3961
g39
ag290
ag234
ag93
ag54
ag56
aa(lp3962
g54
ag310
ag5
ag137
ag291
ag4
aa(lp3963
g13
ag33
ag4
ag217
ag215
ag179
aa(lp3964
g4
ag175
ag77
ag137
ag5
ag97
aa(lp3965
g4
ag221
ag124
ag209
ag269
ag75
aa(lp3966
g39
ag4
ag5
ag22
ag23
ag293
aa(lp3967
g4
ag4
ag4
ag25
ag5
ag72
aa(lp3968
g3
ag86
ag4
ag5
ag161
ag3
aa(lp3969
g1738
ag14
ag4
ag297
ag204
ag18
aa(lp3970
g4
ag4
ag135
ag37
ag448
ag41
aa(lp3971
g41
ag54
ag4
ag25
ag5
ag3
aa(lp3972
g3
ag4
ag277
ag5
ag5
ag27
aa(lp3973
g4
ag4
ag5
ag132
ag161
ag3
aa(lp3974
g41
ag684
ag219
ag10
ag11
ag4
aa(lp3975
g158
ag1954
ag4
ag5
ag15
ag3
aa(lp3976
g90
ag3428
ag1058
ag137
ag204
ag18
aa(lp3977
g694
ag310
ag9
ag40
ag770
ag51
aa(lp3978
g3
ag221
ag49
ag124
ag1661
ag23
aa(lp3979
g215
ag4
ag4
ag5
ag5
ag18
aa(lp3980
g65
ag4
ag5
ag5
ag5
ag3
aa(lp3981
g4
ag3
ag65
ag5
ag39
ag72
aa(lp3982
g3
ag4
ag4
ag22
ag250
ag3
aa(lp3983
g44
ag54
ag5
ag132
ag60
ag45
aa(lp3984
g81
ag1855
ag219
ag403
ag334
ag407
aa(lp3985
g412
ag97
ag4
ag5
ag15
ag3
aa(lp3986
g653
ag4
ag135
ag5
ag84
ag107
aa(lp3987
g4
ag1536
ag4
ag5
ag5
ag4
aa(lp3988
g200
ag201
ag3127
ag5
ag60
ag61
aa(lp3989
g37
ag4
ag4
ag5
ag145
ag231
aa(lp3990
g2885
ag4
ag5
ag118
ag54
ag3
aa(lp3991
g4
ag4
ag4
ag5
ag5
ag23
aa(lp3992
g4
ag215
ag4
ag216
ag217
ag51
aa(lp3993
g41
ag3
ag49
ag145
ag146
ag18
aa(lp3994
g54
ag181
ag182
ag161
ag29
ag41
aa(lp3995
g358
ag39
ag55
ag5
ag60
ag37
aa(lp3996
g856
ag37
ag571
ag962
ag398
ag1016
aa(lp3997
g39
ag290
ag9
ag40
ag204
ag250
aa(lp3998
g3
ag4
ag4
ag37
ag5
ag18
aa(lp3999
g4
ag82
ag234
ag273
ag5
ag51
aa(lp4000
g4
ag4
ag1226
ag5
ag5
ag356
aa(lp4001
g1108
ag3
ag4
ag5
ag18
ag6
aa(lp4002
g84
ag25
ag374
ag5
ag84
ag298
aa(lp4003
g23
ag4
ag160
ag578
ag145
ag231
aa(lp4004
g3
ag4
ag1073
ag5
ag250
ag3
aa(lp4005
g4
ag250
ag4
ag132
ag5
ag3
aa(lp4006
g4
ag4
ag4
ag5
ag388
ag3
aa(lp4007
g476
ag617
a(S'escud'
I22
tp4008
ag627
ag153
ag3
aa(lp4009
g412
ag387
ag624
ag5
ag5
ag18
aa(lp4010
g504
ag102
ag18
ag169
ag5
ag97
aa(lp4011
g233
ag92
ag792
ag190
ag5
ag51
aa(lp4012
g412
ag97
ag975
ag77
ag18
ag37
aa(lp4013
g412
ag387
ag22
ag273
ag229
ag45
aa(lp4014
g18
ag4
ag4
ag5
ag54
ag3
aa(lp4015
g882
ag4
ag160
ag578
ag2222
ag365
aa(lp4016
g4
ag4
ag4
ag5
ag93
ag3
aa(lp4017
g4
ag18
ag124
ag217
ag5
ag51
aa(lp4018
g32
ag327
ag374
ag5
ag84
ag37
aa(lp4019
g41
ag159
ag4
ag430
ag515
ag4
aa(lp4020
g3
ag887
ag5
ag5
ag5
ag3
aa(lp4021
g941
ag4
ag1312
ag65
ag5
ag37
aa(lp4022
g899
ag8
ag293
ag294
ag5
ag4
aa(lp4023
g118
ag3
ag4
ag5
ag26
ag120
aa(lp4024
g54
ag54
ag1883
ag1884
ag222
ag1016
aa(lp4025
g3
ag4
ag5
ag25
ag5
ag4
aa(lp4026
g4
ag4
ag4
ag22
ag39
ag3
aa(lp4027
g41
ag566
ag4
ag5
ag18
ag37
aa(lp4028
g4
ag571
ag5
ag5
ag5
ag4
aa(lp4029
g4
ag4
ag2036
ag5
ag5
ag4
aa(lp4030
g4
ag221
ag77
ag137
ag5
ag3
aa(lp4031
g4
ag221
ag119
ag161
ag41
ag260
aa(lp4032
g149
ag190
ag4
ag5
ag41
ag3
aa(lp4033
g4
ag2773
ag4
ag132
ag5
ag356
aa(lp4034
g4
ag4
ag5
ag5
ag18
ag107
aa(lp4035
g4
ag181
ag212
ag504
ag5
ag3
aa(lp4036
g4
ag82
ag571
ag93
ag229
ag3
aa(lp4037
g4
ag4
ag374
ag5
ag5
ag248
aa(lp4038
g3499
ag259
ag4
ag5
ag5
ag107
aa(lp4039
g3
ag4
ag4
ag5
ag721
ag3
aa(lp4040
g39
ag290
ag9
ag347
ag5
ag51
aa(lp4041
g3
ag37
ag5
ag5
ag23
ag4
aa(lp4042
g41
ag4
ag4
ag5
ag5
ag120
aa(lp4043
g684
ag161
ag107
ag5
ag39
ag3
aa(lp4044
g3
ag14
ag4
ag5
ag215
ag1916
aa(lp4045
g384
ag102
ag18
ag672
ag210
ag4
aa(lp4046
g3
ag4
ag4
ag5
ag5
ag310
aa(lp4047
g481
ag290
ag9
ag10
ag11
ag4
aa(lp4048
g44
ag256
ag86
ag5
ag5
ag45
aa(lp4049
g4
ag4
ag37
ag132
ag5
ag4
aa(lp4050
g149
ag4
ag4
ag5
ag23
ag3
aa(lp4051
g4
ag277
ag2320
ag5
ag5
ag4
aa(lp4052
g2077
ag33
ag4
ag10
ag11
ag4
aa(lp4053
g3
ag3
ag22
ag5
ag23
ag310
aa(lp4054
g194
ag118
ag1228
ag9
ag153
ag3
aa(lp4055
g173
ag3
ag44
ag22
ag5
ag3
aa(lp4056
g4
ag617
ag4008
ag627
ag153
ag37
aa(lp4057
g4
ag4
ag18
ag203
ag18
ag116
aa(lp4058
g178
ag54
ag44
ag161
ag32
ag35
aa(lp4059
g81
ag92
ag23
ag264
ag18
ag37
aa(lp4060
g593
ag14
ag4
ag5
ag20
ag37
aa(lp4061
g9
ag118
ag86
ag5
ag54
ag179
aa(lp4062
g37
ag186
ag26
ag77
ag5
ag37
aa(lp4063
g41
ag221
ag49
ag5
ag60
ag871
aa(lp4064
g149
ag4
ag248
ag5
ag18
ag3
aa(lp4065
g149
ag39
ag4
ag5
ag5
ag3
aa(lp4066
g107
ag21
ag182
ag10
ag84
ag298
aa(lp4067
g4
ag4
ag277
ag39
ag5
ag4
aa(lp4068
g1021
ag3662
ag478
ag22
ag18
ag4
aa(lp4069
g41
ag159
ag792
ag190
ag11
ag4
aa(lp4070
g41
ag277
ag183
ag50
ag5
ag3
aa(lp4071
g41
ag215
ag642
ag5
ag153
ag3
aa(lp4072
g3
ag4
ag4
ag5
ag18
ag3
aa(lp4073
g560
ag49
ag478
ag137
ag41
ag410
aa(lp4074
g54
ag4
ag4
ag5
ag13
ag4
aa(lp4075
g95
ag4
ag817
ag90
ag515
ag231
aa(lp4076
g923
ag21
ag202
ag5
ag15
ag1016
aa(lp4077
g20
ag54
ag5
ag5
ag3317
ag4
aa(lp4078
g3
ag23
ag347
ag297
ag29
ag3
aa(lp4079
g41
ag2422
ag26
ag39
ag5
ag51
aa(lp4080
g26
ag4
ag4
ag5
ag18
ag75
aa(lp4081
g54
ag54
ag5
ag5
ag39
ag3
aa(lp4082
g109
ag92
ag5
ag10
ag84
ag518
aa(lp4083
g173
ag4
ag4
ag5
ag1065
ag3
aa(lp4084
g2417
ag398
ag599
ag65
ag60
ag1059
aa(lp4085
g2077
ag864
ag119
ag5
ag60
ag61
aa(lp4086
g39
ag290
ag29
ag5
ag5
ag3
aa(lp4087
g298
ag539
ag606
ag34
ag291
ag4
aa(lp4088
g39
ag4
ag135
ag5
ag1442
ag4
aa(lp4089
g3
ag155
ag86
ag5
ag60
ag222
aa(lp4090
g4
ag48
ag44
ag5
ag26
ag356
aa(lp4091
g39
ag272
ag107
ag5
ag18
ag222
aa(lp4092
g4
ag18
ag5
ag25
ag5
ag4
aa(lp4093
g13
ag159
ag4
ag216
ag1192
ag3
aa(lp4094
g173
ag4
ag277
ag6
ag5
ag3
aa(lp4095
g84
ag25
ag331
ag137
ag5
ag97
aa(lp4096
g3
ag37
ag4
ag297
ag5
ag51
aa(lp4097
g3
ag18
ag4
ag5
ag250
ag3
aa(lp4098
g41
ag14
ag599
ag65
ag66
ag3
aa(lp4099
g20
ag4
ag4
ag5
ag215
ag4
aa(lp4100
g4
ag250
ag4
ag39
ag5
ag4
aa(lp4101
g4
ag161
ag5
ag93
ag229
ag3
aa(lp4102
g44
ag3
ag4
ag5
ag18
ag45
aa(lp4103
g339
ag3
ag2435
ag129
ag11
ag4
aa(lp4104
g4
ag86
ag4
ag5
ag13
ag3
aa(lp4105
g4
ag221
ag119
ag161
ag75
ag3
aa(lp4106
g4
ag256
ag5
ag39
ag39
ag18
aa(lp4107
g3
ag18
ag5
ag5
ag5
ag310
aa(lp4108
g173
ag4
ag120
ag132
ag26
ag3
aa(lp4109
g4
ag3
ag4
ag5
ag23
ag72
aa(lp4110
g3
ag436
ag4
ag5
ag5
ag3
aa(lp4111
g41
ag566
ag86
ag132
ag20
ag133
aa(lp4112
g231
ag4
ag4
ag5
ag39
ag3
aa(lp4113
g18
ag4
ag4
ag5
ag93
ag4
aa(lp4114
g4
ag4
ag4
ag5
ag5
ag248
aa(lp4115
g334
ag4
ag4
ag5
ag334
ag3
aa(lp4116
g4
ag4
ag1063
ag5
ag5
ag356
aa(lp4117
g173
ag4
ag4
ag65
ag86
ag3
aa(lp4118
g3
ag39
ag4
ag5
ag314
ag48
aa(lp4119
g79
ag4
ag29
ag5
ag60
ag107
aa(lp4120
g4
ag18
ag5
ag5
ag5
ag4
aa(lp4121
g4
ag4
ag4
ag635
ag5
ag3
aa(lp4122
g54
ag201
ag115
ag99
ag100
ag18
aa(lp4123
g4
ag95
ag15
ag5
ag41
ag45
aa(lp4124
g3
ag4
ag4
ag132
ag5
ag310
aa(lp4125
g122
ag92
ag5
ag10
ag11
ag4
aa(lp4126
g3
ag48
ag234
ag273
ag153
ag3
aa(lp4127
g149
ag4
ag120
ag5
ag204
ag3
aa(lp4128
g3
ag49
ag4
ag5
ag5
ag4
aa(lp4129
g26
ag327
ag335
ag2056
ag204
ag56
aa(lp4130
g6
ag18
ag4
ag5
ag5
ag4
aa(lp4131
g4
ag4
ag9
ag5
ag5
ag72
aa(lp4132
g65
ag4
ag4
ag5
ag161
ag3
aa(lp4133
g23
ag48
ag234
ag430
ag448
ag4
aa(lp4134
g4
ag54
ag5
ag5
ag5
ag3
aa(lp4135
g44
ag48
ag107
ag430
ag515
ag3
aa(lp4136
g13
ag4
ag5
ag5
ag5
ag4
aa(lp4137
g79
ag102
ag4
ag103
ag803
ag3
aa(lp4138
g32
ag33
ag77
ag5
ag18
ag75
aa(lp4139
g339
ag155
ag86
ag132
ag60
ag61
aa(lp4140
g856
ag95
ag15
ag5
ag18
ag37
aa(lp4141
g26
ag201
ag4
ag351
ag104
ag291
aa(lp4142
g26
ag4
ag4
ag5
ag5
ag75
aa(lp4143
g23
ag215
ag642
ag161
ag5
ag51
aa(lp4144
g41
ag260
ag4
ag5
ag18
ag3
aa(lp4145
g4
ag155
ag86
ag5
ag15
ag56
aa(lp4146
g481
ag23
ag1337
ag901
ag18
ag454
aa(lp4147
g4
ag97
ag34
ag5
ag2755
ag4
aa(lp4148
g313
ag951
ag5
ag93
ag229
ag45
aa(lp4149
g3
ag539
ag4
ag5
ag84
ag518
aa(lp4150
g41
ag25
ag18
ag203
ag631
ag291
aa(lp4151
g41
ag4
ag120
ag5
ag5
ag4
aa(lp4152
g13
ag108
ag369
ag1425
ag204
ag1916
aa(lp4153
g18
ag4
ag4
ag5
ag5
ag41
aa(lp4154
g3
ag18
ag5
ag5
ag39
ag3
aa(lp4155
g3
ag8
ag4
ag5
ag15
ag3
aa(lp4156
g4
ag39
ag120
ag5
ag5
ag4
aa(lp4157
g3
ag8
ag18
ag672
ag5
ag51
aa(lp4158
g79
ag4
ag160
ag161
ag204
ag161
aa(lp4159
g697
ag161
ag37
ag347
ag2295
ag2983
aa(lp4160
g3
ag290
ag23
ag34
ag18
ag4
aa(lp4161
g81
ag617
ag55
ag814
ag5
ag231
aa(lp4162
g342
ag25
ag4
ag216
ag388
ag18
aa(lp4163
g79
ag23
ag124
ag391
ag122
ag4
aa(lp4164
g4
ag207
ag29
ag5
ag18
ag26
aa(lp4165
g41
ag4
ag5
ag5
ag161
ag3
aa(lp4166
g3
ag4
ag4
ag5
ag21
ag310
aa(lp4167
g41
ag124
ag1776
ag1777
ag260
ag37
aa(lp4168
g593
ag8
ag374
ag5
ag5
ag51
aa(lp4169
g435
ag2852
ag32
ag145
ag41
ag410
aa(lp4170
g4
ag4
ag70
ag5
ag18
ag356
aa(lp4171
g20
ag4
ag4
ag5
ag382
ag4
aa(lp4172
g39
ag39
ag219
ag5
ag5
ag18
aa(lp4173
g188
ag277
ag37
ag347
ag18
ag37
aa(lp4174
g194
ag118
ag86
ag262
ag18
ag3
aa(lp4175
g39
ag290
ag9
ag77
ag210
ag51
aa(lp4176
g4
ag361
ag4
ag5
ag161
ag3
aa(lp4177
g54
ag54
ag5
ag25
ag5
ag3
aa(lp4178
g769
ag151
ag29
ag5
ag84
ag298
aa(lp4179
g4
ag39
ag48
ag5
ag5
ag356
aa(lp4180
g44
ag54
ag4
ag5
ag5
ag4
aa(lp4181
g26
ag221
ag492
ag1381
ag515
ag3
aa(lp4182
g44
ag4
ag4
ag5
ag5
ag3
aa(lp4183
g149
ag4
ag277
ag132
ag5
ag3
aa(lp4184
g44
ag33
ag4
ag5
ag18
ag18
aa(lp4185
g4
ag39
ag37
ag5
ag5
ag4
aa(lp4186
g3
ag259
ag374
ag5
ag5
ag3
aa(lp4187
g4
ag37
ag4
ag5
ag41
ag72
aa(lp4188
g440
ag25
ag4
ag981
ag41
a(Vgrieg
I35
tp4189
aa(lp4190
g4
ag49
ag478
ag22
ag479
ag3
aa(lp4191
g109
ag272
ag107
ag5
ag5
ag75
aa(lp4192
g178
ag54
ag29
ag5
ag18
ag37
aa(lp4193
g3
ag4
ag4
ag132
ag39
ag4
aa(lp4194
g81
ag617
ag55
ag814
ag5
ag51
aa(lp4195
g4
ag82
ag2957
ag595
ag596
ag3
aa(lp4196
g4
ag39
ag18
ag5
ag18
ag4
aa(lp4197
g18
ag221
ag4
ag5
ag15
ag410
aa(lp4198
g26
ag4
ag248
ag6
ag5
ag75
aa(lp4199
g54
ag4
ag5
ag132
ag5
ag4
aa(lp4200
g44
ag48
ag5
ag132
ag20
ag133
aa(lp4201
g41
ag167
ag287
ag34
ag104
ag21
aa(lp4202
g694
ag310
ag23
ag161
ag2222
ag478
aa(lp4203
g39
ag21
ag844
ag845
ag846
ag75
aa(lp4204
g3
ag54
ag18
ag5
ag5
ag4
aa(lp4205
g368
ag369
ag18
ag5
ag66
ag16
aa(lp4206
g3
ag4
ag4
ag5
ag1509
ag310
aa(lp4207
g4
ag361
ag4
ag5
ag18
ag3
aa(lp4208
g26
ag4
ag4
ag5
ag84
ag3
aa(lp4209
g4
ag3
ag4
ag5
ag54
ag72
aa(lp4210
g75
ag201
ag202
ag901
ag215
ag120
aa(lp4211
g4
ag3
ag4
ag5
ag244
ag72
aa(lp4212
g202
ag175
ag119
ag981
ag305
ag4
aa(lp4213
g41
ag124
ag29
ag5
ag18
ag37
aa(lp4214
g3
ag18
ag5
ag132
ag5
ag3
aa(lp4215
g6
ag4
ag37
ag5
ag5
ag3
aa(lp4216
g20
ag4
ag4
ag103
ag5
ag4
aa(lp4217
g4
ag4
ag5
ag5
ag21
ag356
aa(lp4218
g3
ag1777
ag26
ag5
ag5
ag310
aa(lp4219
g173
ag3
ag4
ag5
ag458
ag3
aa(lp4220
g313
ag267
ag34
ag5
ag2755
ag262
aa(lp4221
g271
ag272
ag234
ag65
ag66
ag97
aa(lp4222
g3
ag290
ag9
ag161
ag75
ag6
aa(lp4223
g188
ag670
ag4
ag5
ag204
ag18
aa(lp4224
g39
ag290
ag9
ag77
ag229
ag120
aa(lp4225
g4
ag3
ag4
ag25
ag18
ag356
aa(lp4226
g37
ag8
ag34
ag5
ag15
ag56
aa(lp4227
g39
ag88
ag361
ag1007
ag39
ag4
aa(lp4228
g4
ag1228
ag837
ag5
ag18
ag37
aa(lp4229
g233
ag124
ag37
ag347
ag11
ag120
aa(lp4230
g26
ag4
ag202
ag5
ag5
ag3
aa(lp4231
g206
ag207
ag29
ag474
ag202
ag4
aa(lp4232
g75
ag2464
ag4
ag294
ag5
ag51
aa(lp4233
g774
ag48
ag937
ag474
ag202
ag37
aa(lp4234
g985
ag539
ag234
ag10
ag2523
ag18
aa(lp4235
g4
ag4
ag5
ag23
ag23
ag356
aa(lp4236
g4
ag54
ag753
ag264
ag204
ag4
aa(lp4237
g953
ag954
ag215
ag474
ag18
ag37
aa(lp4238
g215
ag4
ag4
ag132
ag5
ag4
aa(lp4239
g3
ag4
ag4
ag5
ag2124
ag3
aa(lp4240
g3
ag4
ag2146
ag5
ag41
ag310
aa(lp4241
g653
ag390
ag32
ag5
ag803
ag18
aa(lp4242
g26
ag3
ag21
ag5
ag5
ag75
aa(lp4243
g13
ag267
ag287
ag34
ag18
ag37
aa(lp4244
g26
ag39
ag5
ag5
ag5
ag3
aa(lp4245
g20
ag18
ag44
ag5
ag5
ag4
aa(lp4246
g3
ag4
ag37
ag5
ag1509
ag310
aa(lp4247
g18
ag4
ag160
ag22
ag54
ag179
aa(lp4248
g4
ag39
ag4
ag5
ag161
ag3
aa(lp4249
g39
ag14
ag374
ag132
ag20
ag26
aa(lp4250
g4
ag3
ag115
ag39
ag1337
ag1338
aa(lp4251
g54
ag143
ag234
ag2579
ag5
ag51
aa(lp4252
g41
ag23
ag1337
ag2534
ag3714
ag75
aa(lp4253
g3
ag18
ag107
ag132
ag45
ag41
aa(lp4254
g44
ag48
ag234
ag294
ag18
ag37
aa(lp4255
g593
ag286
ag287
ag474
ag202
ag277
aa(lp4256
g271
ag97
ag473
ag10
ag11
ag21
aa(lp4257
g13
ag37
ag5
ag5
ag23
ag1172
aa(lp4258
g54
ag4
ag5
ag268
ag75
ag107
aa(lp4259
g173
ag4
ag5
ag5
ag21
ag3
aa(lp4260
g4
ag361
ag4
ag5
ag431
ag4
aa(lp4261
g233
ag92
ag5
ag137
ag18
ag51
aa(lp4262
g4
ag4
ag5
ag5
ag3731
ag356
aa(lp4263
g4
ag4
ag277
ag132
ag5
ag4
aa(lp4264
g4
ag18
ag5
ag5
ag5
ag356
aa(lp4265
g13
ag159
ag4
ag5
ag15
ag179
aa(lp4266
g4
ag4
ag277
ag132
ag18
ag4
aa(lp4267
g4
ag4
ag4
ag5
ag161
ag4
aa(lp4268
g358
ag14
ag4
ag5
ag15
ag56
aa(lp4269
g4
ag4
ag5
ag5
ag26
ag356
aa(lp4270
g122
ag4
ag160
ag578
ag11
ag4
aa(lp4271
g368
ag369
ag18
ag5
ag18
ag4
aa(lp4272
g54
ag48
ag5
ag93
ag229
ag37
aa(lp4273
g4
ag221
ag18
ag1425
ag1053
ag26
aa(lp4274
g20
ag3
ag4
ag5
ag361
ag4
aa(lp4275
g4
ag4
ag513
ag5
ag5
ag356
aa(lp4276
g1108
ag3
ag18
ag5
ag39
ag6
aa(lp4277
g26
ag3
ag5
ag5
ag291
ag75
aa(lp4278
g41
ag4
ag4
ag5
ag23
ag3
aa(lp4279
g313
ag4
ag18
ag297
ag29
ag26
aa(lp4280
g4
ag4
ag29
ag39
ag5
ag37
aa(lp4281
g890
ag390
ag86
ag264
ag204
ag107
aa(lp4282
g149
ag4
ag4
ag39
ag361
ag3
aa(lp4283
g4
ag48
ag402
ag152
ag5
ag51
aa(lp4284
g39
ag290
ag9
ag5
ag18
ag37
aa(lp4285
g697
ag3
ag37
ag5
ag18
ag51
aa(lp4286
g3
ag4
ag4
ag5
ag305
ag4
aa(lp4287
g79
ag4
ag18
ag203
ag18
ag37
aa(lp4288
g41
ag64
ag37
ag347
ag39
ag16
aa(lp4289
g717
ag221
ag4
ag65
ag66
ag97
aa(lp4290
g4
ag398
ag5
ag5
ag18
ag4
aa(lp4291
g3
ag4
ag962
ag5
ag5
ag4
aa(lp4292
g593
ag14
ag49
ag124
ag125
ag4
aa(lp4293
g4
ag4
ag5
ag347
ag5
ag3
aa(lp4294
g95
ag4
ag18
ag203
ag284
ag3
aa(lp4295
g109
ag4
ag4
ag5
ag5
ag808
aa(lp4296
g149
ag4
ag18
ag5
ag39
ag3
aa(lp4297
g4
ag4
ag4
ag5
ag5
ag72
aa(lp4298
g6
ag4
ag5
ag5
ag5
ag18
aa(lp4299
g3
ag4
ag248
ag5
ag26
ag27
aa(lp4300
g26
ag4
ag4
ag5
ag39
ag3
aa(lp4301
g41
ag272
ag107
ag5
ag75
ag454
aa(lp4302
g41
ag3
ag5
ag297
ag29
ag26
aa(lp4303
g4
ag4
ag37
ag5
ag54
ag4
aa(lp4304
g3
ag18
ag4
ag5
ag5
ag3
aa(lp4305
g3
ag54
ag248
ag5
ag398
ag310
aa(lp4306
g44
ag48
ag4
ag39
ag5
ag4
aa(lp4307
g3
ag39
ag44
ag5
ag5
ag27
aa(lp4308
g178
ag54
ag44
ag351
ag5
ag545
aa(lp4309
g4
ag4
ag5
ag5
ag250
ag25
aa(lp4310
g856
ag256
ag4
ag216
ag5
ag51
aa(lp4311
g206
ag207
ag29
ag5
ag663
ag4
aa(lp4312
g109
ag92
ag287
ag34
ag18
ag4
aa(lp4313
g4
ag4
ag5
ag5
ag334
ag3
aa(lp4314
g149
ag4
ag4
ag5
ag26
ag3
aa(lp4315
g3
ag54
ag5
ag5
ag5
ag834
aa(lp4316
g4
ag4
ag5
ag118
ag54
ag4
aa(lp4317
g4
ag18
ag4
ag5
ag23
ag4
aa(lp4318
g4
ag4
ag4
ag22
ag5
ag3
aa(lp4319
g151
ag193
ag29
ag5
ag18
ag410
aa(lp4320
g20
ag37
a(S'vei'
I80
tp4321
ag5
ag23
ag4
aa(lp4322
g6
ag18
ag5
ag5
ag23
ag6
aa(lp4323
g18
ag4
ag4
ag39
ag5
ag248
aa(lp4324
g44
ag9
ag4
ag5
ag5
ag45
aa(lp4325
g41
ag97
ag287
ag34
ag18
ag37
aa(lp4326
g44
ag290
ag4
ag5
ag5
ag45
aa(lp4327
g3
ag4
ag4
ag37
ag5
ag6
aa(lp4328
g4
ag361
ag4
ag5
ag305
ag4
aa(lp4329
g358
ag39
ag3400
ag391
ag398
ag18
aa(lp4330
g44
ag4
ag4
ag5
ag5
ag4
aa(lp4331
g18
ag4
ag4
ag5
ag5
ag4
aa(lp4332
g95
ag1565
ag4
ag5
ag20
ag133
aa(lp4333
g149
ag4
ag77
ag5
ag5
ag3
aa(lp4334
g4
ag18
ag1058
ag137
ag204
ag18
aa(lp4335
g593
ag14
ag4
ag5
ag15
ag3
aa(lp4336
g3
ag8
ag624
ag9
ag104
ag21
aa(lp4337
g4
ag4
ag4
ag5
ag75
ag3
aa(lp4338
g3
ag4
ag4
ag5
ag721
ag4
aa(lp4339
g4
ag59
ag518
ag981
ag305
ag560
aa(lp4340
g6
ag639
ag998
ag302
ag204
ag37
aa(lp4341
g202
ag48
ag234
ag273
ag204
ag18
aa(lp4342
g4
ag54
ag4
ag5
ag5
ag4
aa(lp4343
g4
ag4
ag4
ag5
ag5
ag26
aa(lp4344
g3
ag4
ag21
ag5
ag86
ag27
aa(lp4345
g358
ag161
ag599
ag77
ag210
ag18
aa(lp4346
g54
ag4
ag4
ag5
ag5
ag120
aa(lp4347
g3
ag33
ag44
ag60
ag1597
ag3
aa(lp4348
g4
ag2422
ag293
ag5
ag18
ag3
aa(lp4349
g697
ag82
ag83
ag5
ag84
ag18
aa(lp4350
g39
ag4
ag4
ag5
ag161
ag26
aa(lp4351
g483
ag14
ag4
ag5
ag54
ag179
aa(lp4352
g386
ag14
ag4
ag5
ag84
ag37
aa(lp4353
g118
ag4
ag277
ag39
ag5
ag120
aa(lp4354
g215
ag4
ag5
ag5
ag5
ag26
aa(lp4355
g18
ag18
ag4
ag5
ag5
ag3
aa(lp4356
g20
ag37
ag21
ag132
ag2238
ag4
aa(lp4357
g20
ag3
ag18
ag5
ag18
ag4
aa(lp4358
g3
ag18
ag5
ag5
ag250
ag3
aa(lp4359
g3
ag290
ag5
ag225
ag2222
ag16
aa(lp4360
g41
ag97
ag4
ag845
ag1078
ag18
aa(lp4361
g54
ag4
ag4
ag5
ag250
ag41
aa(lp4362
g1303
ag2422
ag293
ag294
ag18
ag37
aa(lp4363
g4
ag221
ag418
ag419
ag74
ag75
aa(lp4364
g4
ag221
ag77
ag137
ag84
ag298
aa(lp4365
g4
ag175
ag119
ag225
ag145
ag3
aa(lp4366
g1021
ag45
ag32
ag152
ag153
ag97
aa(lp4367
g58
ag1954
ag335
ag1381
ag184
ag41
aa(lp4368
g334
ag4
ag4
ag5
ag5
ag3
aa(lp4369
g3293
ag23
ag1337
ag5
ag15
ag298
aa(lp4370
g3
ag4
ag77
ag5
ag5
ag310
aa(lp4371
g20
ag4
ag23
ag6
ag5
ag4
aa(lp4372
g79
ag4
ag77
ag137
ag15
ag18
aa(lp4373
g54
ag181
ag9
ag40
ag204
ag18
aa(lp4374
g39
ag4
ag4
ag5
ag5
ag4
aa(lp4375
g4
ag3
ag107
ag132
ag5
ag356
aa(lp4376
g3
ag2422
ag5
ag65
ag66
ag97
aa(lp4377
g18
ag4
ag5
ag5
ag834
ag4
aa(lp4378
g20
ag3
ag4
ag132
ag5
ag4
aa(lp4379
g3
ag4
ag4
ag5
ag60
ag27
aa(lp4380
g4
ag617
ag21
ag294
ag18
ag107
aa(lp4381
g4
ag82
ag4
ag132
ag5
ag3
aa(lp4382
g20
ag4
ag4
ag90
ag2238
ag4
aa(lp4383
g3
ag18
ag5
ag5
ag250
ag4
aa(lp4384
g4
ag4
ag4
ag5
ag54
ag4
aa(lp4385
g358
ag39
ag55
ag37
ag515
ag97
aa(lp4386
g4
ag4
ag4
ag5
ag90
ag18
aa(lp4387
g3
ag4
ag2146
ag5
ag5
ag310
aa(lp4388
g65
ag4
ag5
ag233
ag5
ag4
aa(lp4389
g39
ag1565
ag4
ag5
ag18
ag37
aa(lp4390
g149
ag3
ag4
ag63
ag39
ag3
aa(lp4391
g4
ag18
ag5
ag5
ag39
ag120
aa(lp4392
g20
ag3
ag65
ag5
ag361
ag4
aa(lp4393
g20
ag3
ag4
ag5
ag334
ag4
aa(lp4394
g26
ag884
ag4
ag5
ag5
ag75
aa(lp4395
g4
ag4
ag4
ag5
ag23
ag356
aa(lp4396
g3
ag539
ag998
ag302
ag204
ag4
aa(lp4397
g4
ag3
ag4
ag5
ag86
ag356
aa(lp4398
g3
ag4
ag277
ag132
ag5
ag4
aa(lp4399
g4
ag4
ag18
ag5
ag5
ag72
aa(lp4400
g3
ag3
ag335
ag161
ag21
ag310
aa(lp4401
g774
ag775
ag4
ag216
ag388
ag51
aa(lp4402
g4
ag25
ag601
ag454
ag5
ag298
aa(lp4403
g233
ag167
ag29
ag5
ag291
ag4
aa(lp4404
g476
ag1228
ag29
ag5
ag291
ag4
aa(lp4405
g560
ag49
ag478
ag391
ag122
ag3
aa(lp4406
g386
ag387
ag29
ag391
ag122
ag3
aa(lp4407
g54
ag37
ag4
ag5
ag202
ag395
aa(lp4408
g4
ag49
ag234
ag2579
ag5
ag51
aa(lp4409
g4
ag3
ag4
ag5
ag335
ag356
aa(lp4410
g339
ag2422
ag293
ag5
ag18
ag18
aa(lp4411
g481
ag259
ag5
ag268
ag11
ag3
aa(lp4412
g4
ag4
ag248
ag5
ag39
ag356
aa(lp4413
g4
ag221
ag418
ag39
ag388
ag4
aa(lp4414
g697
ag3
ag234
ag273
ag54
ag179
aa(lp4415
g1774
ag1565
ag18
ag9
ag225
ag579
aa(lp4416
g41
ag14
ag4
ag1948
ag721
ag4189
aa(lp4417
g54
ag330
ag374
ag65
ag66
ag97
aa(lp4418
g3
ag4
ag5
ag39
ag5
ag41
aa(lp4419
g44
ag48
ag21
ag5
ag5
ag45
aa(lp4420
g13
ag39
ag55
ag814
ag5
ag4
aa(lp4421
g41
ag387
ag98
ag328
ag663
ag51
aa(lp4422
g95
ag4
ag160
ag5
ag5
ag23
aa(lp4423
g481
ag23
ag1337
ag5
ag515
ag2983
aa(lp4424
g4
ag39
ag18
ag5
ag39
ag4
aa(lp4425
g173
ag4
ag70
ag5
ag39
ag3
aa(lp4426
g84
ag25
ag473
ag5
ag18
ag4
aa(lp4427
g3
ag4
ag4
ag1059
ag5
ag27
aa(lp4428
g3
ag4
ag4
ag5
ag2289
ag4
aa(lp4429
g342
ag267
ag335
ag25
ag1053
ag4
aa(lp4430
g3848
ag39
ag5
ag5
ag5
ag4
aa(lp4431
g4
ag277
ag4
ag118
ag5
ag3
aa(lp4432
g3
ag2345
ag4
ag5
ag5
ag4
aa(lp4433
g3
ag4
ag5
ag5
ag250
ag4
aa(lp4434
g440
ag25
ag792
ag190
ag18
ag37
aa(lp4435
g4
ag3156
ag4
ag5
ag161
ag3
aa(lp4436
g20
ag3
ag4
ag5
ag5
ag4
aa(lp4437
g118
ag4
ag4
ag5
ag18
ag120
aa(lp4438
g173
ag2773
ag4
ag5
ag5
ag3
aa(lp4439
g215
ag39
ag4
ag5
ag5
ag4
aa(lp4440
g79
ag4
ag1293
ag268
ag75
ag107
aa(lp4441
g79
ag39
ag492
ag1381
ag29
ag26
aa(lp4442
g41
ag97
ag34
ag5
ag39
ag176
aa(lp4443
g3
ag14
ag4
ag103
ag5
ag814
aa(lp4444
g235
ag3
ag4
ag5
ag5
ag32
aa(lp4445
g44
ag4
ag77
ag5
ag5
ag45
aa(lp4446
g342
ag48
ag4
ag5
ag18
ag4
aa(lp4447
g941
ag4
ag4
ag39
ag37
ag37
aa(lp4448
g4
ag4
ag277
ag132
ag18
ag37
aa(lp4449
g3
ag4
ag5
ag5
ag5
ag4
aa(lp4450
g54
ag4
ag4
ag5
ag834
ag3
aa(lp4451
g41
ag1381
ag4
ag5
ag5
ag4
aa(lp4452
g4
ag256
ag5
ag5
ag37
ag4
aa(lp4453
g109
ag33
ag4
ag5
ag846
ag41
aa(lp4454
g44
ag48
ag234
ag161
ag663
ag75
aa(lp4455
g3
ag4
ag4
ag5
ag5
ag107
aa(lp4456
g2885
ag4
ag4
ag129
ag5
ag4
aa(lp4457
g4
ag4
ag962
ag5
ag86
ag3
aa(lp4458
g41
ag25
ag4
ag297
ag29
ag298
aa(lp4459
g23
ag97
ag3400
ag65
ag663
ag75
aa(lp4460
g202
ag290
ag9
ag161
ag75
ag6
aa(lp4461
g41
ag18
ag4
ag5
ag5
ag4
aa(lp4462
g4
ag4
ag4
ag954
ag5
ag72
aa(lp4463
g3
ag4
ag5
ag5
ag32
ag4
aa(lp4464
g151
ag4
ag478
ag137
ag5
ag159
aa(lp4465
g41
ag97
ag182
ag10
ag15
ag37
aa(lp4466
g173
ag4
ag5
ag132
ag39
ag3
aa(lp4467
g41
ag97
ag215
ag65
ag66
ag37
aa(lp4468
g4
a(S'da'
I50
tp4469
ag4
ag22
ag5
ag356
aa(lp4470
g4
ag4
ag120
ag132
ag5
ag72
aa(lp4471
g188
ag4
ag160
ag5
ag84
ag179
aa(lp4472
g4
ag92
ag4
ag403
ag41
ag231
aa(lp4473
g298
ag539
ag374
ag5
ag2523
ag18
aa(lp4474
g81
ag92
ag5
ag5
ag18
ag4
aa(lp4475
g3
ag4
ag4
ag5
ag18
ag4
aa(lp4476
g84
ag25
ag645
ag190
ag18
ag37
aa(lp4477
g4
ag18
ag65
ag5
ag23
ag4
aa(lp4478
g200
ag201
ag29
ag5
ag18
ag37
aa(lp4479
g2372
ag4
ag4
ag22
ag54
ag54
aa(lp4480
g173
ag86
ag21
ag5
ag5
ag3
aa(lp4481
g41
ag97
ag473
ag474
ag5
ag51
aa(lp4482
g26
ag4
ag4
ag132
ag21
ag75
aa(lp4483
g4
ag221
ag29
ag161
ag75
ag37
aa(lp4484
g233
ag167
ag44
ag351
ag5
ag37
aa(lp4485
g386
ag387
ag518
ag391
ag122
ag4
aa(lp4486
g58
ag279
ag161
ag5
ag60
ag871
aa(lp4487
g81
ag92
ag26
ag5
ag84
ag518
aa(lp4488
g118
ag4
ag4
ag5
ag204
ag120
aa(lp4489
g4
ag4
ag160
ag901
ag210
ag250
aa(lp4490
g4
ag54
ag5
ag5
ag5
ag4
aa(lp4491
g313
ag290
ag293
ag496
ag18
ag161
aa(lp4492
g45
ag4
ag4
ag5
ag5
ag41
aa(lp4493
g4
ag3
ag4
ag6
ag5
ag356
aa(lp4494
g26
ag3
ag48
ag5
ag5
ag75
aa(lp4495
g4
ag4
ag120
ag5
ag5
ag3
aa(lp4496
g3
ag8
ag518
ag391
ag846
ag1374
aa(lp4497
g890
ag1228
ag837
ag5
ag18
ag37
aa(lp4498
g4
ag23
ag5
ag5
ag5
ag4
aa(lp4499
g26
ag4
ag5
ag5
ag5
ag3
aa(lp4500
g882
ag4
ag135
ag430
ag515
ag3
aa(lp4501
g4
ag4
ag4
a(S'seleccion'
I53
tp4502
ag5
ag356
aa(lp4503
g4
ag4
ag4
ag5
ag54
ag3
aa(lp4504
g339
ag3
ag2435
ag1216
ag204
ag18
aa(lp4505
g18
ag4
ag4
ag5
ag39
ag4
aa(lp4506
g26
ag327
ag374
ag5
ag145
ag37
aa(lp4507
g4
ag2464
ag26
ag65
ag18
ag56
aa(lp4508
g95
ag4
ag119
ag161
ag75
ag26
aa(lp4509
g4
ag221
ag18
ag203
ag663
ag231
aa(lp4510
g44
ag3
ag4
ag5
ag361
ag45
aa(lp4511
g358
ag277
ag275
ag728
ag204
ag18
aa(lp4512
g4
ag4
ag4
ag5
ag244
ag3
aa(lp4513
g4
ag4
ag18
ag5
ag431
ag3
aa(lp4514
g79
ag8
ag4
ag5
ag15
ag410
aa(lp4515
g4
ag4
ag4
ag5
ag54
ag41
aa(lp4516
g476
ag21
ag189
ag5
ag1129
ag23
aa(lp4517
g188
ag670
ag119
ag161
ag2222
ag4
aa(lp4518
g4
ag3
ag168
ag37
ag74
ag260
aa.